
./broken:     file format elf32-littlearm
./broken
architecture: armv7e-m, flags 0x00000112:
EXEC_P, HAS_SYMS, D_PAGED
start address 0x080001f9

Program Header:
    LOAD off    0x00010000 vaddr 0x08000000 paddr 0x08000000 align 2**16
         filesz 0x000001f8 memsz 0x000001f8 flags r--
    LOAD off    0x000101f8 vaddr 0x080001f8 paddr 0x080001f8 align 2**16
         filesz 0x0000973c memsz 0x0000973c flags r-x
    LOAD off    0x00019938 vaddr 0x08009938 paddr 0x08009938 align 2**16
         filesz 0x00001918 memsz 0x00001918 flags r--
    LOAD off    0x00020000 vaddr 0x20000000 paddr 0x0800b250 align 2**16
         filesz 0x00000038 memsz 0x00000038 flags rw-
    LOAD off    0x00030038 vaddr 0x20000038 paddr 0x20000038 align 2**16
         filesz 0x00000000 memsz 0x0000043c flags rw-
   STACK off    0x00000000 vaddr 0x00000000 paddr 0x00000000 align 2**0
         filesz 0x00000000 memsz 0x00000000 flags rw-
private flags = 0x5000400: [Version5 EABI] [hard-float ABI]

Sections:
Idx Name          Size      VMA       LMA       File off  Algn
  0 .vector_table 000001f8  08000000  08000000  00010000  2**2
                  CONTENTS, ALLOC, LOAD, READONLY, DATA
  1 .text         0000973c  080001f8  080001f8  000101f8  2**2
                  CONTENTS, ALLOC, LOAD, READONLY, CODE
  2 .rodata       00001918  08009938  08009938  00019938  2**3
                  CONTENTS, ALLOC, LOAD, READONLY, DATA
  3 .data         00000038  20000000  0800b250  00020000  2**2
                  CONTENTS, ALLOC, LOAD, DATA
  4 .gnu.sgstubs  00000000  0800b2a0  0800b2a0  00020040  2**5
                  CONTENTS, ALLOC, LOAD, READONLY, DATA
  5 .bss          0000003c  20000038  20000038  00030038  2**3
                  ALLOC
  6 .uninit       00000400  20000074  20000074  00030038  2**2
                  ALLOC
  7 .defmt        00000042  00000000  00000000  00030038  2**0
                  CONTENTS, READONLY
  8 .debug_loc    00024dc2  00000000  00000000  0003007a  2**0
                  CONTENTS, READONLY, DEBUGGING, OCTETS
  9 .debug_abbrev 000015ad  00000000  00000000  00054e3c  2**0
                  CONTENTS, READONLY, DEBUGGING, OCTETS
 10 .debug_info   0006faf7  00000000  00000000  000563e9  2**0
                  CONTENTS, READONLY, DEBUGGING, OCTETS
 11 .debug_aranges 00001600  00000000  00000000  000c5ee0  2**0
                  CONTENTS, READONLY, DEBUGGING, OCTETS
 12 .debug_ranges 0000ab60  00000000  00000000  000c74e0  2**0
                  CONTENTS, READONLY, DEBUGGING, OCTETS
 13 .debug_str    0006ae3a  00000000  00000000  000d2040  2**0
                  CONTENTS, READONLY, DEBUGGING, OCTETS
 14 .comment      0000008b  00000000  00000000  0013ce7a  2**0
                  CONTENTS, READONLY
 15 .ARM.attributes 00000038  00000000  00000000  0013cf05  2**0
                  CONTENTS, READONLY
 16 .debug_frame  00000eac  00000000  00000000  0013cf40  2**2
                  CONTENTS, READONLY, DEBUGGING, OCTETS
 17 .debug_line   00015a25  00000000  00000000  0013ddec  2**0
                  CONTENTS, READONLY, DEBUGGING, OCTETS
 18 .debug_pubnames 000002be  00000000  00000000  00153811  2**0
                  CONTENTS, READONLY, DEBUGGING, OCTETS
 19 .debug_pubtypes 00000047  00000000  00000000  00153acf  2**0
                  CONTENTS, READONLY, DEBUGGING, OCTETS
SYMBOL TABLE:
00000000 l    df *ABS*	00000000 ip.db5b21dddbb36540-cgu.3
08009914 l     F .text	00000018 HardFaultTrampoline
08000250 l     F .text	0000010c smoltcp::wire::arp::Repr::emit
08009998 l     O .rodata	00000010 .Lanon.8aa7df76f1befd364c3104ad4c2811fa.8
080037fe l     F .text	00000032 core::slice::index::slice_index_fail
08009968 l     O .rodata	00000010 .Lanon.8aa7df76f1befd364c3104ad4c2811fa.5
08009948 l     O .rodata	00000010 .Lanon.8aa7df76f1befd364c3104ad4c2811fa.3
08009958 l     O .rodata	00000010 .Lanon.8aa7df76f1befd364c3104ad4c2811fa.4
08009938 l     O .rodata	00000010 .Lanon.8aa7df76f1befd364c3104ad4c2811fa.2
08009978 l     O .rodata	00000010 .Lanon.8aa7df76f1befd364c3104ad4c2811fa.6
08009988 l     O .rodata	00000010 .Lanon.8aa7df76f1befd364c3104ad4c2811fa.7
080099a8 l     O .rodata	00000010 .Lanon.8aa7df76f1befd364c3104ad4c2811fa.9
080038fc l     F .text	00000028 core::panicking::panic_bounds_check
080099b8 l     O .rodata	00000010 .Lanon.8aa7df76f1befd364c3104ad4c2811fa.10
0800035c l     F .text	00000dc0 smoltcp::iface::interface::InterfaceInner::dispatch_ip
08004476 l     F .text	00000026 defmt::export::acquire_header_and_release
08008422 l     F .text	0000013e smoltcp::iface::route::Routes::lookup
0800b00c l     O .rodata	0000002c .Lanon.9cfaa6f313d9130c3bf3213837ff6d35.7
0800b038 l     O .rodata	00000010 .Lanon.9cfaa6f313d9130c3bf3213837ff6d35.8
08003924 l     F .text	0000000c core::panicking::panic
08008156 l     F .text	000002cc smoltcp::wire::ip::checksum::data
08007c94 l     F .text	0000017e smoltcp::wire::ipv4::Repr::emit
0800aae0 l     O .rodata	00000010 .Lanon.ee555cc9a30366a9abf098ddf788bd84.41
080062c0 l     F .text	00000224 smoltcp::wire::tcp::TcpOption::emit
0800ab70 l     O .rodata	00000024 .Lanon.ee555cc9a30366a9abf098ddf788bd84.55
0800ab94 l     O .rodata	00000024 .Lanon.ee555cc9a30366a9abf098ddf788bd84.56
08004454 l     F .text	00000022 defmt::export::acquire_and_header
080043b0 l     F .text	000000a4 defmt::impls::core_::net::<impl defmt::traits::Format for core::net::ip_addr::Ipv4Addr>::format
0800a518 l     O .rodata	00000036 .Lanon.8aa7df76f1befd364c3104ad4c2811fa.22
0800a550 l     O .rodata	00000010 .Lanon.8aa7df76f1befd364c3104ad4c2811fa.24
0800b0b8 l     O .rodata	0000001d .Lanon.ed157fc5cbdd1a6edf19cdf9648d5188.21
0800b0d8 l     O .rodata	00000010 .Lanon.ed157fc5cbdd1a6edf19cdf9648d5188.22
0800a9ec l     O .rodata	00000010 .Lanon.dd1935691476038951f4dc0f5cac2ac5.15
0800a9fc l     O .rodata	00000010 .Lanon.dd1935691476038951f4dc0f5cac2ac5.17
0800ae0c l     O .rodata	00000010 .Lanon.7ae0fc733917b56e83876efbea07ac2a.15
0800ae4c l     O .rodata	00000010 .Lanon.7ae0fc733917b56e83876efbea07ac2a.21
0800adcc l     O .rodata	00000010 .Lanon.7ae0fc733917b56e83876efbea07ac2a.5
0800adfc l     O .rodata	00000010 .Lanon.7ae0fc733917b56e83876efbea07ac2a.11
0800adec l     O .rodata	00000010 .Lanon.7ae0fc733917b56e83876efbea07ac2a.9
0800af58 l     O .rodata	00000010 .Lanon.08d70b627e08cc39a48f4d9327c4d667.12
0800af88 l     O .rodata	00000010 .Lanon.08d70b627e08cc39a48f4d9327c4d667.15
0800ab10 l     O .rodata	00000010 .Lanon.ee555cc9a30366a9abf098ddf788bd84.44
0800af78 l     O .rodata	00000010 .Lanon.08d70b627e08cc39a48f4d9327c4d667.14
0800ab00 l     O .rodata	00000010 .Lanon.ee555cc9a30366a9abf098ddf788bd84.43
0800af98 l     O .rodata	00000010 .Lanon.08d70b627e08cc39a48f4d9327c4d667.19
0800ab40 l     O .rodata	00000010 .Lanon.ee555cc9a30366a9abf098ddf788bd84.47
0800ab30 l     O .rodata	00000010 .Lanon.ee555cc9a30366a9abf098ddf788bd84.46
0800ab50 l     O .rodata	00000010 .Lanon.ee555cc9a30366a9abf098ddf788bd84.48
0800afa8 l     O .rodata	00000010 .Lanon.08d70b627e08cc39a48f4d9327c4d667.29
08004118 l     F .text	0000000e core::slice::copy_from_slice_impl::len_mismatch_fail
0800af68 l     O .rodata	00000010 .Lanon.08d70b627e08cc39a48f4d9327c4d667.13
0800abb8 l     O .rodata	00000010 .Lanon.ee555cc9a30366a9abf098ddf788bd84.58
0800ace0 l     O .rodata	00000010 .Lanon.e728c747789d4d3550167230b35740f6.91
0800acc0 l     O .rodata	00000010 .Lanon.e728c747789d4d3550167230b35740f6.87
0800acd0 l     O .rodata	00000010 .Lanon.e728c747789d4d3550167230b35740f6.88
0800ab20 l     O .rodata	00000010 .Lanon.ee555cc9a30366a9abf098ddf788bd84.45
0800aaf0 l     O .rodata	00000010 .Lanon.ee555cc9a30366a9abf098ddf788bd84.42
0800ad10 l     O .rodata	00000010 .Lanon.e728c747789d4d3550167230b35740f6.96
0800ad30 l     O .rodata	00000010 .Lanon.e728c747789d4d3550167230b35740f6.98
0800ad00 l     O .rodata	00000010 .Lanon.e728c747789d4d3550167230b35740f6.95
0800ad20 l     O .rodata	00000010 .Lanon.e728c747789d4d3550167230b35740f6.97
0800b098 l     O .rodata	00000010 .Lanon.ed157fc5cbdd1a6edf19cdf9648d5188.17
0800606a l     F .text	00000086 core::ptr::drop_in_place<core::result::Result<stm32_eth::dma::tx::TxPacket,stm32_eth::dma::tx::TxError>>
0800aa0c l     O .rodata	00000010 .Lanon.dd1935691476038951f4dc0f5cac2ac5.19
080037ea l     F .text	00000014 core::option::unwrap_failed
0800addc l     O .rodata	00000010 .Lanon.7ae0fc733917b56e83876efbea07ac2a.8
0800ae3c l     O .rodata	00000010 .Lanon.7ae0fc733917b56e83876efbea07ac2a.19
0800ae5c l     O .rodata	00000010 .Lanon.7ae0fc733917b56e83876efbea07ac2a.26
0800ae1c l     O .rodata	00000010 .Lanon.7ae0fc733917b56e83876efbea07ac2a.16
0800b058 l     O .rodata	00000010 .Lanon.ed157fc5cbdd1a6edf19cdf9648d5188.5
0800acf0 l     O .rodata	00000010 .Lanon.e728c747789d4d3550167230b35740f6.92
0800111c l     F .text	000023e4 smoltcp::iface::interface::Interface::poll
0800b0a8 l     O .rodata	00000010 .Lanon.ed157fc5cbdd1a6edf19cdf9648d5188.19
08008560 l     F .text	00000372 smoltcp::iface::neighbor::Cache::fill
08007aae l     F .text	000001b6 smoltcp::iface::interface::ipv4::<impl smoltcp::iface::interface::InterfaceInner>::icmpv4_reply
08007f46 l     F .text	00000092 smoltcp::socket::udp::Socket::accepts
08007fd8 l     F .text	0000017e smoltcp::socket::udp::Socket::process
0800623c l     F .text	00000084 <core::slice::iter::IterMut<T> as core::iter::traits::iterator::Iterator>::fold
080065a4 l     F .text	0000121e smoltcp::socket::tcp::Socket::process
080077c2 l     F .text	00000096 smoltcp::socket::tcp::Socket::rst_reply
080064e4 l     F .text	000000c0 smoltcp::socket::tcp::Socket::seq_to_transmit
0800ac78 l     O .rodata	00000038 .Lanon.ee555cc9a30366a9abf098ddf788bd84.70
0800acb0 l     O .rodata	00000010 .Lanon.ee555cc9a30366a9abf098ddf788bd84.71
080038e0 l     F .text	0000001c core::panicking::panic_fmt
0800b0f8 l     O .rodata	00000041 .Lanon.e5fdbc5d2fbccefff69a0640183fd610.2
0800b13c l     O .rodata	00000010 .Lanon.e5fdbc5d2fbccefff69a0640183fd610.4
08004152 l     F .text	00000026 core::option::expect_failed
0800b14c l     O .rodata	00000042 .Lanon.e5fdbc5d2fbccefff69a0640183fd610.5
0800b190 l     O .rodata	00000010 .Lanon.e5fdbc5d2fbccefff69a0640183fd610.6
0800b068 l     O .rodata	00000010 .Lanon.ed157fc5cbdd1a6edf19cdf9648d5188.7
0800a9bc l     O .rodata	00000010 .Lanon.02e056d4c889a085f771c01290e74e2f.20
0800a9dc l     O .rodata	00000010 .Lanon.02e056d4c889a085f771c01290e74e2f.23
0800a560 l     O .rodata	00000016 .Lanon.8aa7df76f1befd364c3104ad4c2811fa.25
0800a578 l     O .rodata	00000010 .Lanon.8aa7df76f1befd364c3104ad4c2811fa.26
0800a988 l     O .rodata	00000022 .Lanon.02e056d4c889a085f771c01290e74e2f.18
0800a9ac l     O .rodata	00000010 .Lanon.02e056d4c889a085f771c01290e74e2f.19
0800a958 l     O .rodata	00000010 .Lanon.02e056d4c889a085f771c01290e74e2f.13
0800a9cc l     O .rodata	00000010 .Lanon.02e056d4c889a085f771c01290e74e2f.22
0800aa9c l     O .rodata	00000033 .Lanon.ee555cc9a30366a9abf098ddf788bd84.23
0800aad0 l     O .rodata	00000010 .Lanon.ee555cc9a30366a9abf098ddf788bd84.25
0800a968 l     O .rodata	00000010 .Lanon.02e056d4c889a085f771c01290e74e2f.15
0800b078 l     O .rodata	00000010 .Lanon.ed157fc5cbdd1a6edf19cdf9648d5188.14
0800ae2c l     O .rodata	00000010 .Lanon.7ae0fc733917b56e83876efbea07ac2a.17
0800aebc l     O .rodata	00000010 .Lanon.321b12b0c8d62f4934ae814c6c7478a1.12
080041b6 l     F .text	00000014 core::panicking::panic_const::panic_const_rem_by_zero
0800b088 l     O .rodata	00000010 .Lanon.ed157fc5cbdd1a6edf19cdf9648d5188.16
0800a978 l     O .rodata	00000010 .Lanon.02e056d4c889a085f771c01290e74e2f.17
0800ae6c l     O .rodata	00000010 .Lanon.e649bb90f52bb047098cd49f541ed508.21
0800ae7c l     O .rodata	00000010 .Lanon.e649bb90f52bb047098cd49f541ed508.22
0800ae8c l     O .rodata	00000010 .Lanon.e649bb90f52bb047098cd49f541ed508.23
0800ae9c l     O .rodata	00000010 .Lanon.e649bb90f52bb047098cd49f541ed508.24
0800adac l     O .rodata	00000010 .Lanon.ee56ee3d56b2a23f692cb60d33ec53f4.8
0800ac48 l     O .rodata	00000010 .Lanon.ee555cc9a30366a9abf098ddf788bd84.67
0800aa2c l     O .rodata	00000010 .Lanon.ee555cc9a30366a9abf098ddf788bd84.2
0800ac28 l     O .rodata	00000010 .Lanon.ee555cc9a30366a9abf098ddf788bd84.65
0800ac38 l     O .rodata	00000010 .Lanon.ee555cc9a30366a9abf098ddf788bd84.66
0800ab60 l     O .rodata	00000010 .Lanon.ee555cc9a30366a9abf098ddf788bd84.54
08003500 l     F .text	0000010c core::fmt::write
0800360c l     F .text	0000019c core::fmt::Formatter::pad_integral
080037a8 l     F .text	00000042 core::fmt::Formatter::pad_integral::write_prefix
0800a650 l     O .rodata	0000002b .Lanon.dc388a968c23fa524085dd94a83f5751.251
08003830 l     F .text	0000002c core::slice::index::slice_index_fail::do_panic::runtime
0800385c l     F .text	0000002c core::slice::index::slice_index_fail::do_panic::runtime
080038b4 l     F .text	0000002c core::slice::index::slice_index_fail::do_panic::runtime
08003888 l     F .text	0000002c core::slice::index::slice_index_fail::do_panic::runtime
08004016 l     F .text	00000102 core::fmt::num::imp::<impl core::fmt::Display for u32>::fmt
080060f0 l     F .text	00000088 __rustc::rust_begin_unwind
08003930 l     F .text	00000014 <&T as core::fmt::Display>::fmt
08003944 l     F .text	00000652 core::fmt::Formatter::pad
08003f96 l     F .text	00000014 core::panicking::panic_const::panic_const_div_by_zero
0800a67b l     O .rodata	00000019 .Lanon.dc388a968c23fa524085dd94a83f5751.271
08003faa l     F .text	00000010 <&T as core::fmt::Debug>::fmt
08003fba l     F .text	0000005c core::fmt::num::imp::<impl core::fmt::Display for u8>::fmt
0800a588 l     O .rodata	000000c8 .Lanon.dc388a968c23fa524085dd94a83f5751.14
08004126 l     F .text	0000002c core::slice::copy_from_slice_impl::len_mismatch_fail::do_panic::runtime
08004178 l     F .text	0000003e core::result::unwrap_failed
0800a694 l     O .rodata	00000039 .Lanon.dc388a968c23fa524085dd94a83f5751.273
080041ca l     F .text	000000ce <core::net::ip_addr::Ipv4Addr as core::fmt::Display>::fmt
0800a6d4 l     O .rodata	00000018 .Lanon.dc388a968c23fa524085dd94a83f5751.363
0800a6ec l     O .rodata	00000010 .Lanon.dc388a968c23fa524085dd94a83f5751.365
0800a910 l     O .rodata	0000002b .Lanon.02e056d4c889a085f771c01290e74e2f.8
0800a6fc l     O .rodata	00000010 .Lanon.dc388a968c23fa524085dd94a83f5751.366
0800a70c l     O .rodata	00000010 .Lanon.dc388a968c23fa524085dd94a83f5751.369
08004298 l     F .text	0000001a <core::fmt::Error as core::fmt::Debug>::fmt
0800a6cd l     O .rodata	00000005 .Lanon.dc388a968c23fa524085dd94a83f5751.303
080042b2 l     F .text	00000032 <core::net::display_buffer::DisplayBuffer<_> as core::fmt::Write>::write_str
080042e4 l     F .text	000000a8 core::fmt::Write::write_char
0800438c l     F .text	00000018 core::fmt::Write::write_fmt
0800449c l     F .text	00000010 <defmt::export::FmtWrite as core::fmt::Write>::write_str
080044ac l     F .text	00000088 core::fmt::Write::write_char
08004534 l     F .text	00000018 core::fmt::Write::write_fmt
0800a72c l     O .rodata	00000018 .Lanon.ea5d5760b73fa5b90415fc99172c09b2.1
0800454c l     F .text	00000082 defmt_rtt::channel::Channel::blocking_write
080045ce l     F .text	0000005c defmt_rtt::channel::Channel::nonblocking_write
20000040 l     O .bss	00000034 .L_MergedGlobals
0800a745 l     O .rodata	0000001e .Lanon.1d905ed0c947f0695d8369569f054732.0
0800a764 l     O .rodata	00000010 .Lanon.1d905ed0c947f0695d8369569f054732.2
0800a774 l     O .rodata	00000010 .Lanon.1d905ed0c947f0695d8369569f054732.4
08004a9c l     F .text	000015b4 ip::__cortex_m_rt_main
0800b1d8 l     O .rodata	00000010 .Lanon.4bc4785c9ada05daa616a70a22937c0f.6
0800b0e8 l     O .rodata	00000010 .Lanon.ed157fc5cbdd1a6edf19cdf9648d5188.24
0800a900 l     O .rodata	00000010 .Lanon.02e056d4c889a085f771c01290e74e2f.7
0800a93c l     O .rodata	00000010 .Lanon.02e056d4c889a085f771c01290e74e2f.9
08007c64 l     F .text	0000002e <smoltcp::wire::ip::Address as core::fmt::Display>::fmt
0800adbc l     O .rodata	00000010 .Lanon.ee56ee3d56b2a23f692cb60d33ec53f4.14
0800a7a8 l     O .rodata	00000150 .Lanon.02e056d4c889a085f771c01290e74e2f.5
0800a8f8 l     O .rodata	00000006 .Lanon.02e056d4c889a085f771c01290e74e2f.6
080099c8 l     O .rodata	00000023 .Lanon.8aa7df76f1befd364c3104ad4c2811fa.11
0800a454 l     O .rodata	00000010 .Lanon.8aa7df76f1befd364c3104ad4c2811fa.13
0800a4a0 l     O .rodata	00000027 .Lanon.8aa7df76f1befd364c3104ad4c2811fa.16
0800a4c8 l     O .rodata	00000010 .Lanon.8aa7df76f1befd364c3104ad4c2811fa.17
0800a464 l     O .rodata	00000029 .Lanon.8aa7df76f1befd364c3104ad4c2811fa.14
0800a4d8 l     O .rodata	00000010 .Lanon.8aa7df76f1befd364c3104ad4c2811fa.18
0800a4f8 l     O .rodata	00000010 .Lanon.8aa7df76f1befd364c3104ad4c2811fa.20
0800a508 l     O .rodata	00000010 .Lanon.8aa7df76f1befd364c3104ad4c2811fa.21
0800af04 l     O .rodata	00000010 .Lanon.321b12b0c8d62f4934ae814c6c7478a1.17
0800b1e8 l     O .rodata	00000027 .Lanon.4bc4785c9ada05daa616a70a22937c0f.10
0800b210 l     O .rodata	00000010 .Lanon.4bc4785c9ada05daa616a70a22937c0f.11
0800b1a0 l     O .rodata	00000028 .Lanon.4bc4785c9ada05daa616a70a22937c0f.3
0800b220 l     O .rodata	00000010 .Lanon.4bc4785c9ada05daa616a70a22937c0f.12
0800b230 l     O .rodata	00000010 .Lanon.4bc4785c9ada05daa616a70a22937c0f.13
0800b240 l     O .rodata	00000010 .Lanon.4bc4785c9ada05daa616a70a22937c0f.14
0800a490 l     O .rodata	00000010 .Lanon.8aa7df76f1befd364c3104ad4c2811fa.15
0800b1c8 l     O .rodata	00000010 .Lanon.4bc4785c9ada05daa616a70a22937c0f.5
0800a4e8 l     O .rodata	00000010 .Lanon.8aa7df76f1befd364c3104ad4c2811fa.19
0800a784 l     O .rodata	00000010 .Lanon.02e056d4c889a085f771c01290e74e2f.2
0800a794 l     O .rodata	00000010 .Lanon.02e056d4c889a085f771c01290e74e2f.3
08006050 l     F .text	0000001a <stm32_eth::mac::WrongClock as core::fmt::Debug>::fmt
0800a94c l     O .rodata	0000000a .Lanon.02e056d4c889a085f771c01290e74e2f.10
20000038 l     O .bss	00000001 panic_probe::imp::panic::PANICKED
0800aa1c l     O .rodata	00000010 .Lanon.6fd57bafcc6bbd1a0f0c6a4a6d894bad.0
0800a744 l     O .rodata	00000001 .Lanon.ea5d5760b73fa5b90415fc99172c09b2.2
08006178 l     F .text	00000018 panic_probe::hard_fault
08006190 l     F .text	000000ac <&T as core::fmt::Display>::fmt
0800a71c l     O .rodata	0000000c .Lanon.dc388a968c23fa524085dd94a83f5751.408
0800a728 l     O .rodata	00000002 .Lanon.dc388a968c23fa524085dd94a83f5751.409
0800ac58 l     O .rodata	00000010 .Lanon.ee555cc9a30366a9abf098ddf788bd84.68
0800ac68 l     O .rodata	00000010 .Lanon.ee555cc9a30366a9abf098ddf788bd84.69
0800abd8 l     O .rodata	00000010 .Lanon.ee555cc9a30366a9abf098ddf788bd84.60
0800ac08 l     O .rodata	00000010 .Lanon.ee555cc9a30366a9abf098ddf788bd84.63
0800aa8c l     O .rodata	00000010 .Lanon.ee555cc9a30366a9abf098ddf788bd84.6
0800aa7c l     O .rodata	00000010 .Lanon.ee555cc9a30366a9abf098ddf788bd84.4
0800abf8 l     O .rodata	00000010 .Lanon.ee555cc9a30366a9abf098ddf788bd84.62
0800ac18 l     O .rodata	00000010 .Lanon.ee555cc9a30366a9abf098ddf788bd84.64
0800abc8 l     O .rodata	00000010 .Lanon.ee555cc9a30366a9abf098ddf788bd84.59
0800abe8 l     O .rodata	00000010 .Lanon.ee555cc9a30366a9abf098ddf788bd84.61
0800ad40 l     O .rodata	00000010 .Lanon.c1140054cd359bfdcd454e5b7dad9548.29
08007e76 l     F .text	00000066 defmt::export::fmt
08007e48 l     F .text	0000002e defmt::export::fmt
0800ad60 l     O .rodata	00000001 .Lanon.c1140054cd359bfdcd454e5b7dad9548.32
08007e12 l     F .text	00000036 defmt::export::fmt
08007a60 l     F .text	0000004e smoltcp::socket::tcp::Socket::immediate_ack_to_transmit
08007858 l     F .text	00000208 smoltcp::socket::tcp::Socket::ack_reply
0800ad50 l     O .rodata	00000010 .Lanon.c1140054cd359bfdcd454e5b7dad9548.31
0800ad9c l     O .rodata	00000010 .Lanon.c1140054cd359bfdcd454e5b7dad9548.36
0800aecc l     O .rodata	00000025 .Lanon.321b12b0c8d62f4934ae814c6c7478a1.14
0800aef4 l     O .rodata	00000010 .Lanon.321b12b0c8d62f4934ae814c6c7478a1.15
0800aeac l     O .rodata	00000010 .Lanon.321b12b0c8d62f4934ae814c6c7478a1.11
0800ad61 l     O .rodata	00000028 .Lanon.c1140054cd359bfdcd454e5b7dad9548.33
0800ad8c l     O .rodata	00000010 .Lanon.c1140054cd359bfdcd454e5b7dad9548.35
0800b048 l     O .rodata	00000010 .Lanon.d4b94c958ea1f8000f4d53dc8b85c559.8
08007edc l     F .text	0000006a smoltcp::storage::ring_buffer::RingBuffer<T>::enqueue_many_with
0800af48 l     O .rodata	00000010 .Lanon.c1510acb27196742b5d924b6a5d99da6.17
0800afb8 l     O .rodata	00000023 .Lanon.f0ac2cabe1edd51d584ebf3fae05aeec.16
0800afdc l     O .rodata	00000010 .Lanon.f0ac2cabe1edd51d584ebf3fae05aeec.18
0800afec l     O .rodata	00000010 .Lanon.9cfaa6f313d9130c3bf3213837ff6d35.4
0800af14 l     O .rodata	00000022 .Lanon.321b12b0c8d62f4934ae814c6c7478a1.20
0800af38 l     O .rodata	00000010 .Lanon.321b12b0c8d62f4934ae814c6c7478a1.22
0800affc l     O .rodata	00000010 .Lanon.9cfaa6f313d9130c3bf3213837ff6d35.6
20000000 l     O .data	00000006 defmt_rtt::handle::NAME
20000074 l     O .uninit	00000400 defmt_rtt::handle::BUFFER
20000040 l     O .bss	00000001 defmt_rtt::CS_RESTORE
20000041 l     O .bss	00000001 defmt_rtt::TAKEN
20000042 l     O .bss	00000001 defmt_rtt::ENCODER
20000043 l     O .bss	00000001 defmt_rtt::ENCODER
20000044 l     O .bss	00000001 defmt_rtt::ENCODER
20000045 l     O .bss	00000001 cortex_m::peripheral::TAKEN
20000048 l     O .bss	00000008 ip::TIME
20000050 l     O .bss	0000000c stm32_eth::dma::EthernetDMA::rx_waker::WAKER
2000005c l     O .bss	0000000c stm32_eth::dma::EthernetDMA::tx_waker::WAKER
20000068 l     O .bss	0000000c stm32_eth::ptp::EthernetPTP::waker::WAKER
00000000 l    df *ABS*	00000000 lib.f2c86790-cgu.0
00000000 l    df *ABS*	00000000 compiler_builtins.e1cc8e2a576cb2af-cgu.189
080088f6 l     F .text	000000ae .hidden __aeabi_memclr8
00000000 l    df *ABS*	00000000 compiler_builtins.e1cc8e2a576cb2af-cgu.250
080089a4 l     F .text	0000009c .hidden __aeabi_memcpy4
00000000 l    df *ABS*	00000000 compiler_builtins.e1cc8e2a576cb2af-cgu.012
08008a40 l     F .text	000002e6 .hidden compiler_builtins::mem::memcpy
08008d26 l     F .text	00000618 .hidden compiler_builtins::mem::memmove
00000000 l    df *ABS*	00000000 compiler_builtins.e1cc8e2a576cb2af-cgu.275
0800933e l     F .text	0000000c .hidden __aeabi_memmove8
00000000 l    df *ABS*	00000000 compiler_builtins.e1cc8e2a576cb2af-cgu.279
0800934a l     F .text	000000ae .hidden __aeabi_memclr4
00000000 l    df *ABS*	00000000 compiler_builtins.e1cc8e2a576cb2af-cgu.288
080093f8 l     F .text	0000000c .hidden __aeabi_memcpy
00000000 l    df *ABS*	00000000 compiler_builtins.e1cc8e2a576cb2af-cgu.320
08009404 l     F .text	0000009c .hidden __aeabi_memcpy8
00000000 l    df *ABS*	00000000 compiler_builtins.e1cc8e2a576cb2af-cgu.373
080094a0 l     F .text	000000d0 .hidden __aeabi_memclr
00000000 l    df *ABS*	00000000 compiler_builtins.e1cc8e2a576cb2af-cgu.413
00000000 l    df *ABS*	00000000 compiler_builtins.e1cc8e2a576cb2af-cgu.362
08009584 l     F .text	00000030 .hidden __udivmoddi4
00000000 l    df *ABS*	00000000 compiler_builtins.e1cc8e2a576cb2af-cgu.017
080095b4 l     F .text	00000360 .hidden compiler_builtins::int::specialized_div_rem::u64_div_rem
08000004 g     O .vector_table	00000004 __RESET_VECTOR
080001f8 g     F .text	0000003e Reset
08000008 g     O .vector_table	00000038 __EXCEPTIONS
080043a4 g     F .text	00000000 DefaultHandler
08000040 g     O .vector_table	000001b8 __INTERRUPTS
0800462a g     F .text	0000009e _defmt_acquire
080046c8 g     F .text	000000f0 _defmt_release
080043aa g     F .text	00000006 __defmt_default_timestamp
0800992c g     F .text	00000000 HardFault
080043aa g     F .text	00000000 __pre_init
08004a94 g     F .text	00000008 main
00000022 g     O .defmt	00000001 {"package":"smoltcp","tag":"defmt_debug","data":"Enable the `proto-ipv4-fragmentation` feature for fragmentation support.","disambiguator":"5448626954131158173","crate_name":"smoltcp"}
00000024 g     O .defmt	00000001 {"package":"smoltcp","tag":"defmt_debug","data":"address {} not in neighbor cache, sending ARP request","disambiguator":"12066069798907769471","crate_name":"smoltcp"}
00000007 g     O .defmt	00000001 {"package":"defmt","tag":"defmt_prim","data":"{=__internal_FormatSequence}","disambiguator":"8408127155438382822","crate_name":"defmt"}
080047b8 g     F .text	0000019c _defmt_write
0000002f g     O .defmt	00000001 {"package":"stm32-eth","tag":"defmt_error","data":"EthRxToken: RX would block","disambiguator":"7442772949220635545","crate_name":"stm32_eth"}
0000002a g     O .defmt	00000001 {"package":"stm32-eth","tag":"defmt_debug","data":"Failed to receive packet: {}","disambiguator":"11700474013454779557","crate_name":"stm32_eth"}
00000041 g     O .defmt	00000001 {"package":"stm32-eth","tag":"defmt_derived","data":"Truncated|DmaError|WouldBlock","disambiguator":"12700258740049707074","crate_name":"stm32_eth"}
00000026 g     O .defmt	00000001 {"package":"smoltcp","tag":"defmt_debug","data":"arp: non-unicast source address","disambiguator":"1901301005436061336","crate_name":"smoltcp"}
00000028 g     O .defmt	00000001 {"package":"smoltcp","tag":"defmt_debug","data":"arp: unknown operation code","disambiguator":"12440323745247841462","crate_name":"smoltcp"}
00000029 g     O .defmt	00000001 {"package":"smoltcp","tag":"defmt_debug","data":"non-unicast or unspecified source address","disambiguator":"6766392025179650790","crate_name":"smoltcp"}
00000027 g     O .defmt	00000001 {"package":"smoltcp","tag":"defmt_debug","data":"arp: source IP address not in same network as us","disambiguator":"8412082944703312747","crate_name":"smoltcp"}
00000023 g     O .defmt	00000001 {"package":"smoltcp","tag":"defmt_debug","data":"Failed to send response: {:?}","disambiguator":"11552764603065337685","crate_name":"smoltcp"}
0000003e g     O .defmt	00000001 {"package":"smoltcp","tag":"defmt_derived","data":"NoRoute|NeighborPending","disambiguator":"17160438304021938019","crate_name":"smoltcp"}
0000000a g     O .defmt	00000001 {"package":"smoltcp","tag":"defmt_debug","data":"{}:{}:{}:{}: parsed window scaling factor >14, setting to 14","disambiguator":"8158328147869412070","crate_name":"smoltcp"}
0000003f g     O .defmt	00000001 {"package":"smoltcp","tag":"defmt_write","data":"{:?}","disambiguator":"10833894435547768834","crate_name":"smoltcp"}
00000004 g     O .defmt	00000001 {"package":"defmt","tag":"defmt_prim","data":"{=u16}","disambiguator":"8239863257445217352","crate_name":"defmt"}
00000009 g     O .defmt	00000001 {"package":"smoltcp","tag":"defmt_debug","data":"sACK with >3 blocks, truncating to 3","disambiguator":"15703149373311970542","crate_name":"smoltcp"}
00000019 g     O .defmt	00000001 {"package":"smoltcp","tag":"defmt_debug","data":"timeout exceeded","disambiguator":"2000748738221331933","crate_name":"smoltcp"}
00000025 g     O .defmt	00000001 {"package":"smoltcp","tag":"defmt_debug","data":"failed to transmit IP: device exhausted","disambiguator":"9389076079625704121","crate_name":"smoltcp"}
00000015 g     O .defmt	00000001 {"package":"smoltcp","tag":"defmt_debug","data":"retransmitting at t+{}","disambiguator":"10495559254336700149","crate_name":"smoltcp"}
00000040 g     O .defmt	00000001 {"package":"smoltcp","tag":"defmt_write","data":"{}.{:03}s","disambiguator":"5292232958402097832","crate_name":"smoltcp"}
00000005 g     O .defmt	00000001 {"package":"defmt","tag":"defmt_prim","data":"{=u64}","disambiguator":"2959124217660265969","crate_name":"defmt"}
08009570  w    F .text	00000014 __aeabi_uldivmod
080088ec g     F .text	00000006 __primask_r
080088d2 g     F .text	00000004 __cpsid
080088d6 g     F .text	00000004 __cpsie
080043a4 g     F .text	00000006 DefaultHandler_
080043aa g     F .text	00000006 DefaultPreInit
0800992c g     F .text	00000006 HardFault_
00000032 g     O .defmt	00000001 {"package":"defmt","tag":"defmt_write","data":"{}.{}.{}.{}","disambiguator":"14742771906021295210","crate_name":"defmt"}
00000002 g     O .defmt	00000001 {"package":"defmt","tag":"defmt_prim","data":"{=u8}","disambiguator":"16912398427198947700","crate_name":"defmt"}
080043aa g     F .text	00000000 _defmt_timestamp
20000008 g     O .data	00000030 _SEGGER_RTT
08004954 g     F .text	0000010e ETH
08004a62 g     F .text	00000032 SysTick
080088da g     F .text	0000000c __delay
080088e6 g     F .text	00000006 __dsb
0000002b g     O .defmt	00000001 {"package":"stm32-eth","tag":"defmt_info","data":"Enabling ethernet...","disambiguator":"10404236363425019797","crate_name":"ip"}
0000002c g     O .defmt	00000001 {"package":"stm32-eth","tag":"defmt_info","data":"Listening at {}:80...","disambiguator":"3686426055769507929","crate_name":"ip"}
0000002d g     O .defmt	00000001 {"package":"stm32-eth","tag":"defmt_info","data":"Transmitted hello! Closing socket...","disambiguator":"11635372039424199218","crate_name":"ip"}
0000002e g     O .defmt	00000001 {"package":"panic-probe","tag":"defmt_error","data":"{}","disambiguator":"3281125884690968605","crate_name":"panic_probe"}
00000001 g     O .defmt	00000001 {"package":"defmt","tag":"defmt_prim","data":"{=__internal_Display}","disambiguator":"14158116662542268607","crate_name":"defmt"}
080088f2 g     F .text	00000004 __udf
0000001d g     O .defmt	00000001 {"package":"smoltcp","tag":"defmt_debug","data":"unacceptable RST|ACK in response to initial SYN","disambiguator":"12010015513314917541","crate_name":"smoltcp"}
0000001e g     O .defmt	00000001 {"package":"smoltcp","tag":"defmt_debug","data":"unacceptable SYN|ACK in response to initial SYN","disambiguator":"2348323649613492752","crate_name":"smoltcp"}
0000000e g     O .defmt	00000001 {"package":"smoltcp","tag":"defmt_debug","data":"expecting a SYN|ACK, received an ACK with the right ack_number, ignoring.","disambiguator":"2859068138203652258","crate_name":"smoltcp"}
0000000d g     O .defmt	00000001 {"package":"smoltcp","tag":"defmt_debug","data":"expecting a SYN|ACK","disambiguator":"6334425642103298512","crate_name":"smoltcp"}
00000011 g     O .defmt	00000001 {"package":"smoltcp","tag":"defmt_debug","data":"non-zero-length segment with zero receive window, will only send an ACK","disambiguator":"6676005152151262999","crate_name":"smoltcp"}
0000001b g     O .defmt	00000001 {"package":"smoltcp","tag":"defmt_debug","data":"unacceptable ACK in response to SYN|ACK","disambiguator":"3989064690652622681","crate_name":"smoltcp"}
0000001c g     O .defmt	00000001 {"package":"smoltcp","tag":"defmt_debug","data":"unacceptable RST (expecting RST|ACK) in response to initial SYN","disambiguator":"12592444965224528503","crate_name":"smoltcp"}
00000012 g     O .defmt	00000001 {"package":"smoltcp","tag":"defmt_debug","data":"received a keep-alive or window probe packet, will send an ACK","disambiguator":"5323319599099390235","crate_name":"smoltcp"}
00000010 g     O .defmt	00000001 {"package":"smoltcp","tag":"defmt_debug","data":"expecting an ACK","disambiguator":"3625140730523199000","crate_name":"smoltcp"}
00000016 g     O .defmt	00000001 {"package":"smoltcp","tag":"defmt_debug","data":"segment not in receive window ({}..{} not intersecting {}..{}), will send challenge ACK","disambiguator":"15410474912840077765","crate_name":"smoltcp"}
0000000f g     O .defmt	00000001 {"package":"smoltcp","tag":"defmt_debug","data":"expecting a SYN|ACK, received an ACK with the wrong ack_number, sending RST.","disambiguator":"11067998957997480673","crate_name":"smoltcp"}
00000021 g     O .defmt	00000001 {"package":"smoltcp","tag":"defmt_debug","data":"zero-length segment not inside zero-length window, will send an ACK.","disambiguator":"17620149882924763407","crate_name":"smoltcp"}
0000001a g     O .defmt	00000001 {"package":"smoltcp","tag":"defmt_debug","data":"unacceptable ACK ({} not in {}...{})","disambiguator":"1850591223312697649","crate_name":"smoltcp"}
00000020 g     O .defmt	00000001 {"package":"smoltcp","tag":"defmt_debug","data":"zero-length segment not inside window, will send an ACK.","disambiguator":"3646786452687534024","crate_name":"smoltcp"}
0000001f g     O .defmt	00000001 {"package":"smoltcp","tag":"defmt_debug","data":"unexpected packet {}","disambiguator":"12823780021606470319","crate_name":"smoltcp"}
0000003c g     O .defmt	00000001 {"package":"smoltcp","tag":"defmt_write","data":"TCP src={} dst={}","disambiguator":"1030315939857595793","crate_name":"smoltcp"}
00000037 g     O .defmt	00000001 {"package":"smoltcp","tag":"defmt_write","data":" psh","disambiguator":"9481317621797126725","crate_name":"smoltcp"}
00000038 g     O .defmt	00000001 {"package":"smoltcp","tag":"defmt_write","data":" rst","disambiguator":"10013211076911544330","crate_name":"smoltcp"}
0000003a g     O .defmt	00000001 {"package":"smoltcp","tag":"defmt_write","data":" syn","disambiguator":"10838285941484427392","crate_name":"smoltcp"}
00000034 g     O .defmt	00000001 {"package":"smoltcp","tag":"defmt_write","data":" fin","disambiguator":"17565740076167230561","crate_name":"smoltcp"}
00000039 g     O .defmt	00000001 {"package":"smoltcp","tag":"defmt_write","data":" seq={}","disambiguator":"4537005165886293247","crate_name":"smoltcp"}
0000003d g     O .defmt	00000001 {"package":"smoltcp","tag":"defmt_write","data":"{}","disambiguator":"5146805914163525621","crate_name":"smoltcp"}
00000008 g     O .defmt	00000001 {"package":"defmt","tag":"defmt_prim","data":"{=u32}","disambiguator":"11041816430350983556","crate_name":"defmt"}
00000033 g     O .defmt	00000001 {"package":"smoltcp","tag":"defmt_write","data":" ack={}","disambiguator":"3786093232229792722","crate_name":"smoltcp"}
0000003b g     O .defmt	00000001 {"package":"smoltcp","tag":"defmt_write","data":" win={}","disambiguator":"3473245040867372688","crate_name":"smoltcp"}
00000035 g     O .defmt	00000001 {"package":"smoltcp","tag":"defmt_write","data":" len={}","disambiguator":"9057084416632356930","crate_name":"smoltcp"}
00000006 g     O .defmt	00000001 {"package":"defmt","tag":"defmt_prim","data":"{=usize}","disambiguator":"8559056741933462175","crate_name":"defmt"}
00000036 g     O .defmt	00000001 {"package":"smoltcp","tag":"defmt_write","data":" mss={}","disambiguator":"10911176379477047732","crate_name":"smoltcp"}
0000000c g     O .defmt	00000001 {"package":"smoltcp","tag":"defmt_debug","data":"duplicate ACK ({} not in {}...{})","disambiguator":"12380727397643179295","crate_name":"smoltcp"}
00000013 g     O .defmt	00000001 {"package":"smoltcp","tag":"defmt_debug","data":"received duplicate ACK for seq {} (duplicate nr {}{})","disambiguator":"5695652426937161345","crate_name":"smoltcp"}
00000018 g     O .defmt	00000001 {"package":"smoltcp","tag":"defmt_debug","data":"started fast retransmit","disambiguator":"3241634950913198545","crate_name":"smoltcp"}
00000014 g     O .defmt	00000001 {"package":"smoltcp","tag":"defmt_debug","data":"reset duplicate ACK count","disambiguator":"8376999530309766497","crate_name":"smoltcp"}
0000000b g     O .defmt	00000001 {"package":"smoltcp","tag":"defmt_debug","data":"assembler: too many holes to add {} octets at offset {}","disambiguator":"11422860642586057134","crate_name":"smoltcp"}
00000017 g     O .defmt	00000001 {"package":"smoltcp","tag":"defmt_debug","data":"sending sACK option with current assembler ranges","disambiguator":"17647954063314049668","crate_name":"smoltcp"}
00000003 g     O .defmt	00000001 {"package":"defmt","tag":"defmt_prim","data":"{=str}","disambiguator":"11239111700719193807","crate_name":"defmt"}
080043a4 g     F .text	00000000 NonMaskableInt
080043a4 g     F .text	00000000 MemoryManagement
080043a4 g     F .text	00000000 BusFault
080043a4 g     F .text	00000000 UsageFault
080043a4 g     F .text	00000000 SVCall
080043a4 g     F .text	00000000 DebugMonitor
080043a4 g     F .text	00000000 PendSV
00000030 g     O .defmt	00000001 _defmt_encoding_ = rzcobs
00000031 g     O .defmt	00000001 _defmt_version_ = 4
080043a4 g     F .text	00000000 WWDG
080043a4 g     F .text	00000000 PVD
080043a4 g     F .text	00000000 TAMP_STAMP
080043a4 g     F .text	00000000 RTC_WKUP
080043a4 g     F .text	00000000 FLASH
080043a4 g     F .text	00000000 RCC
080043a4 g     F .text	00000000 EXTI0
080043a4 g     F .text	00000000 EXTI1
080043a4 g     F .text	00000000 EXTI2
080043a4 g     F .text	00000000 EXTI3
080043a4 g     F .text	00000000 EXTI4
080043a4 g     F .text	00000000 DMA1_STREAM0
080043a4 g     F .text	00000000 DMA1_STREAM1
080043a4 g     F .text	00000000 DMA1_STREAM2
080043a4 g     F .text	00000000 DMA1_STREAM3
080043a4 g     F .text	00000000 DMA1_STREAM4
080043a4 g     F .text	00000000 DMA1_STREAM5
080043a4 g     F .text	00000000 DMA1_STREAM6
080043a4 g     F .text	00000000 ADC
080043a4 g     F .text	00000000 CAN1_TX
080043a4 g     F .text	00000000 CAN1_RX0
080043a4 g     F .text	00000000 CAN1_RX1
080043a4 g     F .text	00000000 CAN1_SCE
080043a4 g     F .text	00000000 EXTI9_5
080043a4 g     F .text	00000000 TIM1_BRK_TIM9
080043a4 g     F .text	00000000 TIM1_UP_TIM10
080043a4 g     F .text	00000000 TIM1_TRG_COM_TIM11
080043a4 g     F .text	00000000 TIM1_CC
080043a4 g     F .text	00000000 TIM2
080043a4 g     F .text	00000000 TIM3
080043a4 g     F .text	00000000 TIM4
080043a4 g     F .text	00000000 I2C1_EV
080043a4 g     F .text	00000000 I2C1_ER
080043a4 g     F .text	00000000 I2C2_EV
080043a4 g     F .text	00000000 I2C2_ER
080043a4 g     F .text	00000000 SPI1
080043a4 g     F .text	00000000 SPI2
080043a4 g     F .text	00000000 USART1
080043a4 g     F .text	00000000 USART2
080043a4 g     F .text	00000000 USART3
080043a4 g     F .text	00000000 EXTI15_10
080043a4 g     F .text	00000000 RTC_ALARM
080043a4 g     F .text	00000000 OTG_FS_WKUP
080043a4 g     F .text	00000000 TIM8_BRK_TIM12
080043a4 g     F .text	00000000 TIM8_UP_TIM13
080043a4 g     F .text	00000000 TIM8_TRG_COM_TIM14
080043a4 g     F .text	00000000 TIM8_CC
080043a4 g     F .text	00000000 DMA1_STREAM7
080043a4 g     F .text	00000000 FMC
080043a4 g     F .text	00000000 SDMMC1
080043a4 g     F .text	00000000 TIM5
080043a4 g     F .text	00000000 SPI3
080043a4 g     F .text	00000000 UART4
080043a4 g     F .text	00000000 UART5
080043a4 g     F .text	00000000 TIM6_DAC
080043a4 g     F .text	00000000 TIM7
080043a4 g     F .text	00000000 DMA2_STREAM0
080043a4 g     F .text	00000000 DMA2_STREAM1
080043a4 g     F .text	00000000 DMA2_STREAM2
080043a4 g     F .text	00000000 DMA2_STREAM3
080043a4 g     F .text	00000000 DMA2_STREAM4
080043a4 g     F .text	00000000 ETH_WKUP
080043a4 g     F .text	00000000 CAN2_TX
080043a4 g     F .text	00000000 CAN2_RX0
080043a4 g     F .text	00000000 CAN2_RX1
080043a4 g     F .text	00000000 CAN2_SCE
080043a4 g     F .text	00000000 OTG_FS
080043a4 g     F .text	00000000 DMA2_STREAM5
080043a4 g     F .text	00000000 DMA2_STREAM6
080043a4 g     F .text	00000000 DMA2_STREAM7
080043a4 g     F .text	00000000 USART6
080043a4 g     F .text	00000000 I2C3_EV
080043a4 g     F .text	00000000 I2C3_ER
080043a4 g     F .text	00000000 OTG_HS_EP1_OUT
080043a4 g     F .text	00000000 OTG_HS_EP1_IN
080043a4 g     F .text	00000000 OTG_HS_WKUP
080043a4 g     F .text	00000000 OTG_HS
080043a4 g     F .text	00000000 DCMI
080043a4 g     F .text	00000000 CRYP
080043a4 g     F .text	00000000 HASH_RNG
080043a4 g     F .text	00000000 FPU
080043a4 g     F .text	00000000 UART7
080043a4 g     F .text	00000000 UART8
080043a4 g     F .text	00000000 SPI4
080043a4 g     F .text	00000000 SPI5
080043a4 g     F .text	00000000 SPI6
080043a4 g     F .text	00000000 SAI1
080043a4 g     F .text	00000000 LTDC
080043a4 g     F .text	00000000 LTDC_ER
080043a4 g     F .text	00000000 DMA2D
080043a4 g     F .text	00000000 SAI2
080043a4 g     F .text	00000000 QUADSPI
080043a4 g     F .text	00000000 LP_TIMER1
080043a4 g     F .text	00000000 HDMI_CEC
080043a4 g     F .text	00000000 I2C4_EV
080043a4 g     F .text	00000000 I2C4_ER
080043a4 g     F .text	00000000 SPDIFRX
080043a4 g     F .text	00000000 DSIHOST
080043a4 g     F .text	00000000 DFSDM1_FLT0
080043a4 g     F .text	00000000 DFSDM1_FLT1
080043a4 g     F .text	00000000 DFSDM1_FLT2
080043a4 g     F .text	00000000 DFSDM1_FLT3
080043a4 g     F .text	00000000 SDMMC2
080043a4 g     F .text	00000000 CAN3_TX
080043a4 g     F .text	00000000 CAN3_RX0
080043a4 g     F .text	00000000 CAN3_RX1
080043a4 g     F .text	00000000 CAN3_SCE
080043a4 g     F .text	00000000 JPEG
080043a4 g     F .text	00000000 MDIOS
20000038 g       .bss	00000000 __sbss
20000074 g       .bss	00000000 __ebss
20000000 g       .data	00000000 __sdata
20000038 g       .data	00000000 __edata
0800b250 g       *ABS*	00000000 __sidata
20000046 g     O .bss	00000001 DEVICE_PERIPHERALS
20008000 g       *ABS*	00000000 _stack_start
080001f8 g       .vector_table	00000000 _stext
20000474 g       .uninit	00000000 __sheap
08000008 g       .vector_table	00000000 __reset_vector
08000040 g       .vector_table	00000000 __eexceptions
00000042 g       .defmt	00000000 __DEFMT_MARKER_END
20000474 g       .uninit	00000000 __euninit
08000000 g       .vector_table	00000000 __vector_table
080001f8 g       .text	00000000 __stext
08009934 g       .text	00000000 __etext
08009938 g       .rodata	00000000 __srodata
0800b250 g       .rodata	00000000 __erodata
0800b2a0 g       .gnu.sgstubs	00000000 __veneer_base
0800b2a0 g       .gnu.sgstubs	00000000 __veneer_limit
20000074 g       .uninit	00000000 __suninit
00000009 g       .defmt	00000000 __DEFMT_MARKER_TRACE_START
00000009 g       .defmt	00000000 __DEFMT_MARKER_TRACE_END
00000009 g       .defmt	00000000 __DEFMT_MARKER_DEBUG_START
0000002b g       .defmt	00000000 __DEFMT_MARKER_DEBUG_END
0000002b g       .defmt	00000000 __DEFMT_MARKER_INFO_START
0000002e g       .defmt	00000000 __DEFMT_MARKER_INFO_END
0000002e g       .defmt	00000000 __DEFMT_MARKER_WARN_START
0000002e g       .defmt	00000000 __DEFMT_MARKER_WARN_END
0000002e g       .defmt	00000000 __DEFMT_MARKER_ERROR_START
00000030 g       .defmt	00000000 __DEFMT_MARKER_ERROR_END



Disassembly of section .text:

080001f8 <Reset>:
 80001f8:	f004 f8d7 	bl	80043aa <DefaultPreInit>
 80001fc:	480e      	ldr	r0, [pc, #56]	@ (8000238 <Reset+0x40>)
 80001fe:	490f      	ldr	r1, [pc, #60]	@ (800023c <Reset+0x44>)
 8000200:	2200      	movs	r2, #0
 8000202:	4281      	cmp	r1, r0
 8000204:	d001      	beq.n	800020a <Reset+0x12>
 8000206:	c004      	stmia	r0!, {r2}
 8000208:	e7fb      	b.n	8000202 <Reset+0xa>
 800020a:	480d      	ldr	r0, [pc, #52]	@ (8000240 <Reset+0x48>)
 800020c:	490d      	ldr	r1, [pc, #52]	@ (8000244 <Reset+0x4c>)
 800020e:	4a0e      	ldr	r2, [pc, #56]	@ (8000248 <Reset+0x50>)
 8000210:	4281      	cmp	r1, r0
 8000212:	d002      	beq.n	800021a <Reset+0x22>
 8000214:	ca08      	ldmia	r2!, {r3}
 8000216:	c008      	stmia	r0!, {r3}
 8000218:	e7fa      	b.n	8000210 <Reset+0x18>
 800021a:	480c      	ldr	r0, [pc, #48]	@ (800024c <Reset+0x54>)
 800021c:	f44f 0170 	mov.w	r1, #15728640	@ 0xf00000
 8000220:	6802      	ldr	r2, [r0, #0]
 8000222:	ea42 0201 	orr.w	r2, r2, r1
 8000226:	6002      	str	r2, [r0, #0]
 8000228:	f3bf 8f4f 	dsb	sy
 800022c:	f3bf 8f6f 	isb	sy
 8000230:	f004 fc30 	bl	8004a94 <main>
 8000234:	de00      	udf	#0
 8000236:	0000      	movs	r0, r0
 8000238:	20000038 	.word	0x20000038
 800023c:	20000074 	.word	0x20000074
 8000240:	20000000 	.word	0x20000000
 8000244:	20000038 	.word	0x20000038
 8000248:	0800b250 	.word	0x0800b250
 800024c:	e000ed88 	.word	0xe000ed88

08000250 <smoltcp::wire::arp::Repr::emit>:
 8000250:	b5b0      	push	{r4, r5, r7, lr}
 8000252:	af02      	add	r7, sp, #8
 8000254:	2a01      	cmp	r2, #1
 8000256:	d949      	bls.n	80002ec <smoltcp::wire::arp::Repr::emit+0x9c>
 8000258:	f8d0 e00a 	ldr.w	lr, [r0, #10]
 800025c:	f44f 7580 	mov.w	r5, #256	@ 0x100
 8000260:	f8d0 c014 	ldr.w	ip, [r0, #20]
 8000264:	2a03      	cmp	r2, #3
 8000266:	8843      	ldrh	r3, [r0, #2]
 8000268:	8804      	ldrh	r4, [r0, #0]
 800026a:	800d      	strh	r5, [r1, #0]
 800026c:	d946      	bls.n	80002fc <smoltcp::wire::arp::Repr::emit+0xac>
 800026e:	2508      	movs	r5, #8
 8000270:	2a04      	cmp	r2, #4
 8000272:	804d      	strh	r5, [r1, #2]
 8000274:	d062      	beq.n	800033c <smoltcp::wire::arp::Repr::emit+0xec>
 8000276:	2506      	movs	r5, #6
 8000278:	2a05      	cmp	r2, #5
 800027a:	710d      	strb	r5, [r1, #4]
 800027c:	d966      	bls.n	800034c <smoltcp::wire::arp::Repr::emit+0xfc>
 800027e:	2504      	movs	r5, #4
 8000280:	2a07      	cmp	r2, #7
 8000282:	714d      	strb	r5, [r1, #5]
 8000284:	d942      	bls.n	800030c <smoltcp::wire::arp::Repr::emit+0xbc>
 8000286:	b324      	cbz	r4, 80002d2 <smoltcp::wire::arp::Repr::emit+0x82>
 8000288:	2c01      	cmp	r4, #1
 800028a:	bf08      	it	eq
 800028c:	2302      	moveq	r3, #2
 800028e:	ba5b      	rev16	r3, r3
 8000290:	2a0d      	cmp	r2, #13
 8000292:	80cb      	strh	r3, [r1, #6]
 8000294:	d922      	bls.n	80002dc <smoltcp::wire::arp::Repr::emit+0x8c>
 8000296:	1d03      	adds	r3, r0, #4
 8000298:	2a11      	cmp	r2, #17
 800029a:	681c      	ldr	r4, [r3, #0]
 800029c:	889b      	ldrh	r3, [r3, #4]
 800029e:	818b      	strh	r3, [r1, #12]
 80002a0:	608c      	str	r4, [r1, #8]
 80002a2:	d93b      	bls.n	800031c <smoltcp::wire::arp::Repr::emit+0xcc>
 80002a4:	2a17      	cmp	r2, #23
 80002a6:	f8c1 e00e 	str.w	lr, [r1, #14]
 80002aa:	d93f      	bls.n	800032c <smoltcp::wire::arp::Repr::emit+0xdc>
 80002ac:	300e      	adds	r0, #14
 80002ae:	2a1b      	cmp	r2, #27
 80002b0:	6803      	ldr	r3, [r0, #0]
 80002b2:	8880      	ldrh	r0, [r0, #4]
 80002b4:	82c8      	strh	r0, [r1, #22]
 80002b6:	f8c1 3012 	str.w	r3, [r1, #18]
 80002ba:	bf84      	itt	hi
 80002bc:	f8c1 c018 	strhi.w	ip, [r1, #24]
 80002c0:	bdb0      	pophi	{r4, r5, r7, pc}
 80002c2:	f649 1398 	movw	r3, #39320	@ 0x9998
 80002c6:	2018      	movs	r0, #24
 80002c8:	f6c0 0300 	movt	r3, #2048	@ 0x800
 80002cc:	211c      	movs	r1, #28
 80002ce:	f003 fa96 	bl	80037fe <core::slice::index::slice_index_fail>
 80002d2:	2301      	movs	r3, #1
 80002d4:	ba5b      	rev16	r3, r3
 80002d6:	2a0d      	cmp	r2, #13
 80002d8:	80cb      	strh	r3, [r1, #6]
 80002da:	d8dc      	bhi.n	8000296 <smoltcp::wire::arp::Repr::emit+0x46>
 80002dc:	f649 1368 	movw	r3, #39272	@ 0x9968
 80002e0:	2008      	movs	r0, #8
 80002e2:	f6c0 0300 	movt	r3, #2048	@ 0x800
 80002e6:	210e      	movs	r1, #14
 80002e8:	f003 fa89 	bl	80037fe <core::slice::index::slice_index_fail>
 80002ec:	f649 1348 	movw	r3, #39240	@ 0x9948
 80002f0:	2000      	movs	r0, #0
 80002f2:	f6c0 0300 	movt	r3, #2048	@ 0x800
 80002f6:	2102      	movs	r1, #2
 80002f8:	f003 fa81 	bl	80037fe <core::slice::index::slice_index_fail>
 80002fc:	f649 1358 	movw	r3, #39256	@ 0x9958
 8000300:	2002      	movs	r0, #2
 8000302:	f6c0 0300 	movt	r3, #2048	@ 0x800
 8000306:	2104      	movs	r1, #4
 8000308:	f003 fa79 	bl	80037fe <core::slice::index::slice_index_fail>
 800030c:	f649 1338 	movw	r3, #39224	@ 0x9938
 8000310:	2006      	movs	r0, #6
 8000312:	f6c0 0300 	movt	r3, #2048	@ 0x800
 8000316:	2108      	movs	r1, #8
 8000318:	f003 fa71 	bl	80037fe <core::slice::index::slice_index_fail>
 800031c:	f649 1378 	movw	r3, #39288	@ 0x9978
 8000320:	200e      	movs	r0, #14
 8000322:	f6c0 0300 	movt	r3, #2048	@ 0x800
 8000326:	2112      	movs	r1, #18
 8000328:	f003 fa69 	bl	80037fe <core::slice::index::slice_index_fail>
 800032c:	f649 1388 	movw	r3, #39304	@ 0x9988
 8000330:	2012      	movs	r0, #18
 8000332:	f6c0 0300 	movt	r3, #2048	@ 0x800
 8000336:	2118      	movs	r1, #24
 8000338:	f003 fa61 	bl	80037fe <core::slice::index::slice_index_fail>
 800033c:	f649 12a8 	movw	r2, #39336	@ 0x99a8
 8000340:	2004      	movs	r0, #4
 8000342:	f6c0 0200 	movt	r2, #2048	@ 0x800
 8000346:	2104      	movs	r1, #4
 8000348:	f003 fad8 	bl	80038fc <core::panicking::panic_bounds_check>
 800034c:	f649 12b8 	movw	r2, #39352	@ 0x99b8
 8000350:	2005      	movs	r0, #5
 8000352:	f6c0 0200 	movt	r2, #2048	@ 0x800
 8000356:	2105      	movs	r1, #5
 8000358:	f003 fad0 	bl	80038fc <core::panicking::panic_bounds_check>

0800035c <smoltcp::iface::interface::InterfaceInner::dispatch_ip>:
 800035c:	b5f0      	push	{r4, r5, r6, r7, lr}
 800035e:	af03      	add	r7, sp, #12
 8000360:	e92d 0f00 	stmdb	sp!, {r8, r9, sl, fp}
 8000364:	b0b1      	sub	sp, #196	@ 0xc4
 8000366:	f8d3 8058 	ldr.w	r8, [r3, #88]	@ 0x58
 800036a:	f1b8 0f00 	cmp.w	r8, #0
 800036e:	f000 856e 	beq.w	8000e4e <smoltcp::iface::interface::InterfaceInner::dispatch_ip+0xaf2>
 8000372:	920b      	str	r2, [sp, #44]	@ 0x2c
 8000374:	f118 0601 	adds.w	r6, r8, #1
 8000378:	6d5a      	ldr	r2, [r3, #84]	@ 0x54
 800037a:	920f      	str	r2, [sp, #60]	@ 0x3c
 800037c:	6dda      	ldr	r2, [r3, #92]	@ 0x5c
 800037e:	9211      	str	r2, [sp, #68]	@ 0x44
 8000380:	f893 2062 	ldrb.w	r2, [r3, #98]	@ 0x62
 8000384:	9208      	str	r2, [sp, #32]
 8000386:	f893 2061 	ldrb.w	r2, [r3, #97]	@ 0x61
 800038a:	920d      	str	r2, [sp, #52]	@ 0x34
 800038c:	f893 2060 	ldrb.w	r2, [r3, #96]	@ 0x60
 8000390:	920c      	str	r2, [sp, #48]	@ 0x30
 8000392:	6802      	ldr	r2, [r0, #0]
 8000394:	68c4      	ldr	r4, [r0, #12]
 8000396:	920a      	str	r2, [sp, #40]	@ 0x28
 8000398:	6842      	ldr	r2, [r0, #4]
 800039a:	9209      	str	r2, [sp, #36]	@ 0x24
 800039c:	6882      	ldr	r2, [r0, #8]
 800039e:	920e      	str	r2, [sp, #56]	@ 0x38
 80003a0:	d044      	beq.n	800042c <smoltcp::iface::interface::InterfaceInner::dispatch_ip+0xd0>
 80003a2:	f8d0 90f0 	ldr.w	r9, [r0, #240]	@ 0xf0
 80003a6:	9410      	str	r4, [sp, #64]	@ 0x40
 80003a8:	f1b9 0f00 	cmp.w	r9, #0
 80003ac:	eb09 0a89 	add.w	sl, r9, r9, lsl #2
 80003b0:	d028      	beq.n	8000404 <smoltcp::iface::interface::InterfaceInner::dispatch_ip+0xa8>
 80003b2:	eb00 060a 	add.w	r6, r0, sl
 80003b6:	f100 05f4 	add.w	r5, r0, #244	@ 0xf4
 80003ba:	f106 0ef4 	add.w	lr, r6, #244	@ 0xf4
 80003be:	f04f 3cff 	mov.w	ip, #4294967295	@ 0xffffffff
 80003c2:	e00e      	b.n	80003e2 <smoltcp::iface::interface::InterfaceInner::dispatch_ip+0x86>
 80003c4:	2600      	movs	r6, #0
 80003c6:	f004 041f 	and.w	r4, r4, #31
 80003ca:	ea06 060b 	and.w	r6, r6, fp
 80003ce:	fa2c f404 	lsr.w	r4, ip, r4
 80003d2:	ba24      	rev	r4, r4
 80003d4:	4334      	orrs	r4, r6
 80003d6:	45a0      	cmp	r8, r4
 80003d8:	f000 80e9 	beq.w	80005ae <smoltcp::iface::interface::InterfaceInner::dispatch_ip+0x252>
 80003dc:	3505      	adds	r5, #5
 80003de:	4575      	cmp	r5, lr
 80003e0:	d010      	beq.n	8000404 <smoltcp::iface::interface::InterfaceInner::dispatch_ip+0xa8>
 80003e2:	792c      	ldrb	r4, [r5, #4]
 80003e4:	f8d5 b000 	ldr.w	fp, [r5]
 80003e8:	2c00      	cmp	r4, #0
 80003ea:	d0eb      	beq.n	80003c4 <smoltcp::iface::interface::InterfaceInner::dispatch_ip+0x68>
 80003ec:	f1a4 061f 	sub.w	r6, r4, #31
 80003f0:	b2f6      	uxtb	r6, r6
 80003f2:	2e02      	cmp	r6, #2
 80003f4:	d3f2      	bcc.n	80003dc <smoltcp::iface::interface::InterfaceInner::dispatch_ip+0x80>
 80003f6:	4266      	negs	r6, r4
 80003f8:	f006 061f 	and.w	r6, r6, #31
 80003fc:	fa0c f606 	lsl.w	r6, ip, r6
 8000400:	ba36      	rev	r6, r6
 8000402:	e7e0      	b.n	80003c6 <smoltcp::iface::interface::InterfaceInner::dispatch_ip+0x6a>
 8000404:	f008 06f0 	and.w	r6, r8, #240	@ 0xf0
 8000408:	2ee0      	cmp	r6, #224	@ 0xe0
 800040a:	d12d      	bne.n	8000468 <smoltcp::iface::interface::InterfaceInner::dispatch_ip+0x10c>
 800040c:	f3c8 2a06 	ubfx	sl, r8, #8, #7
 8000410:	ea4f 6c18 	mov.w	ip, r8, lsr #24
 8000414:	ea4f 4b18 	mov.w	fp, r8, lsr #16
 8000418:	f04f 0901 	mov.w	r9, #1
 800041c:	2500      	movs	r5, #0
 800041e:	265e      	movs	r6, #94	@ 0x5e
 8000420:	9c10      	ldr	r4, [sp, #64]	@ 0x40
 8000422:	680a      	ldr	r2, [r1, #0]
 8000424:	2a02      	cmp	r2, #2
 8000426:	f000 80d1 	beq.w	80005cc <smoltcp::iface::interface::InterfaceInner::dispatch_ip+0x270>
 800042a:	e00d      	b.n	8000448 <smoltcp::iface::interface::InterfaceInner::dispatch_ip+0xec>
 800042c:	f04f 0cff 	mov.w	ip, #255	@ 0xff
 8000430:	f04f 0bff 	mov.w	fp, #255	@ 0xff
 8000434:	f04f 0aff 	mov.w	sl, #255	@ 0xff
 8000438:	26ff      	movs	r6, #255	@ 0xff
 800043a:	25ff      	movs	r5, #255	@ 0xff
 800043c:	f04f 09ff 	mov.w	r9, #255	@ 0xff
 8000440:	680a      	ldr	r2, [r1, #0]
 8000442:	2a02      	cmp	r2, #2
 8000444:	f000 80c2 	beq.w	80005cc <smoltcp::iface::interface::InterfaceInner::dispatch_ip+0x270>
 8000448:	9607      	str	r6, [sp, #28]
 800044a:	f1a4 020e 	sub.w	r2, r4, #14
 800044e:	9e11      	ldr	r6, [sp, #68]	@ 0x44
 8000450:	f106 0e14 	add.w	lr, r6, #20
 8000454:	4596      	cmp	lr, r2
 8000456:	d927      	bls.n	80004a8 <smoltcp::iface::interface::InterfaceInner::dispatch_ip+0x14c>
 8000458:	f240 0022 	movw	r0, #34	@ 0x22
 800045c:	f2c0 0000 	movt	r0, #0
 8000460:	f004 f809 	bl	8004476 <defmt::export::acquire_header_and_release>
 8000464:	f000 bc0c 	b.w	8000c80 <smoltcp::iface::interface::InterfaceInner::dispatch_ip+0x924>
 8000468:	e9d0 2b04 	ldrd	r2, fp, [r0, #16]
 800046c:	f100 04f4 	add.w	r4, r0, #244	@ 0xf4
 8000470:	f04f 3cff 	mov.w	ip, #4294967295	@ 0xffffffff
 8000474:	9207      	str	r2, [sp, #28]
 8000476:	e00e      	b.n	8000496 <smoltcp::iface::interface::InterfaceInner::dispatch_ip+0x13a>
 8000478:	4276      	negs	r6, r6
 800047a:	f006 061f 	and.w	r6, r6, #31
 800047e:	fa0c f606 	lsl.w	r6, ip, r6
 8000482:	ba36      	rev	r6, r6
 8000484:	6825      	ldr	r5, [r4, #0]
 8000486:	3405      	adds	r4, #5
 8000488:	f1aa 0a05 	sub.w	sl, sl, #5
 800048c:	ea85 0508 	eor.w	r5, r5, r8
 8000490:	422e      	tst	r6, r5
 8000492:	f000 80b8 	beq.w	8000606 <smoltcp::iface::interface::InterfaceInner::dispatch_ip+0x2aa>
 8000496:	f1ba 0f00 	cmp.w	sl, #0
 800049a:	f000 809c 	beq.w	80005d6 <smoltcp::iface::interface::InterfaceInner::dispatch_ip+0x27a>
 800049e:	7926      	ldrb	r6, [r4, #4]
 80004a0:	2e00      	cmp	r6, #0
 80004a2:	d1e9      	bne.n	8000478 <smoltcp::iface::interface::InterfaceInner::dispatch_ip+0x11c>
 80004a4:	2600      	movs	r6, #0
 80004a6:	e7ed      	b.n	8000484 <smoltcp::iface::interface::InterfaceInner::dispatch_ip+0x128>
 80004a8:	9505      	str	r5, [sp, #20]
 80004aa:	688d      	ldr	r5, [r1, #8]
 80004ac:	e9d5 1601 	ldrd	r1, r6, [r5, #4]
 80004b0:	428e      	cmp	r6, r1
 80004b2:	f080 85da 	bcs.w	800106a <smoltcp::iface::interface::InterfaceInner::dispatch_ip+0xd0e>
 80004b6:	f44f 62c6 	mov.w	r2, #1584	@ 0x630
 80004ba:	e9cd ba02 	strd	fp, sl, [sp, #8]
 80004be:	4372      	muls	r2, r6
 80004c0:	f8d5 a000 	ldr.w	sl, [r5]
 80004c4:	f8cd c010 	str.w	ip, [sp, #16]
 80004c8:	9410      	str	r4, [sp, #64]	@ 0x40
 80004ca:	f85a 2002 	ldr.w	r2, [sl, r2]
 80004ce:	2a00      	cmp	r2, #0
 80004d0:	f100 85d2 	bmi.w	8001078 <smoltcp::iface::interface::InterfaceInner::dispatch_ip+0xd1c>
 80004d4:	9a11      	ldr	r2, [sp, #68]	@ 0x44
 80004d6:	9606      	str	r6, [sp, #24]
 80004d8:	f102 0b22 	add.w	fp, r2, #34	@ 0x22
 80004dc:	1c72      	adds	r2, r6, #1
 80004de:	fbb2 fcf1 	udiv	ip, r2, r1
 80004e2:	fb0c 2111 	mls	r1, ip, r1, r2
 80004e6:	60a9      	str	r1, [r5, #8]
 80004e8:	f240 51f3 	movw	r1, #1523	@ 0x5f3
 80004ec:	458b      	cmp	fp, r1
 80004ee:	f080 84b9 	bcs.w	8000e64 <smoltcp::iface::interface::InterfaceInner::dispatch_ip+0xb08>
 80004f2:	46dc      	mov	ip, fp
 80004f4:	f1bb 0f0b 	cmp.w	fp, #11
 80004f8:	f240 84bf 	bls.w	8000e7a <smoltcp::iface::interface::InterfaceInner::dispatch_ip+0xb1e>
 80004fc:	9e06      	ldr	r6, [sp, #24]
 80004fe:	f44f 62c6 	mov.w	r2, #1584	@ 0x630
 8000502:	f500 71b4 	add.w	r1, r0, #360	@ 0x168
 8000506:	46ab      	mov	fp, r5
 8000508:	f1bc 0f0d 	cmp.w	ip, #13
 800050c:	fb06 a202 	mla	r2, r6, r2, sl
 8000510:	f102 0538 	add.w	r5, r2, #56	@ 0x38
 8000514:	680a      	ldr	r2, [r1, #0]
 8000516:	8889      	ldrh	r1, [r1, #4]
 8000518:	8169      	strh	r1, [r5, #10]
 800051a:	9904      	ldr	r1, [sp, #16]
 800051c:	7169      	strb	r1, [r5, #5]
 800051e:	9902      	ldr	r1, [sp, #8]
 8000520:	7129      	strb	r1, [r5, #4]
 8000522:	9903      	ldr	r1, [sp, #12]
 8000524:	70e9      	strb	r1, [r5, #3]
 8000526:	9907      	ldr	r1, [sp, #28]
 8000528:	70a9      	strb	r1, [r5, #2]
 800052a:	9905      	ldr	r1, [sp, #20]
 800052c:	f8c5 2006 	str.w	r2, [r5, #6]
 8000530:	7069      	strb	r1, [r5, #1]
 8000532:	f885 9000 	strb.w	r9, [r5]
 8000536:	f240 84a9 	bls.w	8000e8c <smoltcp::iface::interface::InterfaceInner::dispatch_ip+0xb30>
 800053a:	f8dd 9044 	ldr.w	r9, [sp, #68]	@ 0x44
 800053e:	2108      	movs	r1, #8
 8000540:	9c0d      	ldr	r4, [sp, #52]	@ 0x34
 8000542:	f1be 0f00 	cmp.w	lr, #0
 8000546:	81a9      	strh	r1, [r5, #12]
 8000548:	f000 85a1 	beq.w	800108e <smoltcp::iface::interface::InterfaceInner::dispatch_ip+0xd32>
 800054c:	7a00      	ldrb	r0, [r0, #8]
 800054e:	f105 010e 	add.w	r1, r5, #14
 8000552:	2245      	movs	r2, #69	@ 0x45
 8000554:	f1be 0f01 	cmp.w	lr, #1
 8000558:	700a      	strb	r2, [r1, #0]
 800055a:	f000 85a0 	beq.w	800109e <smoltcp::iface::interface::InterfaceInner::dispatch_ip+0xd42>
 800055e:	2200      	movs	r2, #0
 8000560:	f1be 0f03 	cmp.w	lr, #3
 8000564:	73ea      	strb	r2, [r5, #15]
 8000566:	f240 849a 	bls.w	8000e9e <smoltcp::iface::interface::InterfaceInner::dispatch_ip+0xb42>
 800056a:	fa9e f28e 	rev.w	r2, lr
 800056e:	f1be 0f05 	cmp.w	lr, #5
 8000572:	ea4f 4212 	mov.w	r2, r2, lsr #16
 8000576:	822a      	strh	r2, [r5, #16]
 8000578:	f240 849a 	bls.w	8000eb0 <smoltcp::iface::interface::InterfaceInner::dispatch_ip+0xb54>
 800057c:	2200      	movs	r2, #0
 800057e:	f1be 0f07 	cmp.w	lr, #7
 8000582:	826a      	strh	r2, [r5, #18]
 8000584:	f240 849d 	bls.w	8000ec2 <smoltcp::iface::interface::InterfaceInner::dispatch_ip+0xb66>
 8000588:	2240      	movs	r2, #64	@ 0x40
 800058a:	f1be 0f08 	cmp.w	lr, #8
 800058e:	82aa      	strh	r2, [r5, #20]
 8000590:	f000 858d 	beq.w	80010ae <smoltcp::iface::interface::InterfaceInner::dispatch_ip+0xd52>
 8000594:	9a0c      	ldr	r2, [sp, #48]	@ 0x30
 8000596:	75aa      	strb	r2, [r5, #22]
 8000598:	e8df f004 	tbb	[pc, r4]
 800059c:	07979797 	.word	0x07979797
 80005a0:	8e929088 	.word	0x8e929088
 80005a4:	86948c96 	.word	0x86948c96
 80005a8:	008a      	.short	0x008a
 80005aa:	2406      	movs	r4, #6
 80005ac:	e08d      	b.n	80006ca <smoltcp::iface::interface::InterfaceInner::dispatch_ip+0x36e>
 80005ae:	f04f 0cff 	mov.w	ip, #255	@ 0xff
 80005b2:	f04f 0bff 	mov.w	fp, #255	@ 0xff
 80005b6:	f04f 0aff 	mov.w	sl, #255	@ 0xff
 80005ba:	26ff      	movs	r6, #255	@ 0xff
 80005bc:	25ff      	movs	r5, #255	@ 0xff
 80005be:	f04f 09ff 	mov.w	r9, #255	@ 0xff
 80005c2:	9c10      	ldr	r4, [sp, #64]	@ 0x40
 80005c4:	680a      	ldr	r2, [r1, #0]
 80005c6:	2a02      	cmp	r2, #2
 80005c8:	f47f af3e 	bne.w	8000448 <smoltcp::iface::interface::InterfaceInner::dispatch_ip+0xec>
 80005cc:	4648      	mov	r0, r9
 80005ce:	b031      	add	sp, #196	@ 0xc4
 80005d0:	e8bd 0f00 	ldmia.w	sp!, {r8, r9, sl, fp}
 80005d4:	bdf0      	pop	{r4, r5, r6, r7, pc}
 80005d6:	f500 7680 	add.w	r6, r0, #256	@ 0x100
 80005da:	4682      	mov	sl, r0
 80005dc:	a813      	add	r0, sp, #76	@ 0x4c
 80005de:	e9cd 2b00 	strd	r2, fp, [sp]
 80005e2:	460d      	mov	r5, r1
 80005e4:	4631      	mov	r1, r6
 80005e6:	4642      	mov	r2, r8
 80005e8:	461c      	mov	r4, r3
 80005ea:	f007 ff1a 	bl	8008422 <smoltcp::iface::route::Routes::lookup>
 80005ee:	f89d 004c 	ldrb.w	r0, [sp, #76]	@ 0x4c
 80005f2:	4629      	mov	r1, r5
 80005f4:	4623      	mov	r3, r4
 80005f6:	b948      	cbnz	r0, 800060c <smoltcp::iface::interface::InterfaceInner::dispatch_ip+0x2b0>
 80005f8:	f04f 0900 	mov.w	r9, #0
 80005fc:	4648      	mov	r0, r9
 80005fe:	b031      	add	sp, #196	@ 0xc4
 8000600:	e8bd 0f00 	ldmia.w	sp!, {r8, r9, sl, fp}
 8000604:	bdf0      	pop	{r4, r5, r6, r7, pc}
 8000606:	4682      	mov	sl, r0
 8000608:	f8cd 804d 	str.w	r8, [sp, #77]	@ 0x4d
 800060c:	f89d 0050 	ldrb.w	r0, [sp, #80]	@ 0x50
 8000610:	f8bd 604e 	ldrh.w	r6, [sp, #78]	@ 0x4e
 8000614:	f89d e04d 	ldrb.w	lr, [sp, #77]	@ 0x4d
 8000618:	ea46 4200 	orr.w	r2, r6, r0, lsl #16
 800061c:	ea4e 2602 	orr.w	r6, lr, r2, lsl #8
 8000620:	1c70      	adds	r0, r6, #1
 8000622:	d006      	beq.n	8000632 <smoltcp::iface::interface::InterfaceInner::dispatch_ip+0x2d6>
 8000624:	f00e 00f0 	and.w	r0, lr, #240	@ 0xf0
 8000628:	28e0      	cmp	r0, #224	@ 0xe0
 800062a:	bf18      	it	ne
 800062c:	ea52 000e 	orrsne.w	r0, r2, lr
 8000630:	d10a      	bne.n	8000648 <smoltcp::iface::interface::InterfaceInner::dispatch_ip+0x2ec>
 8000632:	f24b 000c 	movw	r0, #45068	@ 0xb00c
 8000636:	f24b 0238 	movw	r2, #45112	@ 0xb038
 800063a:	f6c0 0000 	movt	r0, #2048	@ 0x800
 800063e:	f6c0 0200 	movt	r2, #2048	@ 0x800
 8000642:	212c      	movs	r1, #44	@ 0x2c
 8000644:	f003 f96e 	bl	8003924 <core::panicking::panic>
 8000648:	f8da 40e0 	ldr.w	r4, [sl, #224]	@ 0xe0
 800064c:	4650      	mov	r0, sl
 800064e:	e9cd 2b05 	strd	r2, fp, [sp, #20]
 8000652:	eba4 0484 	sub.w	r4, r4, r4, lsl #2
 8000656:	ea4f 0ac4 	mov.w	sl, r4, lsl #3
 800065a:	2400      	movs	r4, #0
 800065c:	eb1a 0b04 	adds.w	fp, sl, r4
 8000660:	f000 832f 	beq.w	8000cc2 <smoltcp::iface::interface::InterfaceInner::dispatch_ip+0x966>
 8000664:	1905      	adds	r5, r0, r4
 8000666:	f8d5 c020 	ldr.w	ip, [r5, #32]
 800066a:	45b4      	cmp	ip, r6
 800066c:	f000 82d2 	beq.w	8000c14 <smoltcp::iface::interface::InterfaceInner::dispatch_ip+0x8b8>
 8000670:	f11b 0218 	adds.w	r2, fp, #24
 8000674:	f000 8325 	beq.w	8000cc2 <smoltcp::iface::interface::InterfaceInner::dispatch_ip+0x966>
 8000678:	6baa      	ldr	r2, [r5, #56]	@ 0x38
 800067a:	42b2      	cmp	r2, r6
 800067c:	f000 82cc 	beq.w	8000c18 <smoltcp::iface::interface::InterfaceInner::dispatch_ip+0x8bc>
 8000680:	f11b 0230 	adds.w	r2, fp, #48	@ 0x30
 8000684:	f000 831d 	beq.w	8000cc2 <smoltcp::iface::interface::InterfaceInner::dispatch_ip+0x966>
 8000688:	6d2a      	ldr	r2, [r5, #80]	@ 0x50
 800068a:	42b2      	cmp	r2, r6
 800068c:	f000 82ff 	beq.w	8000c8e <smoltcp::iface::interface::InterfaceInner::dispatch_ip+0x932>
 8000690:	f11b 0248 	adds.w	r2, fp, #72	@ 0x48
 8000694:	f000 8315 	beq.w	8000cc2 <smoltcp::iface::interface::InterfaceInner::dispatch_ip+0x966>
 8000698:	6eaa      	ldr	r2, [r5, #104]	@ 0x68
 800069a:	3460      	adds	r4, #96	@ 0x60
 800069c:	42b2      	cmp	r2, r6
 800069e:	d1dd      	bne.n	800065c <smoltcp::iface::interface::InterfaceInner::dispatch_ip+0x300>
 80006a0:	1902      	adds	r2, r0, r4
 80006a2:	f102 0508 	add.w	r5, r2, #8
 80006a6:	e2f3      	b.n	8000c90 <smoltcp::iface::interface::InterfaceInner::dispatch_ip+0x934>
 80006a8:	243c      	movs	r4, #60	@ 0x3c
 80006aa:	e00e      	b.n	80006ca <smoltcp::iface::interface::InterfaceInner::dispatch_ip+0x36e>
 80006ac:	2411      	movs	r4, #17
 80006ae:	e00c      	b.n	80006ca <smoltcp::iface::interface::InterfaceInner::dispatch_ip+0x36e>
 80006b0:	9c08      	ldr	r4, [sp, #32]
 80006b2:	e00a      	b.n	80006ca <smoltcp::iface::interface::InterfaceInner::dispatch_ip+0x36e>
 80006b4:	243a      	movs	r4, #58	@ 0x3a
 80006b6:	e008      	b.n	80006ca <smoltcp::iface::interface::InterfaceInner::dispatch_ip+0x36e>
 80006b8:	2432      	movs	r4, #50	@ 0x32
 80006ba:	e006      	b.n	80006ca <smoltcp::iface::interface::InterfaceInner::dispatch_ip+0x36e>
 80006bc:	242b      	movs	r4, #43	@ 0x2b
 80006be:	e004      	b.n	80006ca <smoltcp::iface::interface::InterfaceInner::dispatch_ip+0x36e>
 80006c0:	242c      	movs	r4, #44	@ 0x2c
 80006c2:	e002      	b.n	80006ca <smoltcp::iface::interface::InterfaceInner::dispatch_ip+0x36e>
 80006c4:	243b      	movs	r4, #59	@ 0x3b
 80006c6:	e000      	b.n	80006ca <smoltcp::iface::interface::InterfaceInner::dispatch_ip+0x36e>
 80006c8:	2433      	movs	r4, #51	@ 0x33
 80006ca:	f1be 0f09 	cmp.w	lr, #9
 80006ce:	f240 84f6 	bls.w	80010be <smoltcp::iface::interface::InterfaceInner::dispatch_ip+0xd62>
 80006d2:	f1be 0f0f 	cmp.w	lr, #15
 80006d6:	75ec      	strb	r4, [r5, #23]
 80006d8:	f240 83fc 	bls.w	8000ed4 <smoltcp::iface::interface::InterfaceInner::dispatch_ip+0xb78>
 80006dc:	9a0f      	ldr	r2, [sp, #60]	@ 0x3c
 80006de:	f119 0f14 	cmn.w	r9, #20
 80006e2:	f8c5 201a 	str.w	r2, [r5, #26]
 80006e6:	f080 83fe 	bcs.w	8000ee6 <smoltcp::iface::interface::InterfaceInner::dispatch_ip+0xb8a>
 80006ea:	f010 0ffd 	tst.w	r0, #253	@ 0xfd
 80006ee:	f8cd c034 	str.w	ip, [sp, #52]	@ 0x34
 80006f2:	f8c5 801e 	str.w	r8, [r5, #30]
 80006f6:	d10b      	bne.n	8000710 <smoltcp::iface::interface::InterfaceInner::dispatch_ip+0x3b4>
 80006f8:	2000      	movs	r0, #0
 80006fa:	461c      	mov	r4, r3
 80006fc:	8328      	strh	r0, [r5, #24]
 80006fe:	4608      	mov	r0, r1
 8000700:	2114      	movs	r1, #20
 8000702:	f007 fd28 	bl	8008156 <smoltcp::wire::ip::checksum::data>
 8000706:	43c0      	mvns	r0, r0
 8000708:	4623      	mov	r3, r4
 800070a:	ba00      	rev	r0, r0
 800070c:	0c00      	lsrs	r0, r0, #16
 800070e:	e000      	b.n	8000712 <smoltcp::iface::interface::InterfaceInner::dispatch_ip+0x3b6>
 8000710:	2000      	movs	r0, #0
 8000712:	8328      	strh	r0, [r5, #24]
 8000714:	f105 0a22 	add.w	sl, r5, #34	@ 0x22
 8000718:	6818      	ldr	r0, [r3, #0]
 800071a:	3802      	subs	r0, #2
 800071c:	bf38      	it	cc
 800071e:	2002      	movcc	r0, #2
 8000720:	2800      	cmp	r0, #0
 8000722:	d071      	beq.n	8000808 <smoltcp::iface::interface::InterfaceInner::dispatch_ip+0x4ac>
 8000724:	2801      	cmp	r0, #1
 8000726:	f040 8081 	bne.w	800082c <smoltcp::iface::interface::InterfaceInner::dispatch_ip+0x4d0>
 800072a:	f1b9 0f01 	cmp.w	r9, #1
 800072e:	f240 83ec 	bls.w	8000f0a <smoltcp::iface::interface::InterfaceInner::dispatch_ip+0xbae>
 8000732:	e9d3 1201 	ldrd	r1, r2, [r3, #4]
 8000736:	f1b9 0f03 	cmp.w	r9, #3
 800073a:	89d8      	ldrh	r0, [r3, #14]
 800073c:	899b      	ldrh	r3, [r3, #12]
 800073e:	ba1b      	rev	r3, r3
 8000740:	ea4f 4313 	mov.w	r3, r3, lsr #16
 8000744:	f8aa 3000 	strh.w	r3, [sl]
 8000748:	f240 83f1 	bls.w	8000f2e <smoltcp::iface::interface::InterfaceInner::dispatch_ip+0xbd2>
 800074c:	ba40      	rev16	r0, r0
 800074e:	f1b9 0f05 	cmp.w	r9, #5
 8000752:	84a8      	strh	r0, [r5, #36]	@ 0x24
 8000754:	f240 83fd 	bls.w	8000f52 <smoltcp::iface::interface::InterfaceInner::dispatch_ip+0xbf6>
 8000758:	f102 0008 	add.w	r0, r2, #8
 800075c:	ba03      	rev	r3, r0
 800075e:	b286      	uxth	r6, r0
 8000760:	b290      	uxth	r0, r2
 8000762:	0c1b      	lsrs	r3, r3, #16
 8000764:	84eb      	strh	r3, [r5, #38]	@ 0x26
 8000766:	f64f 73f7 	movw	r3, #65527	@ 0xfff7
 800076a:	4298      	cmp	r0, r3
 800076c:	f200 83c4 	bhi.w	8000ef8 <smoltcp::iface::interface::InterfaceInner::dispatch_ip+0xb9c>
 8000770:	45b1      	cmp	r9, r6
 8000772:	f0c0 83c1 	bcc.w	8000ef8 <smoltcp::iface::interface::InterfaceInner::dispatch_ip+0xb9c>
 8000776:	f1a6 0008 	sub.w	r0, r6, #8
 800077a:	4290      	cmp	r0, r2
 800077c:	f040 840d 	bne.w	8000f9a <smoltcp::iface::interface::InterfaceInner::dispatch_ip+0xc3e>
 8000780:	980e      	ldr	r0, [sp, #56]	@ 0x38
 8000782:	0a04      	lsrs	r4, r0, #8
 8000784:	f105 002a 	add.w	r0, r5, #42	@ 0x2a
 8000788:	f008 fe36 	bl	80093f8 <__aeabi_memcpy>
 800078c:	f014 0ffd 	tst.w	r4, #253	@ 0xfd
 8000790:	f040 80f5 	bne.w	800097e <smoltcp::iface::interface::InterfaceInner::dispatch_ip+0x622>
 8000794:	f1b9 0f07 	cmp.w	r9, #7
 8000798:	f240 8407 	bls.w	8000faa <smoltcp::iface::interface::InterfaceInner::dispatch_ip+0xc4e>
 800079c:	2000      	movs	r0, #0
 800079e:	f64f 79ff 	movw	r9, #65535	@ 0xffff
 80007a2:	8528      	strh	r0, [r5, #40]	@ 0x28
 80007a4:	fa98 f088 	rev.w	r0, r8
 80007a8:	0c01      	lsrs	r1, r0, #16
 80007aa:	fa11 f080 	uxtah	r0, r1, r0
 80007ae:	0c01      	lsrs	r1, r0, #16
 80007b0:	fa11 f080 	uxtah	r0, r1, r0
 80007b4:	990f      	ldr	r1, [sp, #60]	@ 0x3c
 80007b6:	eb00 4010 	add.w	r0, r0, r0, lsr #16
 80007ba:	ba09      	rev	r1, r1
 80007bc:	b280      	uxth	r0, r0
 80007be:	0c0a      	lsrs	r2, r1, #16
 80007c0:	fa12 f181 	uxtah	r1, r2, r1
 80007c4:	0c0a      	lsrs	r2, r1, #16
 80007c6:	fa12 f181 	uxtah	r1, r2, r1
 80007ca:	eb01 4111 	add.w	r1, r1, r1, lsr #16
 80007ce:	fa10 f081 	uxtah	r0, r0, r1
 80007d2:	4430      	add	r0, r6
 80007d4:	3011      	adds	r0, #17
 80007d6:	0c01      	lsrs	r1, r0, #16
 80007d8:	fa11 f080 	uxtah	r0, r1, r0
 80007dc:	4631      	mov	r1, r6
 80007de:	eb00 4010 	add.w	r0, r0, r0, lsr #16
 80007e2:	b284      	uxth	r4, r0
 80007e4:	4650      	mov	r0, sl
 80007e6:	f007 fcb6 	bl	8008156 <smoltcp::wire::ip::checksum::data>
 80007ea:	fa14 f080 	uxtah	r0, r4, r0
 80007ee:	0c01      	lsrs	r1, r0, #16
 80007f0:	fa11 f080 	uxtah	r0, r1, r0
 80007f4:	eb00 4010 	add.w	r0, r0, r0, lsr #16
 80007f8:	43c1      	mvns	r1, r0
 80007fa:	b280      	uxth	r0, r0
 80007fc:	ba09      	rev	r1, r1
 80007fe:	4548      	cmp	r0, r9
 8000800:	bf18      	it	ne
 8000802:	0c08      	lsrne	r0, r1, #16
 8000804:	8528      	strh	r0, [r5, #40]	@ 0x28
 8000806:	e20b      	b.n	8000c20 <smoltcp::iface::interface::InterfaceInner::dispatch_ip+0x8c4>
 8000808:	f1b9 0f02 	cmp.w	r9, #2
 800080c:	f0c0 8465 	bcc.w	80010da <smoltcp::iface::interface::InterfaceInner::dispatch_ip+0xd7e>
 8000810:	980e      	ldr	r0, [sp, #56]	@ 0x38
 8000812:	ea4f 6810 	mov.w	r8, r0, lsr #24
 8000816:	7918      	ldrb	r0, [r3, #4]
 8000818:	e8df f010 	tbh	[pc, r0, lsl #1]
 800081c:	01070004 	.word	0x01070004
 8000820:	00df00b8 	.word	0x00df00b8
 8000824:	e9d3 1003 	ldrd	r1, r0, [r3, #12]
 8000828:	2608      	movs	r6, #8
 800082a:	e101      	b.n	8000a30 <smoltcp::iface::interface::InterfaceInner::dispatch_ip+0x6d4>
 800082c:	a813      	add	r0, sp, #76	@ 0x4c
 800082e:	4619      	mov	r1, r3
 8000830:	2254      	movs	r2, #84	@ 0x54
 8000832:	f008 f8b7 	bl	80089a4 <__aeabi_memcpy4>
 8000836:	980a      	ldr	r0, [sp, #40]	@ 0x28
 8000838:	b380      	cbz	r0, 800089c <smoltcp::iface::interface::InterfaceInner::dispatch_ip+0x540>
 800083a:	f8bd 0084 	ldrh.w	r0, [sp, #132]	@ 0x84
 800083e:	2318      	movs	r3, #24
 8000840:	f89d 2094 	ldrb.w	r2, [sp, #148]	@ 0x94
 8000844:	f89d 109c 	ldrb.w	r1, [sp, #156]	@ 0x9c
 8000848:	2800      	cmp	r0, #0
 800084a:	f8dd c054 	ldr.w	ip, [sp, #84]	@ 0x54
 800084e:	f8dd e060 	ldr.w	lr, [sp, #96]	@ 0x60
 8000852:	9e1b      	ldr	r6, [sp, #108]	@ 0x6c
 8000854:	9c1e      	ldr	r4, [sp, #120]	@ 0x78
 8000856:	bf08      	it	eq
 8000858:	2314      	moveq	r3, #20
 800085a:	f362 0300 	bfi	r3, r2, #0, #1
 800085e:	f362 0341 	bfi	r3, r2, #1, #1
 8000862:	2c00      	cmp	r4, #0
 8000864:	eb03 0041 	add.w	r0, r3, r1, lsl #1
 8000868:	eb0e 010c 	add.w	r1, lr, ip
 800086c:	4431      	add	r1, r6
 800086e:	bf18      	it	ne
 8000870:	300a      	addne	r0, #10
 8000872:	2300      	movs	r3, #0
 8000874:	eb00 02c1 	add.w	r2, r0, r1, lsl #3
 8000878:	ebb3 0fc1 	cmp.w	r3, r1, lsl #3
 800087c:	bf18      	it	ne
 800087e:	1c90      	addne	r0, r2, #2
 8000880:	9910      	ldr	r1, [sp, #64]	@ 0x40
 8000882:	3003      	adds	r0, #3
 8000884:	f020 0003 	bic.w	r0, r0, #3
 8000888:	1a08      	subs	r0, r1, r0
 800088a:	9909      	ldr	r1, [sp, #36]	@ 0x24
 800088c:	3814      	subs	r0, #20
 800088e:	4348      	muls	r0, r1
 8000890:	f8bd 109a 	ldrh.w	r1, [sp, #154]	@ 0x9a
 8000894:	4288      	cmp	r0, r1
 8000896:	bf38      	it	cc
 8000898:	f8ad 009a 	strhcc.w	r0, [sp, #154]	@ 0x9a
 800089c:	f1b9 0f01 	cmp.w	r9, #1
 80008a0:	f240 833c 	bls.w	8000f1c <smoltcp::iface::interface::InterfaceInner::dispatch_ip+0xbc0>
 80008a4:	f8bd 0096 	ldrh.w	r0, [sp, #150]	@ 0x96
 80008a8:	f1b9 0f03 	cmp.w	r9, #3
 80008ac:	ba00      	rev	r0, r0
 80008ae:	ea4f 4010 	mov.w	r0, r0, lsr #16
 80008b2:	f8aa 0000 	strh.w	r0, [sl]
 80008b6:	f240 8343 	bls.w	8000f40 <smoltcp::iface::interface::InterfaceInner::dispatch_ip+0xbe4>
 80008ba:	f8bd 0098 	ldrh.w	r0, [sp, #152]	@ 0x98
 80008be:	f1b9 0f07 	cmp.w	r9, #7
 80008c2:	ba00      	rev	r0, r0
 80008c4:	ea4f 4010 	mov.w	r0, r0, lsr #16
 80008c8:	84a8      	strh	r0, [r5, #36]	@ 0x24
 80008ca:	f240 834b 	bls.w	8000f64 <smoltcp::iface::interface::InterfaceInner::dispatch_ip+0xc08>
 80008ce:	9e13      	ldr	r6, [sp, #76]	@ 0x4c
 80008d0:	f1b9 0f0b 	cmp.w	r9, #11
 80008d4:	9824      	ldr	r0, [sp, #144]	@ 0x90
 80008d6:	ba00      	rev	r0, r0
 80008d8:	f8c5 0026 	str.w	r0, [r5, #38]	@ 0x26
 80008dc:	f240 834b 	bls.w	8000f76 <smoltcp::iface::interface::InterfaceInner::dispatch_ip+0xc1a>
 80008e0:	2e00      	cmp	r6, #0
 80008e2:	4631      	mov	r1, r6
 80008e4:	f8cd a030 	str.w	sl, [sp, #48]	@ 0x30
 80008e8:	f8cd b040 	str.w	fp, [sp, #64]	@ 0x40
 80008ec:	9814      	ldr	r0, [sp, #80]	@ 0x50
 80008ee:	bf18      	it	ne
 80008f0:	ba01      	revne	r1, r0
 80008f2:	f1b9 0f0f 	cmp.w	r9, #15
 80008f6:	f8c5 102a 	str.w	r1, [r5, #42]	@ 0x2a
 80008fa:	f240 8345 	bls.w	8000f88 <smoltcp::iface::interface::InterfaceInner::dispatch_ip+0xc2c>
 80008fe:	f8bd 109a 	ldrh.w	r1, [sp, #154]	@ 0x9a
 8000902:	980e      	ldr	r0, [sp, #56]	@ 0x38
 8000904:	ba09      	rev	r1, r1
 8000906:	f89d a09c 	ldrb.w	sl, [sp, #156]	@ 0x9c
 800090a:	9c15      	ldr	r4, [sp, #84]	@ 0x54
 800090c:	ea4f 4c10 	mov.w	ip, r0, lsr #16
 8000910:	f8bd 0084 	ldrh.w	r0, [sp, #132]	@ 0x84
 8000914:	0c09      	lsrs	r1, r1, #16
 8000916:	9a18      	ldr	r2, [sp, #96]	@ 0x60
 8000918:	9b1b      	ldr	r3, [sp, #108]	@ 0x6c
 800091a:	2800      	cmp	r0, #0
 800091c:	f8dd 9078 	ldr.w	r9, [sp, #120]	@ 0x78
 8000920:	f89d b094 	ldrb.w	fp, [sp, #148]	@ 0x94
 8000924:	8629      	strh	r1, [r5, #48]	@ 0x30
 8000926:	f04f 0118 	mov.w	r1, #24
 800092a:	bf08      	it	eq
 800092c:	2114      	moveq	r1, #20
 800092e:	f1b9 0f00 	cmp.w	r9, #0
 8000932:	f36b 0100 	bfi	r1, fp, #0, #1
 8000936:	f36b 0141 	bfi	r1, fp, #1, #1
 800093a:	eb01 014a 	add.w	r1, r1, sl, lsl #1
 800093e:	bf18      	it	ne
 8000940:	310a      	addne	r1, #10
 8000942:	e9cd 2409 	strd	r2, r4, [sp, #36]	@ 0x24
 8000946:	4422      	add	r2, r4
 8000948:	9308      	str	r3, [sp, #32]
 800094a:	441a      	add	r2, r3
 800094c:	2400      	movs	r4, #0
 800094e:	eb01 03c2 	add.w	r3, r1, r2, lsl #3
 8000952:	ebb4 0fc2 	cmp.w	r4, r2, lsl #3
 8000956:	bf18      	it	ne
 8000958:	1c99      	addne	r1, r3, #2
 800095a:	220c      	movs	r2, #12
 800095c:	eb02 0181 	add.w	r1, r2, r1, lsl #2
 8000960:	f001 02f0 	and.w	r2, r1, #240	@ 0xf0
 8000964:	a913      	add	r1, sp, #76	@ 0x4c
 8000966:	f101 0408 	add.w	r4, r1, #8
 800096a:	f89d 109d 	ldrb.w	r1, [sp, #157]	@ 0x9d
 800096e:	e8df f001 	tbb	[pc, r1]
 8000972:	038d      	.short	0x038d
 8000974:	00858b88 	.word	0x00858b88
 8000978:	f502 6200 	add.w	r2, r2, #2048	@ 0x800
 800097c:	e086      	b.n	8000a8c <smoltcp::iface::interface::InterfaceInner::dispatch_ip+0x730>
 800097e:	f1b9 0f07 	cmp.w	r9, #7
 8000982:	f240 8312 	bls.w	8000faa <smoltcp::iface::interface::InterfaceInner::dispatch_ip+0xc4e>
 8000986:	2000      	movs	r0, #0
 8000988:	8528      	strh	r0, [r5, #40]	@ 0x28
 800098a:	e149      	b.n	8000c20 <smoltcp::iface::interface::InterfaceInner::dispatch_ip+0x8c4>
 800098c:	7959      	ldrb	r1, [r3, #5]
 800098e:	2003      	movs	r0, #3
 8000990:	f885 0022 	strb.w	r0, [r5, #34]	@ 0x22
 8000994:	e9d3 0602 	ldrd	r0, r6, [r3, #8]
 8000998:	2910      	cmp	r1, #16
 800099a:	799a      	ldrb	r2, [r3, #6]
 800099c:	9010      	str	r0, [sp, #64]	@ 0x40
 800099e:	bf38      	it	cc
 80009a0:	460a      	movcc	r2, r1
 80009a2:	f1b9 0f08 	cmp.w	r9, #8
 80009a6:	f885 2023 	strb.w	r2, [r5, #35]	@ 0x23
 80009aa:	f0c0 8310 	bcc.w	8000fce <smoltcp::iface::interface::InterfaceInner::dispatch_ip+0xc72>
 80009ae:	f103 0010 	add.w	r0, r3, #16
 80009b2:	f1a9 0408 	sub.w	r4, r9, #8
 80009b6:	9b0e      	ldr	r3, [sp, #56]	@ 0x38
 80009b8:	f105 012a 	add.w	r1, r5, #42	@ 0x2a
 80009bc:	4622      	mov	r2, r4
 80009be:	f007 f969 	bl	8007c94 <smoltcp::wire::ipv4::Repr::emit>
 80009c2:	2c14      	cmp	r4, #20
 80009c4:	f0c0 832f 	bcc.w	8001026 <smoltcp::iface::interface::InterfaceInner::dispatch_ip+0xcca>
 80009c8:	f1a9 021c 	sub.w	r2, r9, #28
 80009cc:	42b2      	cmp	r2, r6
 80009ce:	f040 833c 	bne.w	800104a <smoltcp::iface::interface::InterfaceInner::dispatch_ip+0xcee>
 80009d2:	f105 003e 	add.w	r0, r5, #62	@ 0x3e
 80009d6:	9910      	ldr	r1, [sp, #64]	@ 0x40
 80009d8:	e040      	b.n	8000a5c <smoltcp::iface::interface::InterfaceInner::dispatch_ip+0x700>
 80009da:	7959      	ldrb	r1, [r3, #5]
 80009dc:	200b      	movs	r0, #11
 80009de:	f885 0022 	strb.w	r0, [r5, #34]	@ 0x22
 80009e2:	e9d3 0402 	ldrd	r0, r4, [r3, #8]
 80009e6:	2902      	cmp	r1, #2
 80009e8:	799a      	ldrb	r2, [r3, #6]
 80009ea:	9010      	str	r0, [sp, #64]	@ 0x40
 80009ec:	bf38      	it	cc
 80009ee:	460a      	movcc	r2, r1
 80009f0:	f1b9 0f08 	cmp.w	r9, #8
 80009f4:	f885 2023 	strb.w	r2, [r5, #35]	@ 0x23
 80009f8:	f0c0 82e9 	bcc.w	8000fce <smoltcp::iface::interface::InterfaceInner::dispatch_ip+0xc72>
 80009fc:	f103 0010 	add.w	r0, r3, #16
 8000a00:	f1a9 0608 	sub.w	r6, r9, #8
 8000a04:	9b0e      	ldr	r3, [sp, #56]	@ 0x38
 8000a06:	f105 012a 	add.w	r1, r5, #42	@ 0x2a
 8000a0a:	4632      	mov	r2, r6
 8000a0c:	f007 f942 	bl	8007c94 <smoltcp::wire::ipv4::Repr::emit>
 8000a10:	2e14      	cmp	r6, #20
 8000a12:	f0c0 8311 	bcc.w	8001038 <smoltcp::iface::interface::InterfaceInner::dispatch_ip+0xcdc>
 8000a16:	f1a9 001c 	sub.w	r0, r9, #28
 8000a1a:	42a0      	cmp	r0, r4
 8000a1c:	f040 831e 	bne.w	800105c <smoltcp::iface::interface::InterfaceInner::dispatch_ip+0xd00>
 8000a20:	f105 003e 	add.w	r0, r5, #62	@ 0x3e
 8000a24:	9910      	ldr	r1, [sp, #64]	@ 0x40
 8000a26:	4622      	mov	r2, r4
 8000a28:	e018      	b.n	8000a5c <smoltcp::iface::interface::InterfaceInner::dispatch_ip+0x700>
 8000a2a:	e9d3 1003 	ldrd	r1, r0, [r3, #12]
 8000a2e:	2600      	movs	r6, #0
 8000a30:	891a      	ldrh	r2, [r3, #8]
 8000a32:	88db      	ldrh	r3, [r3, #6]
 8000a34:	f1b9 0f05 	cmp.w	r9, #5
 8000a38:	846e      	strh	r6, [r5, #34]	@ 0x22
 8000a3a:	f240 82d1 	bls.w	8000fe0 <smoltcp::iface::interface::InterfaceInner::dispatch_ip+0xc84>
 8000a3e:	ba5b      	rev16	r3, r3
 8000a40:	f1b9 0f07 	cmp.w	r9, #7
 8000a44:	84eb      	strh	r3, [r5, #38]	@ 0x26
 8000a46:	f240 82d4 	bls.w	8000ff2 <smoltcp::iface::interface::InterfaceInner::dispatch_ip+0xc96>
 8000a4a:	ba52      	rev16	r2, r2
 8000a4c:	852a      	strh	r2, [r5, #40]	@ 0x28
 8000a4e:	f1a9 0208 	sub.w	r2, r9, #8
 8000a52:	4290      	cmp	r0, r2
 8000a54:	bf38      	it	cc
 8000a56:	4602      	movcc	r2, r0
 8000a58:	f105 002a 	add.w	r0, r5, #42	@ 0x2a
 8000a5c:	f008 fccc 	bl	80093f8 <__aeabi_memcpy>
 8000a60:	2000      	movs	r0, #0
 8000a62:	f018 0ffd 	tst.w	r8, #253	@ 0xfd
 8000a66:	d107      	bne.n	8000a78 <smoltcp::iface::interface::InterfaceInner::dispatch_ip+0x71c>
 8000a68:	84a8      	strh	r0, [r5, #36]	@ 0x24
 8000a6a:	4650      	mov	r0, sl
 8000a6c:	4649      	mov	r1, r9
 8000a6e:	f007 fb72 	bl	8008156 <smoltcp::wire::ip::checksum::data>
 8000a72:	43c0      	mvns	r0, r0
 8000a74:	ba00      	rev	r0, r0
 8000a76:	0c00      	lsrs	r0, r0, #16
 8000a78:	84a8      	strh	r0, [r5, #36]	@ 0x24
 8000a7a:	e0d1      	b.n	8000c20 <smoltcp::iface::interface::InterfaceInner::dispatch_ip+0x8c4>
 8000a7c:	f502 6280 	add.w	r2, r2, #1024	@ 0x400
 8000a80:	e004      	b.n	8000a8c <smoltcp::iface::interface::InterfaceInner::dispatch_ip+0x730>
 8000a82:	f502 7200 	add.w	r2, r2, #512	@ 0x200
 8000a86:	e001      	b.n	8000a8c <smoltcp::iface::interface::InterfaceInner::dispatch_ip+0x730>
 8000a88:	f502 7280 	add.w	r2, r2, #256	@ 0x100
 8000a8c:	4611      	mov	r1, r2
 8000a8e:	2e00      	cmp	r6, #0
 8000a90:	bf18      	it	ne
 8000a92:	f501 5180 	addne.w	r1, r1, #4096	@ 0x1000
 8000a96:	85e9      	strh	r1, [r5, #46]	@ 0x2e
 8000a98:	213c      	movs	r1, #60	@ 0x3c
 8000a9a:	ea01 0192 	and.w	r1, r1, r2, lsr #2
 8000a9e:	b2d2      	uxtb	r2, r2
 8000aa0:	2a50      	cmp	r2, #80	@ 0x50
 8000aa2:	bf24      	itt	cs
 8000aa4:	9a11      	ldrcs	r2, [sp, #68]	@ 0x44
 8000aa6:	428a      	cmpcs	r2, r1
 8000aa8:	d207      	bcs.n	8000aba <smoltcp::iface::interface::InterfaceInner::dispatch_ip+0x75e>
 8000aaa:	9a11      	ldr	r2, [sp, #68]	@ 0x44
 8000aac:	f64a 23e0 	movw	r3, #43744	@ 0xaae0
 8000ab0:	f6c0 0300 	movt	r3, #2048	@ 0x800
 8000ab4:	2014      	movs	r0, #20
 8000ab6:	f002 fea2 	bl	80037fe <core::slice::index::slice_index_fail>
 8000aba:	f105 0336 	add.w	r3, r5, #54	@ 0x36
 8000abe:	f1a1 0214 	sub.w	r2, r1, #20
 8000ac2:	f8cd c038 	str.w	ip, [sp, #56]	@ 0x38
 8000ac6:	b1d0      	cbz	r0, 8000afe <smoltcp::iface::interface::InterfaceInner::dispatch_ip+0x7a2>
 8000ac8:	f8bd 0086 	ldrh.w	r0, [sp, #134]	@ 0x86
 8000acc:	2104      	movs	r1, #4
 8000ace:	f8ad 00a4 	strh.w	r0, [sp, #164]	@ 0xa4
 8000ad2:	a828      	add	r0, sp, #160	@ 0xa0
 8000ad4:	9128      	str	r1, [sp, #160]	@ 0xa0
 8000ad6:	4619      	mov	r1, r3
 8000ad8:	f005 fbf2 	bl	80062c0 <smoltcp::wire::tcp::TcpOption::emit>
 8000adc:	4603      	mov	r3, r0
 8000ade:	460a      	mov	r2, r1
 8000ae0:	f1bb 0f00 	cmp.w	fp, #0
 8000ae4:	d10e      	bne.n	8000b04 <smoltcp::iface::interface::InterfaceInner::dispatch_ip+0x7a8>
 8000ae6:	f8dd b040 	ldr.w	fp, [sp, #64]	@ 0x40
 8000aea:	f1ba 0f00 	cmp.w	sl, #0
 8000aee:	d01a      	beq.n	8000b26 <smoltcp::iface::interface::InterfaceInner::dispatch_ip+0x7ca>
 8000af0:	f64a 3470 	movw	r4, #43888	@ 0xab70
 8000af4:	f8dd a030 	ldr.w	sl, [sp, #48]	@ 0x30
 8000af8:	f6c0 0400 	movt	r4, #2048	@ 0x800
 8000afc:	e01d      	b.n	8000b3a <smoltcp::iface::interface::InterfaceInner::dispatch_ip+0x7de>
 8000afe:	f1bb 0f00 	cmp.w	fp, #0
 8000b02:	d0f0      	beq.n	8000ae6 <smoltcp::iface::interface::InterfaceInner::dispatch_ip+0x78a>
 8000b04:	f89d 0095 	ldrb.w	r0, [sp, #149]	@ 0x95
 8000b08:	2105      	movs	r1, #5
 8000b0a:	f88d 00a4 	strb.w	r0, [sp, #164]	@ 0xa4
 8000b0e:	a828      	add	r0, sp, #160	@ 0xa0
 8000b10:	9128      	str	r1, [sp, #160]	@ 0xa0
 8000b12:	4619      	mov	r1, r3
 8000b14:	f005 fbd4 	bl	80062c0 <smoltcp::wire::tcp::TcpOption::emit>
 8000b18:	4603      	mov	r3, r0
 8000b1a:	460a      	mov	r2, r1
 8000b1c:	f8dd b040 	ldr.w	fp, [sp, #64]	@ 0x40
 8000b20:	f1ba 0f00 	cmp.w	sl, #0
 8000b24:	d1e4      	bne.n	8000af0 <smoltcp::iface::interface::InterfaceInner::dispatch_ip+0x794>
 8000b26:	f8dd a030 	ldr.w	sl, [sp, #48]	@ 0x30
 8000b2a:	b166      	cbz	r6, 8000b46 <smoltcp::iface::interface::InterfaceInner::dispatch_ip+0x7ea>
 8000b2c:	980a      	ldr	r0, [sp, #40]	@ 0x28
 8000b2e:	2800      	cmp	r0, #0
 8000b30:	bf04      	itt	eq
 8000b32:	9809      	ldreq	r0, [sp, #36]	@ 0x24
 8000b34:	2800      	cmpeq	r0, #0
 8000b36:	f000 8185 	beq.w	8000e44 <smoltcp::iface::interface::InterfaceInner::dispatch_ip+0xae8>
 8000b3a:	4620      	mov	r0, r4
 8000b3c:	4619      	mov	r1, r3
 8000b3e:	f005 fbbf 	bl	80062c0 <smoltcp::wire::tcp::TcpOption::emit>
 8000b42:	4603      	mov	r3, r0
 8000b44:	460a      	mov	r2, r1
 8000b46:	f1b9 0f00 	cmp.w	r9, #0
 8000b4a:	d00b      	beq.n	8000b64 <smoltcp::iface::interface::InterfaceInner::dispatch_ip+0x808>
 8000b4c:	e9dd 011f 	ldrd	r0, r1, [sp, #124]	@ 0x7c
 8000b50:	e9cd 0129 	strd	r0, r1, [sp, #164]	@ 0xa4
 8000b54:	2008      	movs	r0, #8
 8000b56:	9028      	str	r0, [sp, #160]	@ 0xa0
 8000b58:	a828      	add	r0, sp, #160	@ 0xa0
 8000b5a:	4619      	mov	r1, r3
 8000b5c:	f005 fbb0 	bl	80062c0 <smoltcp::wire::tcp::TcpOption::emit>
 8000b60:	4603      	mov	r3, r0
 8000b62:	460a      	mov	r2, r1
 8000b64:	9c11      	ldr	r4, [sp, #68]	@ 0x44
 8000b66:	b132      	cbz	r2, 8000b76 <smoltcp::iface::interface::InterfaceInner::dispatch_ip+0x81a>
 8000b68:	f64a 3094 	movw	r0, #43924	@ 0xab94
 8000b6c:	4619      	mov	r1, r3
 8000b6e:	f6c0 0000 	movt	r0, #2048	@ 0x800
 8000b72:	f005 fba5 	bl	80062c0 <smoltcp::wire::tcp::TcpOption::emit>
 8000b76:	2c13      	cmp	r4, #19
 8000b78:	f240 8244 	bls.w	8001004 <smoltcp::iface::interface::InterfaceInner::dispatch_ip+0xca8>
 8000b7c:	8de8      	ldrh	r0, [r5, #46]	@ 0x2e
 8000b7e:	2100      	movs	r1, #0
 8000b80:	86a9      	strh	r1, [r5, #52]	@ 0x34
 8000b82:	213c      	movs	r1, #60	@ 0x3c
 8000b84:	ea01 0090 	and.w	r0, r1, r0, lsr #2
 8000b88:	4284      	cmp	r4, r0
 8000b8a:	f0c0 8244 	bcc.w	8001016 <smoltcp::iface::interface::InterfaceInner::dispatch_ip+0xcba>
 8000b8e:	9a23      	ldr	r2, [sp, #140]	@ 0x8c
 8000b90:	1a26      	subs	r6, r4, r0
 8000b92:	42b2      	cmp	r2, r6
 8000b94:	f200 8212 	bhi.w	8000fbc <smoltcp::iface::interface::InterfaceInner::dispatch_ip+0xc60>
 8000b98:	9922      	ldr	r1, [sp, #136]	@ 0x88
 8000b9a:	4450      	add	r0, sl
 8000b9c:	f008 fc2c 	bl	80093f8 <__aeabi_memcpy>
 8000ba0:	980e      	ldr	r0, [sp, #56]	@ 0x38
 8000ba2:	f010 0ffd 	tst.w	r0, #253	@ 0xfd
 8000ba6:	d139      	bne.n	8000c1c <smoltcp::iface::interface::InterfaceInner::dispatch_ip+0x8c0>
 8000ba8:	2000      	movs	r0, #0
 8000baa:	8668      	strh	r0, [r5, #50]	@ 0x32
 8000bac:	fa98 f088 	rev.w	r0, r8
 8000bb0:	0c01      	lsrs	r1, r0, #16
 8000bb2:	fa11 f080 	uxtah	r0, r1, r0
 8000bb6:	0c01      	lsrs	r1, r0, #16
 8000bb8:	fa11 f080 	uxtah	r0, r1, r0
 8000bbc:	990f      	ldr	r1, [sp, #60]	@ 0x3c
 8000bbe:	eb00 4010 	add.w	r0, r0, r0, lsr #16
 8000bc2:	ba09      	rev	r1, r1
 8000bc4:	b280      	uxth	r0, r0
 8000bc6:	0c0a      	lsrs	r2, r1, #16
 8000bc8:	fa12 f181 	uxtah	r1, r2, r1
 8000bcc:	0c0a      	lsrs	r2, r1, #16
 8000bce:	fa12 f181 	uxtah	r1, r2, r1
 8000bd2:	eb01 4111 	add.w	r1, r1, r1, lsr #16
 8000bd6:	fa10 f081 	uxtah	r0, r0, r1
 8000bda:	1da1      	adds	r1, r4, #6
 8000bdc:	0c0a      	lsrs	r2, r1, #16
 8000bde:	fa12 f181 	uxtah	r1, r2, r1
 8000be2:	eb01 4111 	add.w	r1, r1, r1, lsr #16
 8000be6:	fa10 f081 	uxtah	r0, r0, r1
 8000bea:	0c01      	lsrs	r1, r0, #16
 8000bec:	fa11 f080 	uxtah	r0, r1, r0
 8000bf0:	4621      	mov	r1, r4
 8000bf2:	eb00 4010 	add.w	r0, r0, r0, lsr #16
 8000bf6:	b286      	uxth	r6, r0
 8000bf8:	4650      	mov	r0, sl
 8000bfa:	f007 faac 	bl	8008156 <smoltcp::wire::ip::checksum::data>
 8000bfe:	fa16 f080 	uxtah	r0, r6, r0
 8000c02:	0c01      	lsrs	r1, r0, #16
 8000c04:	fa11 f080 	uxtah	r0, r1, r0
 8000c08:	eb00 4010 	add.w	r0, r0, r0, lsr #16
 8000c0c:	43c0      	mvns	r0, r0
 8000c0e:	ba00      	rev	r0, r0
 8000c10:	0c00      	lsrs	r0, r0, #16
 8000c12:	e004      	b.n	8000c1e <smoltcp::iface::interface::InterfaceInner::dispatch_ip+0x8c2>
 8000c14:	3520      	adds	r5, #32
 8000c16:	e03b      	b.n	8000c90 <smoltcp::iface::interface::InterfaceInner::dispatch_ip+0x934>
 8000c18:	3538      	adds	r5, #56	@ 0x38
 8000c1a:	e039      	b.n	8000c90 <smoltcp::iface::interface::InterfaceInner::dispatch_ip+0x934>
 8000c1c:	2000      	movs	r0, #0
 8000c1e:	8668      	strh	r0, [r5, #50]	@ 0x32
 8000c20:	f8dd c02c 	ldr.w	ip, [sp, #44]	@ 0x2c
 8000c24:	f8db 1004 	ldr.w	r1, [fp, #4]
 8000c28:	9806      	ldr	r0, [sp, #24]
 8000c2a:	4288      	cmp	r0, r1
 8000c2c:	f080 824f 	bcs.w	80010ce <smoltcp::iface::interface::InterfaceInner::dispatch_ip+0xd72>
 8000c30:	f44f 61c6 	mov.w	r1, #1584	@ 0x630
 8000c34:	f8db 2000 	ldr.w	r2, [fp]
 8000c38:	fb00 2301 	mla	r3, r0, r1, r2
 8000c3c:	e9d3 650a 	ldrd	r6, r5, [r3, #40]	@ 0x28
 8000c40:	4341      	muls	r1, r0
 8000c42:	f640 70ff 	movw	r0, #4095	@ 0xfff
 8000c46:	685c      	ldr	r4, [r3, #4]
 8000c48:	ea24 0000 	bic.w	r0, r4, r0
 8000c4c:	9c0d      	ldr	r4, [sp, #52]	@ 0x34
 8000c4e:	4320      	orrs	r0, r4
 8000c50:	6058      	str	r0, [r3, #4]
 8000c52:	2001      	movs	r0, #1
 8000c54:	609e      	str	r6, [r3, #8]
 8000c56:	e9c3 0c08 	strd	r0, ip, [r3, #32]
 8000c5a:	60dd      	str	r5, [r3, #12]
 8000c5c:	f3bf 8f5f 	dmb	sy
 8000c60:	f893 0030 	ldrb.w	r0, [r3, #48]	@ 0x30
 8000c64:	2300      	movs	r3, #0
 8000c66:	f2cf 23d0 	movt	r3, #62160	@ 0xf2d0
 8000c6a:	ea43 5040 	orr.w	r0, r3, r0, lsl #21
 8000c6e:	5050      	str	r0, [r2, r1]
 8000c70:	f249 0004 	movw	r0, #36868	@ 0x9004
 8000c74:	f3bf 8f5f 	dmb	sy
 8000c78:	f2c4 0002 	movt	r0, #16386	@ 0x4002
 8000c7c:	2100      	movs	r1, #0
 8000c7e:	6001      	str	r1, [r0, #0]
 8000c80:	f04f 0902 	mov.w	r9, #2
 8000c84:	4648      	mov	r0, r9
 8000c86:	b031      	add	sp, #196	@ 0xc4
 8000c88:	e8bd 0f00 	ldmia.w	sp!, {r8, r9, sl, fp}
 8000c8c:	bdf0      	pop	{r4, r5, r6, r7, pc}
 8000c8e:	3550      	adds	r5, #80	@ 0x50
 8000c90:	e9d5 2602 	ldrd	r2, r6, [r5, #8]
 8000c94:	9c07      	ldr	r4, [sp, #28]
 8000c96:	1aa2      	subs	r2, r4, r2
 8000c98:	9a06      	ldr	r2, [sp, #24]
 8000c9a:	41b2      	sbcs	r2, r6
 8000c9c:	da11      	bge.n	8000cc2 <smoltcp::iface::interface::InterfaceInner::dispatch_ip+0x966>
 8000c9e:	7c6a      	ldrb	r2, [r5, #17]
 8000ca0:	f895 9010 	ldrb.w	r9, [r5, #16]
 8000ca4:	7cae      	ldrb	r6, [r5, #18]
 8000ca6:	f895 a013 	ldrb.w	sl, [r5, #19]
 8000caa:	f895 c015 	ldrb.w	ip, [r5, #21]
 8000cae:	f895 b014 	ldrb.w	fp, [r5, #20]
 8000cb2:	4615      	mov	r5, r2
 8000cb4:	9c10      	ldr	r4, [sp, #64]	@ 0x40
 8000cb6:	680a      	ldr	r2, [r1, #0]
 8000cb8:	2a02      	cmp	r2, #2
 8000cba:	f43f ac87 	beq.w	80005cc <smoltcp::iface::interface::InterfaceInner::dispatch_ip+0x270>
 8000cbe:	f7ff bbc3 	b.w	8000448 <smoltcp::iface::interface::InterfaceInner::dispatch_ip+0xec>
 8000cc2:	e9d0 233a 	ldrd	r2, r3, [r0, #232]	@ 0xe8
 8000cc6:	9e07      	ldr	r6, [sp, #28]
 8000cc8:	1ab2      	subs	r2, r6, r2
 8000cca:	9a06      	ldr	r2, [sp, #24]
 8000ccc:	419a      	sbcs	r2, r3
 8000cce:	f2c0 80b2 	blt.w	8000e36 <smoltcp::iface::interface::InterfaceInner::dispatch_ip+0xada>
 8000cd2:	4682      	mov	sl, r0
 8000cd4:	9805      	ldr	r0, [sp, #20]
 8000cd6:	f8ad 0049 	strh.w	r0, [sp, #73]	@ 0x49
 8000cda:	460c      	mov	r4, r1
 8000cdc:	f88d e048 	strb.w	lr, [sp, #72]	@ 0x48
 8000ce0:	0c00      	lsrs	r0, r0, #16
 8000ce2:	f88d 004b 	strb.w	r0, [sp, #75]	@ 0x4b
 8000ce6:	f240 0024 	movw	r0, #36	@ 0x24
 8000cea:	f2c0 0000 	movt	r0, #0
 8000cee:	f003 fbb1 	bl	8004454 <defmt::export::acquire_and_header>
 8000cf2:	f240 0007 	movw	r0, #7
 8000cf6:	2102      	movs	r1, #2
 8000cf8:	f2c0 0000 	movt	r0, #0
 8000cfc:	f8ad 004c 	strh.w	r0, [sp, #76]	@ 0x4c
 8000d00:	a813      	add	r0, sp, #76	@ 0x4c
 8000d02:	f003 fd59 	bl	80047b8 <_defmt_write>
 8000d06:	a812      	add	r0, sp, #72	@ 0x48
 8000d08:	f003 fb52 	bl	80043b0 <defmt::impls::core_::net::<impl defmt::traits::Format for core::net::ip_addr::Ipv4Addr>::format>
 8000d0c:	a813      	add	r0, sp, #76	@ 0x4c
 8000d0e:	2600      	movs	r6, #0
 8000d10:	2102      	movs	r1, #2
 8000d12:	f8ad 604c 	strh.w	r6, [sp, #76]	@ 0x4c
 8000d16:	f003 fd4f 	bl	80047b8 <_defmt_write>
 8000d1a:	f003 fcd5 	bl	80046c8 <_defmt_release>
 8000d1e:	f1b9 0f00 	cmp.w	r9, #0
 8000d22:	f43f ac69 	beq.w	80005f8 <smoltcp::iface::interface::InterfaceInner::dispatch_ip+0x29c>
 8000d26:	f8da 20f4 	ldr.w	r2, [sl, #244]	@ 0xf4
 8000d2a:	f04f 35ff 	mov.w	r5, #4294967295	@ 0xffffffff
 8000d2e:	9912      	ldr	r1, [sp, #72]	@ 0x48
 8000d30:	f8ad 604c 	strh.w	r6, [sp, #76]	@ 0x4c
 8000d34:	f8ba 616c 	ldrh.w	r6, [sl, #364]	@ 0x16c
 8000d38:	9118      	str	r1, [sp, #96]	@ 0x60
 8000d3a:	0e11      	lsrs	r1, r2, #24
 8000d3c:	f8da 3168 	ldr.w	r3, [sl, #360]	@ 0x168
 8000d40:	f8ad 6054 	strh.w	r6, [sp, #84]	@ 0x54
 8000d44:	f88d 1059 	strb.w	r1, [sp, #89]	@ 0x59
 8000d48:	0a11      	lsrs	r1, r2, #8
 8000d4a:	68a6      	ldr	r6, [r4, #8]
 8000d4c:	f8cd 505a 	str.w	r5, [sp, #90]	@ 0x5a
 8000d50:	f8ad 505e 	strh.w	r5, [sp, #94]	@ 0x5e
 8000d54:	9314      	str	r3, [sp, #80]	@ 0x50
 8000d56:	f88d 2056 	strb.w	r2, [sp, #86]	@ 0x56
 8000d5a:	f8ad 1057 	strh.w	r1, [sp, #87]	@ 0x57
 8000d5e:	e9d4 9800 	ldrd	r9, r8, [r4]
 8000d62:	e9d6 1401 	ldrd	r1, r4, [r6, #4]
 8000d66:	428c      	cmp	r4, r1
 8000d68:	f080 81bf 	bcs.w	80010ea <smoltcp::iface::interface::InterfaceInner::dispatch_ip+0xd8e>
 8000d6c:	f44f 6cc6 	mov.w	ip, #1584	@ 0x630
 8000d70:	6833      	ldr	r3, [r6, #0]
 8000d72:	fb04 f50c 	mul.w	r5, r4, ip
 8000d76:	595d      	ldr	r5, [r3, r5]
 8000d78:	2d00      	cmp	r5, #0
 8000d7a:	f100 81bd 	bmi.w	80010f8 <smoltcp::iface::interface::InterfaceInner::dispatch_ip+0xd9c>
 8000d7e:	1c65      	adds	r5, r4, #1
 8000d80:	f50a 70b4 	add.w	r0, sl, #360	@ 0x168
 8000d84:	fbb5 f2f1 	udiv	r2, r5, r1
 8000d88:	fb02 5111 	mls	r1, r2, r1, r5
 8000d8c:	fb04 320c 	mla	r2, r4, ip, r3
 8000d90:	60b1      	str	r1, [r6, #8]
 8000d92:	6801      	ldr	r1, [r0, #0]
 8000d94:	8880      	ldrh	r0, [r0, #4]
 8000d96:	f8a2 0042 	strh.w	r0, [r2, #66]	@ 0x42
 8000d9a:	f04f 30ff 	mov.w	r0, #4294967295	@ 0xffffffff
 8000d9e:	6390      	str	r0, [r2, #56]	@ 0x38
 8000da0:	8790      	strh	r0, [r2, #60]	@ 0x3c
 8000da2:	f44f 60c1 	mov.w	r0, #1544	@ 0x608
 8000da6:	f8c2 103e 	str.w	r1, [r2, #62]	@ 0x3e
 8000daa:	f102 0146 	add.w	r1, r2, #70	@ 0x46
 8000dae:	f8a2 0044 	strh.w	r0, [r2, #68]	@ 0x44
 8000db2:	a813      	add	r0, sp, #76	@ 0x4c
 8000db4:	221c      	movs	r2, #28
 8000db6:	f7ff fa4b 	bl	8000250 <smoltcp::wire::arp::Repr::emit>
 8000dba:	6871      	ldr	r1, [r6, #4]
 8000dbc:	428c      	cmp	r4, r1
 8000dbe:	f080 81a6 	bcs.w	800110e <smoltcp::iface::interface::InterfaceInner::dispatch_ip+0xdb2>
 8000dc2:	f44f 60c6 	mov.w	r0, #1584	@ 0x630
 8000dc6:	6831      	ldr	r1, [r6, #0]
 8000dc8:	fb04 1000 	mla	r0, r4, r0, r1
 8000dcc:	f1b9 0f00 	cmp.w	r9, #0
 8000dd0:	d006      	beq.n	8000de0 <smoltcp::iface::interface::InterfaceInner::dispatch_ip+0xa84>
 8000dd2:	2101      	movs	r1, #1
 8000dd4:	e9c0 1808 	strd	r1, r8, [r0, #32]
 8000dd8:	2100      	movs	r1, #0
 8000dda:	f2cf 21d0 	movt	r1, #62160	@ 0xf2d0
 8000dde:	e006      	b.n	8000dee <smoltcp::iface::interface::InterfaceInner::dispatch_ip+0xa92>
 8000de0:	2100      	movs	r1, #0
 8000de2:	6201      	str	r1, [r0, #32]
 8000de4:	2100      	movs	r1, #0
 8000de6:	f2cf 21d0 	movt	r1, #62160	@ 0xf2d0
 8000dea:	f101 417e 	add.w	r1, r1, #4261412864	@ 0xfe000000
 8000dee:	6842      	ldr	r2, [r0, #4]
 8000df0:	242a      	movs	r4, #42	@ 0x2a
 8000df2:	e9d0 360a 	ldrd	r3, r6, [r0, #40]	@ 0x28
 8000df6:	4655      	mov	r5, sl
 8000df8:	f364 020b 	bfi	r2, r4, #0, #12
 8000dfc:	6042      	str	r2, [r0, #4]
 8000dfe:	6083      	str	r3, [r0, #8]
 8000e00:	60c6      	str	r6, [r0, #12]
 8000e02:	f3bf 8f5f 	dmb	sy
 8000e06:	f890 2030 	ldrb.w	r2, [r0, #48]	@ 0x30
 8000e0a:	ea41 5142 	orr.w	r1, r1, r2, lsl #21
 8000e0e:	6001      	str	r1, [r0, #0]
 8000e10:	f249 0004 	movw	r0, #36868	@ 0x9004
 8000e14:	2100      	movs	r1, #0
 8000e16:	f2c4 0002 	movt	r0, #16386	@ 0x4002
 8000e1a:	f3bf 8f5f 	dmb	sy
 8000e1e:	6001      	str	r1, [r0, #0]
 8000e20:	f244 2240 	movw	r2, #16960	@ 0x4240
 8000e24:	e9da 0104 	ldrd	r0, r1, [sl, #16]
 8000e28:	f2c0 020f 	movt	r2, #15
 8000e2c:	1880      	adds	r0, r0, r2
 8000e2e:	f141 0100 	adc.w	r1, r1, #0
 8000e32:	e9c5 013a 	strd	r0, r1, [r5, #232]	@ 0xe8
 8000e36:	f04f 0901 	mov.w	r9, #1
 8000e3a:	4648      	mov	r0, r9
 8000e3c:	b031      	add	sp, #196	@ 0xc4
 8000e3e:	e8bd 0f00 	ldmia.w	sp!, {r8, r9, sl, fp}
 8000e42:	bdf0      	pop	{r4, r5, r6, r7, pc}
 8000e44:	9808      	ldr	r0, [sp, #32]
 8000e46:	2800      	cmp	r0, #0
 8000e48:	f43f ae7d 	beq.w	8000b46 <smoltcp::iface::interface::InterfaceInner::dispatch_ip+0x7ea>
 8000e4c:	e675      	b.n	8000b3a <smoltcp::iface::interface::InterfaceInner::dispatch_ip+0x7de>
 8000e4e:	f24a 5018 	movw	r0, #42264	@ 0xa518
 8000e52:	f24a 5250 	movw	r2, #42320	@ 0xa550
 8000e56:	f6c0 0000 	movt	r0, #2048	@ 0x800
 8000e5a:	f6c0 0200 	movt	r2, #2048	@ 0x800
 8000e5e:	2136      	movs	r1, #54	@ 0x36
 8000e60:	f002 fd60 	bl	8003924 <core::panicking::panic>
 8000e64:	f24b 00b8 	movw	r0, #45240	@ 0xb0b8
 8000e68:	f24b 02d8 	movw	r2, #45272	@ 0xb0d8
 8000e6c:	f6c0 0000 	movt	r0, #2048	@ 0x800
 8000e70:	f6c0 0200 	movt	r2, #2048	@ 0x800
 8000e74:	211d      	movs	r1, #29
 8000e76:	f002 fd55 	bl	8003924 <core::panicking::panic>
 8000e7a:	f64a 13ec 	movw	r3, #43500	@ 0xa9ec
 8000e7e:	2006      	movs	r0, #6
 8000e80:	f6c0 0300 	movt	r3, #2048	@ 0x800
 8000e84:	210c      	movs	r1, #12
 8000e86:	4662      	mov	r2, ip
 8000e88:	f002 fcb9 	bl	80037fe <core::slice::index::slice_index_fail>
 8000e8c:	f64a 13fc 	movw	r3, #43516	@ 0xa9fc
 8000e90:	200c      	movs	r0, #12
 8000e92:	f6c0 0300 	movt	r3, #2048	@ 0x800
 8000e96:	210e      	movs	r1, #14
 8000e98:	4662      	mov	r2, ip
 8000e9a:	f002 fcb0 	bl	80037fe <core::slice::index::slice_index_fail>
 8000e9e:	f64a 630c 	movw	r3, #44556	@ 0xae0c
 8000ea2:	2002      	movs	r0, #2
 8000ea4:	f6c0 0300 	movt	r3, #2048	@ 0x800
 8000ea8:	2104      	movs	r1, #4
 8000eaa:	4672      	mov	r2, lr
 8000eac:	f002 fca7 	bl	80037fe <core::slice::index::slice_index_fail>
 8000eb0:	f64a 634c 	movw	r3, #44620	@ 0xae4c
 8000eb4:	2004      	movs	r0, #4
 8000eb6:	f6c0 0300 	movt	r3, #2048	@ 0x800
 8000eba:	2106      	movs	r1, #6
 8000ebc:	4672      	mov	r2, lr
 8000ebe:	f002 fc9e 	bl	80037fe <core::slice::index::slice_index_fail>
 8000ec2:	f64a 53cc 	movw	r3, #44492	@ 0xadcc
 8000ec6:	2006      	movs	r0, #6
 8000ec8:	f6c0 0300 	movt	r3, #2048	@ 0x800
 8000ecc:	2108      	movs	r1, #8
 8000ece:	4672      	mov	r2, lr
 8000ed0:	f002 fc95 	bl	80037fe <core::slice::index::slice_index_fail>
 8000ed4:	f64a 53fc 	movw	r3, #44540	@ 0xadfc
 8000ed8:	200c      	movs	r0, #12
 8000eda:	f6c0 0300 	movt	r3, #2048	@ 0x800
 8000ede:	2110      	movs	r1, #16
 8000ee0:	4672      	mov	r2, lr
 8000ee2:	f002 fc8c 	bl	80037fe <core::slice::index::slice_index_fail>
 8000ee6:	f64a 53ec 	movw	r3, #44524	@ 0xadec
 8000eea:	2010      	movs	r0, #16
 8000eec:	f6c0 0300 	movt	r3, #2048	@ 0x800
 8000ef0:	2114      	movs	r1, #20
 8000ef2:	4672      	mov	r2, lr
 8000ef4:	f002 fc83 	bl	80037fe <core::slice::index::slice_index_fail>
 8000ef8:	f64a 7358 	movw	r3, #44888	@ 0xaf58
 8000efc:	2008      	movs	r0, #8
 8000efe:	f6c0 0300 	movt	r3, #2048	@ 0x800
 8000f02:	4631      	mov	r1, r6
 8000f04:	464a      	mov	r2, r9
 8000f06:	f002 fc7a 	bl	80037fe <core::slice::index::slice_index_fail>
 8000f0a:	f64a 7388 	movw	r3, #44936	@ 0xaf88
 8000f0e:	f6c0 0300 	movt	r3, #2048	@ 0x800
 8000f12:	2000      	movs	r0, #0
 8000f14:	2102      	movs	r1, #2
 8000f16:	464a      	mov	r2, r9
 8000f18:	f002 fc71 	bl	80037fe <core::slice::index::slice_index_fail>
 8000f1c:	f64a 3310 	movw	r3, #43792	@ 0xab10
 8000f20:	f6c0 0300 	movt	r3, #2048	@ 0x800
 8000f24:	2000      	movs	r0, #0
 8000f26:	2102      	movs	r1, #2
 8000f28:	464a      	mov	r2, r9
 8000f2a:	f002 fc68 	bl	80037fe <core::slice::index::slice_index_fail>
 8000f2e:	f64a 7378 	movw	r3, #44920	@ 0xaf78
 8000f32:	f6c0 0300 	movt	r3, #2048	@ 0x800
 8000f36:	2002      	movs	r0, #2
 8000f38:	2104      	movs	r1, #4
 8000f3a:	464a      	mov	r2, r9
 8000f3c:	f002 fc5f 	bl	80037fe <core::slice::index::slice_index_fail>
 8000f40:	f64a 3300 	movw	r3, #43776	@ 0xab00
 8000f44:	f6c0 0300 	movt	r3, #2048	@ 0x800
 8000f48:	2002      	movs	r0, #2
 8000f4a:	2104      	movs	r1, #4
 8000f4c:	464a      	mov	r2, r9
 8000f4e:	f002 fc56 	bl	80037fe <core::slice::index::slice_index_fail>
 8000f52:	f64a 7398 	movw	r3, #44952	@ 0xaf98
 8000f56:	f6c0 0300 	movt	r3, #2048	@ 0x800
 8000f5a:	2004      	movs	r0, #4
 8000f5c:	2106      	movs	r1, #6
 8000f5e:	464a      	mov	r2, r9
 8000f60:	f002 fc4d 	bl	80037fe <core::slice::index::slice_index_fail>
 8000f64:	f64a 3340 	movw	r3, #43840	@ 0xab40
 8000f68:	2004      	movs	r0, #4
 8000f6a:	f6c0 0300 	movt	r3, #2048	@ 0x800
 8000f6e:	2108      	movs	r1, #8
 8000f70:	464a      	mov	r2, r9
 8000f72:	f002 fc44 	bl	80037fe <core::slice::index::slice_index_fail>
 8000f76:	f64a 3330 	movw	r3, #43824	@ 0xab30
 8000f7a:	2008      	movs	r0, #8
 8000f7c:	f6c0 0300 	movt	r3, #2048	@ 0x800
 8000f80:	210c      	movs	r1, #12
 8000f82:	464a      	mov	r2, r9
 8000f84:	f002 fc3b 	bl	80037fe <core::slice::index::slice_index_fail>
 8000f88:	9a11      	ldr	r2, [sp, #68]	@ 0x44
 8000f8a:	f64a 3350 	movw	r3, #43856	@ 0xab50
 8000f8e:	f6c0 0300 	movt	r3, #2048	@ 0x800
 8000f92:	200e      	movs	r0, #14
 8000f94:	2110      	movs	r1, #16
 8000f96:	f002 fc32 	bl	80037fe <core::slice::index::slice_index_fail>
 8000f9a:	f64a 73a8 	movw	r3, #44968	@ 0xafa8
 8000f9e:	4611      	mov	r1, r2
 8000fa0:	f6c0 0300 	movt	r3, #2048	@ 0x800
 8000fa4:	461a      	mov	r2, r3
 8000fa6:	f003 f8b7 	bl	8004118 <core::slice::copy_from_slice_impl::len_mismatch_fail>
 8000faa:	f64a 7368 	movw	r3, #44904	@ 0xaf68
 8000fae:	f6c0 0300 	movt	r3, #2048	@ 0x800
 8000fb2:	2006      	movs	r0, #6
 8000fb4:	2108      	movs	r1, #8
 8000fb6:	464a      	mov	r2, r9
 8000fb8:	f002 fc21 	bl	80037fe <core::slice::index::slice_index_fail>
 8000fbc:	f64a 33b8 	movw	r3, #43960	@ 0xabb8
 8000fc0:	4611      	mov	r1, r2
 8000fc2:	f6c0 0300 	movt	r3, #2048	@ 0x800
 8000fc6:	2000      	movs	r0, #0
 8000fc8:	4632      	mov	r2, r6
 8000fca:	f002 fc18 	bl	80037fe <core::slice::index::slice_index_fail>
 8000fce:	f64a 43e0 	movw	r3, #44256	@ 0xace0
 8000fd2:	2008      	movs	r0, #8
 8000fd4:	f6c0 0300 	movt	r3, #2048	@ 0x800
 8000fd8:	4649      	mov	r1, r9
 8000fda:	464a      	mov	r2, r9
 8000fdc:	f002 fc0f 	bl	80037fe <core::slice::index::slice_index_fail>
 8000fe0:	f64a 43c0 	movw	r3, #44224	@ 0xacc0
 8000fe4:	f6c0 0300 	movt	r3, #2048	@ 0x800
 8000fe8:	2004      	movs	r0, #4
 8000fea:	2106      	movs	r1, #6
 8000fec:	464a      	mov	r2, r9
 8000fee:	f002 fc06 	bl	80037fe <core::slice::index::slice_index_fail>
 8000ff2:	f64a 43d0 	movw	r3, #44240	@ 0xacd0
 8000ff6:	f6c0 0300 	movt	r3, #2048	@ 0x800
 8000ffa:	2006      	movs	r0, #6
 8000ffc:	2108      	movs	r1, #8
 8000ffe:	464a      	mov	r2, r9
 8001000:	f002 fbfd 	bl	80037fe <core::slice::index::slice_index_fail>
 8001004:	f64a 3320 	movw	r3, #43808	@ 0xab20
 8001008:	2012      	movs	r0, #18
 800100a:	f6c0 0300 	movt	r3, #2048	@ 0x800
 800100e:	2114      	movs	r1, #20
 8001010:	4622      	mov	r2, r4
 8001012:	f002 fbf4 	bl	80037fe <core::slice::index::slice_index_fail>
 8001016:	f64a 23f0 	movw	r3, #43760	@ 0xaaf0
 800101a:	f6c0 0300 	movt	r3, #2048	@ 0x800
 800101e:	4621      	mov	r1, r4
 8001020:	4622      	mov	r2, r4
 8001022:	f002 fbec 	bl	80037fe <core::slice::index::slice_index_fail>
 8001026:	f64a 5310 	movw	r3, #44304	@ 0xad10
 800102a:	2014      	movs	r0, #20
 800102c:	f6c0 0300 	movt	r3, #2048	@ 0x800
 8001030:	4621      	mov	r1, r4
 8001032:	4622      	mov	r2, r4
 8001034:	f002 fbe3 	bl	80037fe <core::slice::index::slice_index_fail>
 8001038:	f64a 5330 	movw	r3, #44336	@ 0xad30
 800103c:	2014      	movs	r0, #20
 800103e:	f6c0 0300 	movt	r3, #2048	@ 0x800
 8001042:	4631      	mov	r1, r6
 8001044:	4632      	mov	r2, r6
 8001046:	f002 fbda 	bl	80037fe <core::slice::index::slice_index_fail>
 800104a:	f64a 5300 	movw	r3, #44288	@ 0xad00
 800104e:	4610      	mov	r0, r2
 8001050:	f6c0 0300 	movt	r3, #2048	@ 0x800
 8001054:	4631      	mov	r1, r6
 8001056:	461a      	mov	r2, r3
 8001058:	f003 f85e 	bl	8004118 <core::slice::copy_from_slice_impl::len_mismatch_fail>
 800105c:	f64a 5220 	movw	r2, #44320	@ 0xad20
 8001060:	4621      	mov	r1, r4
 8001062:	f6c0 0200 	movt	r2, #2048	@ 0x800
 8001066:	f003 f857 	bl	8004118 <core::slice::copy_from_slice_impl::len_mismatch_fail>
 800106a:	f24b 0298 	movw	r2, #45208	@ 0xb098
 800106e:	4630      	mov	r0, r6
 8001070:	f6c0 0200 	movt	r2, #2048	@ 0x800
 8001074:	f002 fc42 	bl	80038fc <core::panicking::panic_bounds_check>
 8001078:	2002      	movs	r0, #2
 800107a:	9013      	str	r0, [sp, #76]	@ 0x4c
 800107c:	a813      	add	r0, sp, #76	@ 0x4c
 800107e:	f004 fff4 	bl	800606a <core::ptr::drop_in_place<core::result::Result<stm32_eth::dma::tx::TxPacket,stm32_eth::dma::tx::TxError>>>
 8001082:	f64a 200c 	movw	r0, #43532	@ 0xaa0c
 8001086:	f6c0 0000 	movt	r0, #2048	@ 0x800
 800108a:	f002 fbae 	bl	80037ea <core::option::unwrap_failed>
 800108e:	f64a 52dc 	movw	r2, #44508	@ 0xaddc
 8001092:	2000      	movs	r0, #0
 8001094:	f6c0 0200 	movt	r2, #2048	@ 0x800
 8001098:	2100      	movs	r1, #0
 800109a:	f002 fc2f 	bl	80038fc <core::panicking::panic_bounds_check>
 800109e:	f64a 623c 	movw	r2, #44604	@ 0xae3c
 80010a2:	2001      	movs	r0, #1
 80010a4:	f6c0 0200 	movt	r2, #2048	@ 0x800
 80010a8:	2101      	movs	r1, #1
 80010aa:	f002 fc27 	bl	80038fc <core::panicking::panic_bounds_check>
 80010ae:	f64a 625c 	movw	r2, #44636	@ 0xae5c
 80010b2:	2008      	movs	r0, #8
 80010b4:	f6c0 0200 	movt	r2, #2048	@ 0x800
 80010b8:	2108      	movs	r1, #8
 80010ba:	f002 fc1f 	bl	80038fc <core::panicking::panic_bounds_check>
 80010be:	f64a 621c 	movw	r2, #44572	@ 0xae1c
 80010c2:	2009      	movs	r0, #9
 80010c4:	f6c0 0200 	movt	r2, #2048	@ 0x800
 80010c8:	2109      	movs	r1, #9
 80010ca:	f002 fc17 	bl	80038fc <core::panicking::panic_bounds_check>
 80010ce:	f24b 0258 	movw	r2, #45144	@ 0xb058
 80010d2:	f6c0 0200 	movt	r2, #2048	@ 0x800
 80010d6:	f002 fc11 	bl	80038fc <core::panicking::panic_bounds_check>
 80010da:	f64a 42f0 	movw	r2, #44272	@ 0xacf0
 80010de:	2001      	movs	r0, #1
 80010e0:	f6c0 0200 	movt	r2, #2048	@ 0x800
 80010e4:	4649      	mov	r1, r9
 80010e6:	f002 fc09 	bl	80038fc <core::panicking::panic_bounds_check>
 80010ea:	f24b 0298 	movw	r2, #45208	@ 0xb098
 80010ee:	4620      	mov	r0, r4
 80010f0:	f6c0 0200 	movt	r2, #2048	@ 0x800
 80010f4:	f002 fc02 	bl	80038fc <core::panicking::panic_bounds_check>
 80010f8:	2002      	movs	r0, #2
 80010fa:	9028      	str	r0, [sp, #160]	@ 0xa0
 80010fc:	a828      	add	r0, sp, #160	@ 0xa0
 80010fe:	f004 ffb4 	bl	800606a <core::ptr::drop_in_place<core::result::Result<stm32_eth::dma::tx::TxPacket,stm32_eth::dma::tx::TxError>>>
 8001102:	f64a 200c 	movw	r0, #43532	@ 0xaa0c
 8001106:	f6c0 0000 	movt	r0, #2048	@ 0x800
 800110a:	f002 fb6e 	bl	80037ea <core::option::unwrap_failed>
 800110e:	f24b 0258 	movw	r2, #45144	@ 0xb058
 8001112:	4620      	mov	r0, r4
 8001114:	f6c0 0200 	movt	r2, #2048	@ 0x800
 8001118:	f002 fbf0 	bl	80038fc <core::panicking::panic_bounds_check>

0800111c <smoltcp::iface::interface::Interface::poll>:
 800111c:	b5f0      	push	{r4, r5, r6, r7, lr}
 800111e:	af03      	add	r7, sp, #12
 8001120:	e92d 0f00 	stmdb	sp!, {r8, r9, sl, fp}
 8001124:	f5ad 7d5d 	sub.w	sp, sp, #884	@ 0x374
 8001128:	aebe      	add	r6, sp, #760	@ 0x2f8
 800112a:	f500 7bb8 	add.w	fp, r0, #368	@ 0x170
 800112e:	1c71      	adds	r1, r6, #1
 8001130:	913f      	str	r1, [sp, #252]	@ 0xfc
 8001132:	a98c      	add	r1, sp, #560	@ 0x230
 8001134:	e9c0 2304 	strd	r2, r3, [r0, #16]
 8001138:	f101 0510 	add.w	r5, r1, #16
 800113c:	9536      	str	r5, [sp, #216]	@ 0xd8
 800113e:	f106 0554 	add.w	r5, r6, #84	@ 0x54
 8001142:	9532      	str	r5, [sp, #200]	@ 0xc8
 8001144:	ada5      	add	r5, sp, #660	@ 0x294
 8001146:	904a      	str	r0, [sp, #296]	@ 0x128
 8001148:	f105 0454 	add.w	r4, r5, #84	@ 0x54
 800114c:	9431      	str	r4, [sp, #196]	@ 0xc4
 800114e:	f101 040d 	add.w	r4, r1, #13
 8001152:	3124      	adds	r1, #36	@ 0x24
 8001154:	9133      	str	r1, [sp, #204]	@ 0xcc
 8001156:	a954      	add	r1, sp, #336	@ 0x150
 8001158:	3102      	adds	r1, #2
 800115a:	913a      	str	r1, [sp, #232]	@ 0xe8
 800115c:	f500 7180 	add.w	r1, r0, #256	@ 0x100
 8001160:	9135      	str	r1, [sp, #212]	@ 0xd4
 8001162:	f100 0120 	add.w	r1, r0, #32
 8001166:	913e      	str	r1, [sp, #248]	@ 0xf8
 8001168:	f100 01f4 	add.w	r1, r0, #244	@ 0xf4
 800116c:	9144      	str	r1, [sp, #272]	@ 0x110
 800116e:	f500 71b4 	add.w	r1, r0, #360	@ 0x168
 8001172:	a857      	add	r0, sp, #348	@ 0x15c
 8001174:	9146      	str	r1, [sp, #280]	@ 0x118
 8001176:	f100 011c 	add.w	r1, r0, #28
 800117a:	9142      	str	r1, [sp, #264]	@ 0x108
 800117c:	f100 0113 	add.w	r1, r0, #19
 8001180:	3006      	adds	r0, #6
 8001182:	9040      	str	r0, [sp, #256]	@ 0x100
 8001184:	f105 000f 	add.w	r0, r5, #15
 8001188:	9039      	str	r0, [sp, #228]	@ 0xe4
 800118a:	1ca8      	adds	r0, r5, #2
 800118c:	9038      	str	r0, [sp, #224]	@ 0xe0
 800118e:	f106 001c 	add.w	r0, r6, #28
 8001192:	903d      	str	r0, [sp, #244]	@ 0xf4
 8001194:	f106 0013 	add.w	r0, r6, #19
 8001198:	903c      	str	r0, [sp, #240]	@ 0xf0
 800119a:	1db0      	adds	r0, r6, #6
 800119c:	903b      	str	r0, [sp, #236]	@ 0xec
 800119e:	f8d7 a008 	ldr.w	sl, [r7, #8]
 80011a2:	f50d 7996 	add.w	r9, sp, #300	@ 0x12c
 80011a6:	9434      	str	r4, [sp, #208]	@ 0xd0
 80011a8:	f249 0408 	movw	r4, #36872	@ 0x9008
 80011ac:	f10a 080c 	add.w	r8, sl, #12
 80011b0:	f2c4 0402 	movt	r4, #16386	@ 0x4002
 80011b4:	f04f 0c01 	mov.w	ip, #1
 80011b8:	f44f 6ec8 	mov.w	lr, #1600	@ 0x640
 80011bc:	e9cd 2347 	strd	r2, r3, [sp, #284]	@ 0x11c
 80011c0:	9141      	str	r1, [sp, #260]	@ 0x104
 80011c2:	f8cd 810c 	str.w	r8, [sp, #268]	@ 0x10c
 80011c6:	f8cd b124 	str.w	fp, [sp, #292]	@ 0x124
 80011ca:	2000      	movs	r0, #0
 80011cc:	9045      	str	r0, [sp, #276]	@ 0x114
 80011ce:	2000      	movs	r0, #0
 80011d0:	9037      	str	r0, [sp, #220]	@ 0xdc
 80011d2:	e9da 1004 	ldrd	r1, r0, [sl, #16]
 80011d6:	4288      	cmp	r0, r1
 80011d8:	d317      	bcc.n	800120a <smoltcp::iface::interface::Interface::poll+0xee>
 80011da:	f24b 02a8 	movw	r2, #45224	@ 0xb0a8
 80011de:	f6c0 0200 	movt	r2, #2048	@ 0x800
 80011e2:	f002 fb8b 	bl	80038fc <core::panicking::panic_bounds_check>
 80011e6:	f240 002f 	movw	r0, #47	@ 0x2f
 80011ea:	4664      	mov	r4, ip
 80011ec:	f2c0 0000 	movt	r0, #0
 80011f0:	4675      	mov	r5, lr
 80011f2:	f003 f940 	bl	8004476 <defmt::export::acquire_header_and_release>
 80011f6:	46ae      	mov	lr, r5
 80011f8:	46a4      	mov	ip, r4
 80011fa:	f249 0408 	movw	r4, #36872	@ 0x9008
 80011fe:	f2c4 0402 	movt	r4, #16386	@ 0x4002
 8001202:	e9da 1004 	ldrd	r1, r0, [sl, #16]
 8001206:	4288      	cmp	r0, r1
 8001208:	d2e7      	bcs.n	80011da <smoltcp::iface::interface::Interface::poll+0xbe>
 800120a:	f44f 61c6 	mov.w	r1, #1584	@ 0x630
 800120e:	4348      	muls	r0, r1
 8001210:	f8d8 1000 	ldr.w	r1, [r8]
 8001214:	5808      	ldr	r0, [r1, r0]
 8001216:	2800      	cmp	r0, #0
 8001218:	f101 8242 	bmi.w	80026a0 <smoltcp::iface::interface::Interface::poll+0x1584>
 800121c:	68e0      	ldr	r0, [r4, #12]
 800121e:	f3c0 4042 	ubfx	r0, r0, #17, #3
 8001222:	2807      	cmp	r0, #7
 8001224:	d87b      	bhi.n	800131e <smoltcp::iface::interface::Interface::poll+0x202>
 8001226:	fa0c f000 	lsl.w	r0, ip, r0
 800122a:	f010 0faa 	tst.w	r0, #170	@ 0xaa
 800122e:	bf08      	it	eq
 8001230:	f8c4 c000 	streq.w	ip, [r4]
 8001234:	e9da 1001 	ldrd	r1, r0, [sl, #4]
 8001238:	4288      	cmp	r0, r1
 800123a:	f082 80ce 	bcs.w	80033da <smoltcp::iface::interface::Interface::poll+0x22be>
 800123e:	fb00 f20e 	mul.w	r2, r0, lr
 8001242:	f8da 3000 	ldr.w	r3, [sl]
 8001246:	589a      	ldr	r2, [r3, r2]
 8001248:	2a00      	cmp	r2, #0
 800124a:	f101 8229 	bmi.w	80026a0 <smoltcp::iface::interface::Interface::poll+0x1584>
 800124e:	f8da 2018 	ldr.w	r2, [sl, #24]
 8001252:	2500      	movs	r5, #0
 8001254:	f8cd 8138 	str.w	r8, [sp, #312]	@ 0x138
 8001258:	1c56      	adds	r6, r2, #1
 800125a:	f8ca 6018 	str.w	r6, [sl, #24]
 800125e:	68fe      	ldr	r6, [r7, #12]
 8001260:	954c      	str	r5, [sp, #304]	@ 0x130
 8001262:	f8cd 914c 	str.w	r9, [sp, #332]	@ 0x14c
 8001266:	9652      	str	r6, [sp, #328]	@ 0x148
 8001268:	924b      	str	r2, [sp, #300]	@ 0x12c
 800126a:	68e6      	ldr	r6, [r4, #12]
 800126c:	9d4a      	ldr	r5, [sp, #296]	@ 0x128
 800126e:	e9cd bb50 	strd	fp, fp, [sp, #320]	@ 0x140
 8001272:	f3c6 4642 	ubfx	r6, r6, #17, #3
 8001276:	954f      	str	r5, [sp, #316]	@ 0x13c
 8001278:	2e07      	cmp	r6, #7
 800127a:	d858      	bhi.n	800132e <smoltcp::iface::interface::Interface::poll+0x212>
 800127c:	fa0c f606 	lsl.w	r6, ip, r6
 8001280:	f016 0faa 	tst.w	r6, #170	@ 0xaa
 8001284:	bf08      	it	eq
 8001286:	f8c4 c000 	streq.w	ip, [r4]
 800128a:	fb00 340e 	mla	r4, r0, lr, r3
 800128e:	6823      	ldr	r3, [r4, #0]
 8001290:	2b00      	cmp	r3, #0
 8001292:	d4a8      	bmi.n	80011e6 <smoltcp::iface::interface::Interface::poll+0xca>
 8001294:	6823      	ldr	r3, [r4, #0]
 8001296:	f413 4300 	ands.w	r3, r3, #32768	@ 0x8000
 800129a:	d106      	bne.n	80012aa <smoltcp::iface::interface::Interface::poll+0x18e>
 800129c:	6826      	ldr	r6, [r4, #0]
 800129e:	05b6      	lsls	r6, r6, #22
 80012a0:	bf44      	itt	mi
 80012a2:	6826      	ldrmi	r6, [r4, #0]
 80012a4:	ea5f 56c6 	movsmi.w	r6, r6, lsl #23
 80012a8:	d449      	bmi.n	800133e <smoltcp::iface::interface::Interface::poll+0x222>
 80012aa:	6a20      	ldr	r0, [r4, #32]
 80012ac:	2800      	cmp	r0, #0
 80012ae:	f002 802a 	beq.w	8003306 <smoltcp::iface::interface::Interface::poll+0x21ea>
 80012b2:	e9d4 0109 	ldrd	r0, r1, [r4, #36]	@ 0x24
 80012b6:	2900      	cmp	r1, #0
 80012b8:	60a0      	str	r0, [r4, #8]
 80012ba:	f002 802f 	beq.w	800331c <smoltcp::iface::interface::Interface::poll+0x2200>
 80012be:	6ae0      	ldr	r0, [r4, #44]	@ 0x2c
 80012c0:	60e0      	str	r0, [r4, #12]
 80012c2:	f04f 4000 	mov.w	r0, #2147483648	@ 0x80000000
 80012c6:	f3bf 8f5f 	dmb	sy
 80012ca:	6020      	str	r0, [r4, #0]
 80012cc:	0bdc      	lsrs	r4, r3, #15
 80012ce:	2c02      	cmp	r4, #2
 80012d0:	f3bf 8f5f 	dmb	sy
 80012d4:	d087      	beq.n	80011e6 <smoltcp::iface::interface::Interface::poll+0xca>
 80012d6:	f240 002a 	movw	r0, #42	@ 0x2a
 80012da:	46c1      	mov	r9, r8
 80012dc:	f2c0 0000 	movt	r0, #0
 80012e0:	46d8      	mov	r8, fp
 80012e2:	4666      	mov	r6, ip
 80012e4:	46f3      	mov	fp, lr
 80012e6:	f003 f8b5 	bl	8004454 <defmt::export::acquire_and_header>
 80012ea:	f240 0041 	movw	r0, #65	@ 0x41
 80012ee:	adbe      	add	r5, sp, #760	@ 0x2f8
 80012f0:	f2c0 0000 	movt	r0, #0
 80012f4:	2102      	movs	r1, #2
 80012f6:	f8ad 02f8 	strh.w	r0, [sp, #760]	@ 0x2f8
 80012fa:	4628      	mov	r0, r5
 80012fc:	f003 fa5c 	bl	80047b8 <_defmt_write>
 8001300:	4628      	mov	r0, r5
 8001302:	2101      	movs	r1, #1
 8001304:	f88d 42f8 	strb.w	r4, [sp, #760]	@ 0x2f8
 8001308:	f003 fa56 	bl	80047b8 <_defmt_write>
 800130c:	f003 f9dc 	bl	80046c8 <_defmt_release>
 8001310:	a84b      	add	r0, sp, #300	@ 0x12c
 8001312:	46de      	mov	lr, fp
 8001314:	46c3      	mov	fp, r8
 8001316:	46c8      	mov	r8, r9
 8001318:	4681      	mov	r9, r0
 800131a:	46b4      	mov	ip, r6
 800131c:	e76d      	b.n	80011fa <smoltcp::iface::interface::Interface::poll+0xde>
 800131e:	f8c4 c000 	str.w	ip, [r4]
 8001322:	e9da 1001 	ldrd	r1, r0, [sl, #4]
 8001326:	4288      	cmp	r0, r1
 8001328:	d389      	bcc.n	800123e <smoltcp::iface::interface::Interface::poll+0x122>
 800132a:	f002 b856 	b.w	80033da <smoltcp::iface::interface::Interface::poll+0x22be>
 800132e:	f8c4 c000 	str.w	ip, [r4]
 8001332:	fb00 340e 	mla	r4, r0, lr, r3
 8001336:	6823      	ldr	r3, [r4, #0]
 8001338:	2b00      	cmp	r3, #0
 800133a:	d5ab      	bpl.n	8001294 <smoltcp::iface::interface::Interface::poll+0x178>
 800133c:	e753      	b.n	80011e6 <smoltcp::iface::interface::Interface::poll+0xca>
 800133e:	f8d4 c000 	ldr.w	ip, [r4]
 8001342:	f8d4 e000 	ldr.w	lr, [r4]
 8001346:	2500      	movs	r5, #0
 8001348:	69e3      	ldr	r3, [r4, #28]
 800134a:	f8d4 8018 	ldr.w	r8, [r4, #24]
 800134e:	f028 4600 	bic.w	r6, r8, #2147483648	@ 0x80000000
 8001352:	ea46 76c3 	orr.w	r6, r6, r3, lsl #31
 8001356:	f1d6 0b00 	rsbs	fp, r6, #0
 800135a:	eb65 0a53 	sbc.w	sl, r5, r3, lsr #1
 800135e:	f1b8 0f00 	cmp.w	r8, #0
 8001362:	bf5c      	itt	pl
 8001364:	46b3      	movpl	fp, r6
 8001366:	ea4f 0a53 	movpl.w	sl, r3, lsr #1
 800136a:	ea5f 630e 	movs.w	r3, lr, lsl #24
 800136e:	f8d7 8008 	ldr.w	r8, [r7, #8]
 8001372:	bf41      	itttt	mi
 8001374:	6823      	ldrmi	r3, [r4, #0]
 8001376:	ea5f 53c3 	movsmi.w	r3, r3, lsl #23
 800137a:	f04f 0900 	movmi.w	r9, #0
 800137e:	f04f 0e01 	movmi.w	lr, #1
 8001382:	bf5c      	itt	pl
 8001384:	f04f 0e00 	movpl.w	lr, #0
 8001388:	f04f 0900 	movpl.w	r9, #0
 800138c:	e9d8 3501 	ldrd	r3, r5, [r8, #4]
 8001390:	3501      	adds	r5, #1
 8001392:	e9c4 e90e 	strd	lr, r9, [r4, #56]	@ 0x38
 8001396:	fbb5 f6f1 	udiv	r6, r5, r1
 800139a:	4298      	cmp	r0, r3
 800139c:	fb06 5111 	mls	r1, r6, r1, r5
 80013a0:	f04f 0501 	mov.w	r5, #1
 80013a4:	e9c4 520c 	strd	r5, r2, [r4, #48]	@ 0x30
 80013a8:	e9c4 ba10 	strd	fp, sl, [r4, #64]	@ 0x40
 80013ac:	f8c8 1008 	str.w	r1, [r8, #8]
 80013b0:	f082 8027 	bcs.w	8003402 <smoltcp::iface::interface::Interface::poll+0x22e6>
 80013b4:	46c2      	mov	sl, r8
 80013b6:	9d43      	ldr	r5, [sp, #268]	@ 0x10c
 80013b8:	f8dd 8124 	ldr.w	r8, [sp, #292]	@ 0x124
 80013bc:	f3cc 410d 	ubfx	r1, ip, #16, #14
 80013c0:	f50d 7996 	add.w	r9, sp, #300	@ 0x12c
 80013c4:	f44f 6ec8 	mov.w	lr, #1600	@ 0x640
 80013c8:	f240 52f3 	movw	r2, #1523	@ 0x5f3
 80013cc:	4291      	cmp	r1, r2
 80013ce:	f081 87b0 	bcs.w	8003332 <smoltcp::iface::interface::Interface::poll+0x2216>
 80013d2:	f8da 2000 	ldr.w	r2, [sl]
 80013d6:	fb00 260e 	mla	r6, r0, lr, r2
 80013da:	b179      	cbz	r1, 80013fc <smoltcp::iface::interface::Interface::poll+0x2e0>
 80013dc:	f106 0248 	add.w	r2, r6, #72	@ 0x48
 80013e0:	f249 0408 	movw	r4, #36872	@ 0x9008
 80013e4:	f2c4 0402 	movt	r4, #16386	@ 0x4002
 80013e8:	f04f 0c01 	mov.w	ip, #1
 80013ec:	4610      	mov	r0, r2
 80013ee:	46c3      	mov	fp, r8
 80013f0:	290e      	cmp	r1, #14
 80013f2:	bf38      	it	cc
 80013f4:	2000      	movcc	r0, #0
 80013f6:	d20a      	bcs.n	800140e <smoltcp::iface::interface::Interface::poll+0x2f2>
 80013f8:	46a8      	mov	r8, r5
 80013fa:	e0c1      	b.n	8001580 <smoltcp::iface::interface::Interface::poll+0x464>
 80013fc:	f249 0408 	movw	r4, #36872	@ 0x9008
 8001400:	46c3      	mov	fp, r8
 8001402:	f2c4 0402 	movt	r4, #16386	@ 0x4002
 8001406:	f04f 0c01 	mov.w	ip, #1
 800140a:	46a8      	mov	r8, r5
 800140c:	e0b8      	b.n	8001580 <smoltcp::iface::interface::Interface::poll+0x464>
 800140e:	9b4b      	ldr	r3, [sp, #300]	@ 0x12c
 8001410:	46b1      	mov	r9, r6
 8001412:	932e      	str	r3, [sp, #184]	@ 0xb8
 8001414:	68fb      	ldr	r3, [r7, #12]
 8001416:	e9d3 3600 	ldrd	r3, r6, [r3]
 800141a:	e9cd 632f 	strd	r6, r3, [sp, #188]	@ 0xbc
 800141e:	6813      	ldr	r3, [r2, #0]
 8001420:	07de      	lsls	r6, r3, #31
 8001422:	d113      	bne.n	800144c <smoltcp::iface::interface::Interface::poll+0x330>
 8001424:	9e46      	ldr	r6, [sp, #280]	@ 0x118
 8001426:	46cb      	mov	fp, r9
 8001428:	8892      	ldrh	r2, [r2, #4]
 800142a:	46b1      	mov	r9, r6
 800142c:	88b6      	ldrh	r6, [r6, #4]
 800142e:	f8d9 9000 	ldr.w	r9, [r9]
 8001432:	4072      	eors	r2, r6
 8001434:	ea83 0309 	eor.w	r3, r3, r9
 8001438:	46d9      	mov	r9, fp
 800143a:	b292      	uxth	r2, r2
 800143c:	46c3      	mov	fp, r8
 800143e:	431a      	orrs	r2, r3
 8001440:	d004      	beq.n	800144c <smoltcp::iface::interface::Interface::poll+0x330>
 8001442:	464e      	mov	r6, r9
 8001444:	46a8      	mov	r8, r5
 8001446:	f50d 7996 	add.w	r9, sp, #300	@ 0x12c
 800144a:	e099      	b.n	8001580 <smoltcp::iface::interface::Interface::poll+0x464>
 800144c:	f8b9 2054 	ldrh.w	r2, [r9, #84]	@ 0x54
 8001450:	464e      	mov	r6, r9
 8001452:	ba12      	rev	r2, r2
 8001454:	0c12      	lsrs	r2, r2, #16
 8001456:	f5b2 6f00 	cmp.w	r2, #2048	@ 0x800
 800145a:	f000 8082 	beq.w	8001562 <smoltcp::iface::interface::Interface::poll+0x446>
 800145e:	f50d 7996 	add.w	r9, sp, #300	@ 0x12c
 8001462:	46a8      	mov	r8, r5
 8001464:	f640 0006 	movw	r0, #2054	@ 0x806
 8001468:	4282      	cmp	r2, r0
 800146a:	f040 8089 	bne.w	8001580 <smoltcp::iface::interface::Interface::poll+0x464>
 800146e:	f1a1 020e 	sub.w	r2, r1, #14
 8001472:	2a08      	cmp	r2, #8
 8001474:	f0c0 8084 	bcc.w	8001580 <smoltcp::iface::interface::Interface::poll+0x464>
 8001478:	f896 005a 	ldrb.w	r0, [r6, #90]	@ 0x5a
 800147c:	f896 105b 	ldrb.w	r1, [r6, #91]	@ 0x5b
 8001480:	4408      	add	r0, r1
 8001482:	3004      	adds	r0, #4
 8001484:	ebb2 0f40 	cmp.w	r2, r0, lsl #1
 8001488:	d37a      	bcc.n	8001580 <smoltcp::iface::interface::Interface::poll+0x464>
 800148a:	f896 005a 	ldrb.w	r0, [r6, #90]	@ 0x5a
 800148e:	f896 105b 	ldrb.w	r1, [r6, #91]	@ 0x5b
 8001492:	180b      	adds	r3, r1, r0
 8001494:	3304      	adds	r3, #4
 8001496:	ebb2 0f43 	cmp.w	r2, r3, lsl #1
 800149a:	d371      	bcc.n	8001580 <smoltcp::iface::interface::Interface::poll+0x464>
 800149c:	2904      	cmp	r1, #4
 800149e:	bf08      	it	eq
 80014a0:	2806      	cmpeq	r0, #6
 80014a2:	d16d      	bne.n	8001580 <smoltcp::iface::interface::Interface::poll+0x464>
 80014a4:	f8b6 3056 	ldrh.w	r3, [r6, #86]	@ 0x56
 80014a8:	f5b3 7f80 	cmp.w	r3, #256	@ 0x100
 80014ac:	bf04      	itt	eq
 80014ae:	f8b6 3058 	ldrheq.w	r3, [r6, #88]	@ 0x58
 80014b2:	2b08      	cmpeq	r3, #8
 80014b4:	d164      	bne.n	8001580 <smoltcp::iface::interface::Interface::poll+0x464>
 80014b6:	2a0d      	cmp	r2, #13
 80014b8:	f241 87b0 	bls.w	800341c <smoltcp::iface::interface::Interface::poll+0x2300>
 80014bc:	310e      	adds	r1, #14
 80014be:	4291      	cmp	r1, r2
 80014c0:	f201 87b4 	bhi.w	800342c <smoltcp::iface::interface::Interface::poll+0x2310>
 80014c4:	eb01 0c00 	add.w	ip, r1, r0
 80014c8:	962d      	str	r6, [sp, #180]	@ 0xb4
 80014ca:	4594      	cmp	ip, r2
 80014cc:	f201 87b5 	bhi.w	800343a <smoltcp::iface::interface::Interface::poll+0x231e>
 80014d0:	2a1b      	cmp	r2, #27
 80014d2:	f241 87ba 	bls.w	800344a <smoltcp::iface::interface::Interface::poll+0x232e>
 80014d6:	984a      	ldr	r0, [sp, #296]	@ 0x128
 80014d8:	464d      	mov	r5, r9
 80014da:	e9d0 1204 	ldrd	r1, r2, [r0, #16]
 80014de:	912c      	str	r1, [sp, #176]	@ 0xb0
 80014e0:	992d      	ldr	r1, [sp, #180]	@ 0xb4
 80014e2:	922a      	str	r2, [sp, #168]	@ 0xa8
 80014e4:	f8d0 00f0 	ldr.w	r0, [r0, #240]	@ 0xf0
 80014e8:	f8d1 205f 	ldr.w	r2, [r1, #95]	@ 0x5f
 80014ec:	922e      	str	r2, [sp, #184]	@ 0xb8
 80014ee:	f891 205e 	ldrb.w	r2, [r1, #94]	@ 0x5e
 80014f2:	eb00 0980 	add.w	r9, r0, r0, lsl #2
 80014f6:	922f      	str	r2, [sp, #188]	@ 0xbc
 80014f8:	6e4a      	ldr	r2, [r1, #100]	@ 0x64
 80014fa:	f8b1 405c 	ldrh.w	r4, [r1, #92]	@ 0x5c
 80014fe:	f891 e063 	ldrb.w	lr, [r1, #99]	@ 0x63
 8001502:	f8d1 606e 	ldr.w	r6, [r1, #110]	@ 0x6e
 8001506:	9944      	ldr	r1, [sp, #272]	@ 0x110
 8001508:	9230      	str	r2, [sp, #192]	@ 0xc0
 800150a:	464a      	mov	r2, r9
 800150c:	eb01 0309 	add.w	r3, r1, r9
 8001510:	2a00      	cmp	r2, #0
 8001512:	f000 80b9 	beq.w	8001688 <smoltcp::iface::interface::Interface::poll+0x56c>
 8001516:	4608      	mov	r0, r1
 8001518:	46b4      	mov	ip, r6
 800151a:	f850 6b05 	ldr.w	r6, [r0], #5
 800151e:	4566      	cmp	r6, ip
 8001520:	4666      	mov	r6, ip
 8001522:	f000 80b6 	beq.w	8001692 <smoltcp::iface::interface::Interface::poll+0x576>
 8001526:	4298      	cmp	r0, r3
 8001528:	f000 80ae 	beq.w	8001688 <smoltcp::iface::interface::Interface::poll+0x56c>
 800152c:	f8d1 0005 	ldr.w	r0, [r1, #5]
 8001530:	42b0      	cmp	r0, r6
 8001532:	f000 80ae 	beq.w	8001692 <smoltcp::iface::interface::Interface::poll+0x576>
 8001536:	f101 000a 	add.w	r0, r1, #10
 800153a:	4298      	cmp	r0, r3
 800153c:	f000 80a4 	beq.w	8001688 <smoltcp::iface::interface::Interface::poll+0x56c>
 8001540:	f8d1 000a 	ldr.w	r0, [r1, #10]
 8001544:	42b0      	cmp	r0, r6
 8001546:	f000 80a4 	beq.w	8001692 <smoltcp::iface::interface::Interface::poll+0x576>
 800154a:	f101 000f 	add.w	r0, r1, #15
 800154e:	4298      	cmp	r0, r3
 8001550:	f000 809a 	beq.w	8001688 <smoltcp::iface::interface::Interface::poll+0x56c>
 8001554:	f8d1 000f 	ldr.w	r0, [r1, #15]
 8001558:	3a14      	subs	r2, #20
 800155a:	3114      	adds	r1, #20
 800155c:	42b0      	cmp	r0, r6
 800155e:	d1d7      	bne.n	8001510 <smoltcp::iface::interface::Interface::poll+0x3f4>
 8001560:	e097      	b.n	8001692 <smoltcp::iface::interface::Interface::poll+0x576>
 8001562:	f1a1 020e 	sub.w	r2, r1, #14
 8001566:	f50d 7996 	add.w	r9, sp, #300	@ 0x12c
 800156a:	46a8      	mov	r8, r5
 800156c:	2a14      	cmp	r2, #20
 800156e:	d307      	bcc.n	8001580 <smoltcp::iface::interface::Interface::poll+0x464>
 8001570:	f100 050e 	add.w	r5, r0, #14
 8001574:	213c      	movs	r1, #60	@ 0x3c
 8001576:	7828      	ldrb	r0, [r5, #0]
 8001578:	ea01 0380 	and.w	r3, r1, r0, lsl #2
 800157c:	429a      	cmp	r2, r3
 800157e:	d218      	bcs.n	80015b2 <smoltcp::iface::interface::Interface::poll+0x496>
 8001580:	6a30      	ldr	r0, [r6, #32]
 8001582:	2800      	cmp	r0, #0
 8001584:	f001 86bf 	beq.w	8003306 <smoltcp::iface::interface::Interface::poll+0x21ea>
 8001588:	e9d6 0109 	ldrd	r0, r1, [r6, #36]	@ 0x24
 800158c:	2900      	cmp	r1, #0
 800158e:	60b0      	str	r0, [r6, #8]
 8001590:	f001 86c4 	beq.w	800331c <smoltcp::iface::interface::Interface::poll+0x2200>
 8001594:	6af0      	ldr	r0, [r6, #44]	@ 0x2c
 8001596:	60f0      	str	r0, [r6, #12]
 8001598:	f04f 4000 	mov.w	r0, #2147483648	@ 0x80000000
 800159c:	f3bf 8f5f 	dmb	sy
 80015a0:	6030      	str	r0, [r6, #0]
 80015a2:	f3bf 8f5f 	dmb	sy
 80015a6:	e9da 1004 	ldrd	r1, r0, [sl, #16]
 80015aa:	4288      	cmp	r0, r1
 80015ac:	f4ff ae2d 	bcc.w	800120a <smoltcp::iface::interface::Interface::poll+0xee>
 80015b0:	e613      	b.n	80011da <smoltcp::iface::interface::Interface::poll+0xbe>
 80015b2:	f8b6 1058 	ldrh.w	r1, [r6, #88]	@ 0x58
 80015b6:	ba09      	rev	r1, r1
 80015b8:	ebb3 4f11 	cmp.w	r3, r1, lsr #16
 80015bc:	d8e0      	bhi.n	8001580 <smoltcp::iface::interface::Interface::poll+0x464>
 80015be:	0c09      	lsrs	r1, r1, #16
 80015c0:	428a      	cmp	r2, r1
 80015c2:	d3dd      	bcc.n	8001580 <smoltcp::iface::interface::Interface::poll+0x464>
 80015c4:	f8b6 1058 	ldrh.w	r1, [r6, #88]	@ 0x58
 80015c8:	ba09      	rev	r1, r1
 80015ca:	ebb3 4f11 	cmp.w	r3, r1, lsr #16
 80015ce:	d8d7      	bhi.n	8001580 <smoltcp::iface::interface::Interface::poll+0x464>
 80015d0:	0c09      	lsrs	r1, r1, #16
 80015d2:	428a      	cmp	r2, r1
 80015d4:	912c      	str	r1, [sp, #176]	@ 0xb0
 80015d6:	d3d3      	bcc.n	8001580 <smoltcp::iface::interface::Interface::poll+0x464>
 80015d8:	f000 01f0 	and.w	r1, r0, #240	@ 0xf0
 80015dc:	2940      	cmp	r1, #64	@ 0x40
 80015de:	d1cf      	bne.n	8001580 <smoltcp::iface::interface::Interface::poll+0x464>
 80015e0:	f8b6 1052 	ldrh.w	r1, [r6, #82]	@ 0x52
 80015e4:	9127      	str	r1, [sp, #156]	@ 0x9c
 80015e6:	f8d6 104e 	ldr.w	r1, [r6, #78]	@ 0x4e
 80015ea:	9128      	str	r1, [sp, #160]	@ 0xa0
 80015ec:	994a      	ldr	r1, [sp, #296]	@ 0x128
 80015ee:	7a09      	ldrb	r1, [r1, #8]
 80015f0:	2901      	cmp	r1, #1
 80015f2:	d812      	bhi.n	800161a <smoltcp::iface::interface::Interface::poll+0x4fe>
 80015f4:	0080      	lsls	r0, r0, #2
 80015f6:	9329      	str	r3, [sp, #164]	@ 0xa4
 80015f8:	b2c1      	uxtb	r1, r0
 80015fa:	428a      	cmp	r2, r1
 80015fc:	922a      	str	r2, [sp, #168]	@ 0xa8
 80015fe:	f0c1 86f2 	bcc.w	80033e6 <smoltcp::iface::interface::Interface::poll+0x22ca>
 8001602:	4628      	mov	r0, r5
 8001604:	f006 fda7 	bl	8008156 <smoltcp::wire::ip::checksum::data>
 8001608:	e9dd 3229 	ldrd	r3, r2, [sp, #164]	@ 0xa4
 800160c:	43c0      	mvns	r0, r0
 800160e:	f04f 0c01 	mov.w	ip, #1
 8001612:	f44f 6ec8 	mov.w	lr, #1600	@ 0x640
 8001616:	0400      	lsls	r0, r0, #16
 8001618:	d1b2      	bne.n	8001580 <smoltcp::iface::interface::Interface::poll+0x464>
 800161a:	f8b6 005c 	ldrh.w	r0, [r6, #92]	@ 0x5c
 800161e:	f06f 01c0 	mvn.w	r1, #192	@ 0xc0
 8001622:	4208      	tst	r0, r1
 8001624:	d1ac      	bne.n	8001580 <smoltcp::iface::interface::Interface::poll+0x464>
 8001626:	9524      	str	r5, [sp, #144]	@ 0x90
 8001628:	922a      	str	r2, [sp, #168]	@ 0xa8
 800162a:	f896 005f 	ldrb.w	r0, [r6, #95]	@ 0x5f
 800162e:	f8d6 2066 	ldr.w	r2, [r6, #102]	@ 0x66
 8001632:	f8d6 5062 	ldr.w	r5, [r6, #98]	@ 0x62
 8001636:	283c      	cmp	r0, #60	@ 0x3c
 8001638:	962d      	str	r6, [sp, #180]	@ 0xb4
 800163a:	f04f 060c 	mov.w	r6, #12
 800163e:	f200 808c 	bhi.w	800175a <smoltcp::iface::interface::Interface::poll+0x63e>
 8001642:	e8df f000 	tbb	[pc, r0]
 8001646:	1f1f      	.short	0x1f1f
 8001648:	8a8a8a1f 	.word	0x8a8a8a1f
 800164c:	8a8a8a83 	.word	0x8a8a8a83
 8001650:	8a8a8a8a 	.word	0x8a8a8a8a
 8001654:	858a8a8a 	.word	0x858a8a8a
 8001658:	8a8a8a8a 	.word	0x8a8a8a8a
 800165c:	8a8a8a8a 	.word	0x8a8a8a8a
 8001660:	8a8a8a8a 	.word	0x8a8a8a8a
 8001664:	8a8a8a8a 	.word	0x8a8a8a8a
 8001668:	8a8a8a8a 	.word	0x8a8a8a8a
 800166c:	8a8a8a8a 	.word	0x8a8a8a8a
 8001670:	8a7f7b8a 	.word	0x8a7f7b8a
 8001674:	8a8a8a8a 	.word	0x8a8a8a8a
 8001678:	8a8a8981 	.word	0x8a8a8981
 800167c:	8a8a8a8a 	.word	0x8a8a8a8a
 8001680:	007d7987 	.word	0x007d7987
 8001684:	4606      	mov	r6, r0
 8001686:	e068      	b.n	800175a <smoltcp::iface::interface::Interface::poll+0x63e>
 8001688:	984a      	ldr	r0, [sp, #296]	@ 0x128
 800168a:	f890 016e 	ldrb.w	r0, [r0, #366]	@ 0x16e
 800168e:	2801      	cmp	r0, #1
 8001690:	d118      	bne.n	80016c4 <smoltcp::iface::interface::Interface::poll+0x5a8>
 8001692:	f5b4 7f80 	cmp.w	r4, #256	@ 0x100
 8001696:	bf18      	it	ne
 8001698:	f5b4 7f00 	cmpne.w	r4, #512	@ 0x200
 800169c:	d10c      	bne.n	80016b8 <smoltcp::iface::interface::Interface::poll+0x59c>
 800169e:	9930      	ldr	r1, [sp, #192]	@ 0xc0
 80016a0:	f001 00f0 	and.w	r0, r1, #240	@ 0xf0
 80016a4:	28e0      	cmp	r0, #224	@ 0xe0
 80016a6:	bf1c      	itt	ne
 80016a8:	1c48      	addne	r0, r1, #1
 80016aa:	2801      	cmpne	r0, #1
 80016ac:	d815      	bhi.n	80016da <smoltcp::iface::interface::Interface::poll+0x5be>
 80016ae:	f240 0026 	movw	r0, #38	@ 0x26
 80016b2:	f2c0 0000 	movt	r0, #0
 80016b6:	e003      	b.n	80016c0 <smoltcp::iface::interface::Interface::poll+0x5a4>
 80016b8:	f240 0028 	movw	r0, #40	@ 0x28
 80016bc:	f2c0 0000 	movt	r0, #0
 80016c0:	f002 fed9 	bl	8004476 <defmt::export::acquire_header_and_release>
 80016c4:	f249 0408 	movw	r4, #36872	@ 0x9008
 80016c8:	f04f 0c01 	mov.w	ip, #1
 80016cc:	f2c4 0402 	movt	r4, #16386	@ 0x4002
 80016d0:	f44f 6ec8 	mov.w	lr, #1600	@ 0x640
 80016d4:	9e2d      	ldr	r6, [sp, #180]	@ 0xb4
 80016d6:	46a9      	mov	r9, r5
 80016d8:	e752      	b.n	8001580 <smoltcp::iface::interface::Interface::poll+0x464>
 80016da:	e9dd 202e 	ldrd	r2, r0, [sp, #184]	@ 0xb8
 80016de:	ea4f 210e 	mov.w	r1, lr, lsl #8
 80016e2:	ea41 6112 	orr.w	r1, r1, r2, lsr #24
 80016e6:	ea40 2002 	orr.w	r0, r0, r2, lsl #8
 80016ea:	43c9      	mvns	r1, r1
 80016ec:	b289      	uxth	r1, r1
 80016ee:	ea61 0000 	orn	r0, r1, r0
 80016f2:	2800      	cmp	r0, #0
 80016f4:	d0db      	beq.n	80016ae <smoltcp::iface::interface::Interface::poll+0x592>
 80016f6:	982f      	ldr	r0, [sp, #188]	@ 0xbc
 80016f8:	f010 0001 	ands.w	r0, r0, #1
 80016fc:	d1d7      	bne.n	80016ae <smoltcp::iface::interface::Interface::poll+0x592>
 80016fe:	9844      	ldr	r0, [sp, #272]	@ 0x110
 8001700:	f04f 3cff 	mov.w	ip, #4294967295	@ 0xffffffff
 8001704:	4623      	mov	r3, r4
 8001706:	e00e      	b.n	8001726 <smoltcp::iface::interface::Interface::poll+0x60a>
 8001708:	4249      	negs	r1, r1
 800170a:	f001 011f 	and.w	r1, r1, #31
 800170e:	fa0c f101 	lsl.w	r1, ip, r1
 8001712:	ba0a      	rev	r2, r1
 8001714:	6801      	ldr	r1, [r0, #0]
 8001716:	3005      	adds	r0, #5
 8001718:	9c30      	ldr	r4, [sp, #192]	@ 0xc0
 800171a:	f1a9 0905 	sub.w	r9, r9, #5
 800171e:	4061      	eors	r1, r4
 8001720:	420a      	tst	r2, r1
 8001722:	f000 80f4 	beq.w	800190e <smoltcp::iface::interface::Interface::poll+0x7f2>
 8001726:	f1b9 0f00 	cmp.w	r9, #0
 800172a:	f000 80eb 	beq.w	8001904 <smoltcp::iface::interface::Interface::poll+0x7e8>
 800172e:	7901      	ldrb	r1, [r0, #4]
 8001730:	2900      	cmp	r1, #0
 8001732:	d1e9      	bne.n	8001708 <smoltcp::iface::interface::Interface::poll+0x5ec>
 8001734:	2200      	movs	r2, #0
 8001736:	e7ed      	b.n	8001714 <smoltcp::iface::interface::Interface::poll+0x5f8>
 8001738:	260a      	movs	r6, #10
 800173a:	e00e      	b.n	800175a <smoltcp::iface::interface::Interface::poll+0x63e>
 800173c:	2605      	movs	r6, #5
 800173e:	e00c      	b.n	800175a <smoltcp::iface::interface::Interface::poll+0x63e>
 8001740:	260b      	movs	r6, #11
 8001742:	e00a      	b.n	800175a <smoltcp::iface::interface::Interface::poll+0x63e>
 8001744:	2606      	movs	r6, #6
 8001746:	e008      	b.n	800175a <smoltcp::iface::interface::Interface::poll+0x63e>
 8001748:	2607      	movs	r6, #7
 800174a:	e006      	b.n	800175a <smoltcp::iface::interface::Interface::poll+0x63e>
 800174c:	2603      	movs	r6, #3
 800174e:	e004      	b.n	800175a <smoltcp::iface::interface::Interface::poll+0x63e>
 8001750:	2604      	movs	r6, #4
 8001752:	e002      	b.n	800175a <smoltcp::iface::interface::Interface::poll+0x63e>
 8001754:	2609      	movs	r6, #9
 8001756:	e000      	b.n	800175a <smoltcp::iface::interface::Interface::poll+0x63e>
 8001758:	2608      	movs	r6, #8
 800175a:	992c      	ldr	r1, [sp, #176]	@ 0xb0
 800175c:	9329      	str	r3, [sp, #164]	@ 0xa4
 800175e:	1ac9      	subs	r1, r1, r3
 8001760:	9123      	str	r1, [sp, #140]	@ 0x8c
 8001762:	992d      	ldr	r1, [sp, #180]	@ 0xb4
 8001764:	922b      	str	r2, [sp, #172]	@ 0xac
 8001766:	f891 305e 	ldrb.w	r3, [r1, #94]	@ 0x5e
 800176a:	9926      	ldr	r1, [sp, #152]	@ 0x98
 800176c:	f021 01ff 	bic.w	r1, r1, #255	@ 0xff
 8001770:	4401      	add	r1, r0
 8001772:	f005 00f0 	and.w	r0, r5, #240	@ 0xf0
 8001776:	28e0      	cmp	r0, #224	@ 0xe0
 8001778:	e9cd 5125 	strd	r5, r1, [sp, #148]	@ 0x94
 800177c:	bf18      	it	ne
 800177e:	f115 0001 	addsne.w	r0, r5, #1
 8001782:	d10f      	bne.n	80017a4 <smoltcp::iface::interface::Interface::poll+0x688>
 8001784:	f240 0029 	movw	r0, #41	@ 0x29
 8001788:	4664      	mov	r4, ip
 800178a:	f2c0 0000 	movt	r0, #0
 800178e:	4675      	mov	r5, lr
 8001790:	f002 fe71 	bl	8004476 <defmt::export::acquire_header_and_release>
 8001794:	46a4      	mov	ip, r4
 8001796:	f249 0408 	movw	r4, #36872	@ 0x9008
 800179a:	46ae      	mov	lr, r5
 800179c:	f2c4 0402 	movt	r4, #16386	@ 0x4002
 80017a0:	9e2d      	ldr	r6, [sp, #180]	@ 0xb4
 80017a2:	e6ed      	b.n	8001580 <smoltcp::iface::interface::Interface::poll+0x464>
 80017a4:	e9cd 3621 	strd	r3, r6, [sp, #132]	@ 0x84
 80017a8:	b375      	cbz	r5, 8001808 <smoltcp::iface::interface::Interface::poll+0x6ec>
 80017aa:	984a      	ldr	r0, [sp, #296]	@ 0x128
 80017ac:	f8d0 00f0 	ldr.w	r0, [r0, #240]	@ 0xf0
 80017b0:	b330      	cbz	r0, 8001800 <smoltcp::iface::interface::Interface::poll+0x6e4>
 80017b2:	9944      	ldr	r1, [sp, #272]	@ 0x110
 80017b4:	eb00 0080 	add.w	r0, r0, r0, lsl #2
 80017b8:	4408      	add	r0, r1
 80017ba:	e00f      	b.n	80017dc <smoltcp::iface::interface::Interface::poll+0x6c0>
 80017bc:	2600      	movs	r6, #0
 80017be:	f04f 34ff 	mov.w	r4, #4294967295	@ 0xffffffff
 80017c2:	f002 021f 	and.w	r2, r2, #31
 80017c6:	4033      	ands	r3, r6
 80017c8:	fa24 f202 	lsr.w	r2, r4, r2
 80017cc:	ba12      	rev	r2, r2
 80017ce:	431a      	orrs	r2, r3
 80017d0:	4295      	cmp	r5, r2
 80017d2:	f000 8091 	beq.w	80018f8 <smoltcp::iface::interface::Interface::poll+0x7dc>
 80017d6:	3105      	adds	r1, #5
 80017d8:	4281      	cmp	r1, r0
 80017da:	d011      	beq.n	8001800 <smoltcp::iface::interface::Interface::poll+0x6e4>
 80017dc:	790a      	ldrb	r2, [r1, #4]
 80017de:	680b      	ldr	r3, [r1, #0]
 80017e0:	2a00      	cmp	r2, #0
 80017e2:	d0eb      	beq.n	80017bc <smoltcp::iface::interface::Interface::poll+0x6a0>
 80017e4:	f1a2 061f 	sub.w	r6, r2, #31
 80017e8:	b2f6      	uxtb	r6, r6
 80017ea:	2e02      	cmp	r6, #2
 80017ec:	d3f3      	bcc.n	80017d6 <smoltcp::iface::interface::Interface::poll+0x6ba>
 80017ee:	4256      	negs	r6, r2
 80017f0:	f04f 34ff 	mov.w	r4, #4294967295	@ 0xffffffff
 80017f4:	f006 061f 	and.w	r6, r6, #31
 80017f8:	fa04 f606 	lsl.w	r6, r4, r6
 80017fc:	ba36      	rev	r6, r6
 80017fe:	e7e0      	b.n	80017c2 <smoltcp::iface::interface::Interface::poll+0x6a6>
 8001800:	fab5 f085 	clz	r0, r5
 8001804:	ea4f 1c50 	mov.w	ip, r0, lsr #5
 8001808:	982d      	ldr	r0, [sp, #180]	@ 0xb4
 800180a:	9c29      	ldr	r4, [sp, #164]	@ 0xa4
 800180c:	9a2a      	ldr	r2, [sp, #168]	@ 0xa8
 800180e:	f8b0 0058 	ldrh.w	r0, [r0, #88]	@ 0x58
 8001812:	9b24      	ldr	r3, [sp, #144]	@ 0x90
 8001814:	ba00      	rev	r0, r0
 8001816:	0c01      	lsrs	r1, r0, #16
 8001818:	ebb4 4f10 	cmp.w	r4, r0, lsr #16
 800181c:	f201 8624 	bhi.w	8003468 <smoltcp::iface::interface::Interface::poll+0x234c>
 8001820:	428a      	cmp	r2, r1
 8001822:	f0c1 8621 	bcc.w	8003468 <smoltcp::iface::interface::Interface::poll+0x234c>
 8001826:	984a      	ldr	r0, [sp, #296]	@ 0x128
 8001828:	191e      	adds	r6, r3, r4
 800182a:	9b44      	ldr	r3, [sp, #272]	@ 0x110
 800182c:	e9cd 6629 	strd	r6, r6, [sp, #164]	@ 0xa4
 8001830:	f8d0 e0f0 	ldr.w	lr, [r0, #240]	@ 0xf0
 8001834:	1b08      	subs	r0, r1, r4
 8001836:	f04f 34ff 	mov.w	r4, #4294967295	@ 0xffffffff
 800183a:	902c      	str	r0, [sp, #176]	@ 0xb0
 800183c:	f8cd c080 	str.w	ip, [sp, #128]	@ 0x80
 8001840:	eb0e 028e 	add.w	r2, lr, lr, lsl #2
 8001844:	1899      	adds	r1, r3, r2
 8001846:	b322      	cbz	r2, 8001892 <smoltcp::iface::interface::Interface::poll+0x776>
 8001848:	4618      	mov	r0, r3
 800184a:	9d2b      	ldr	r5, [sp, #172]	@ 0xac
 800184c:	f850 6b05 	ldr.w	r6, [r0], #5
 8001850:	42ae      	cmp	r6, r5
 8001852:	f000 8126 	beq.w	8001aa2 <smoltcp::iface::interface::Interface::poll+0x986>
 8001856:	4288      	cmp	r0, r1
 8001858:	d01b      	beq.n	8001892 <smoltcp::iface::interface::Interface::poll+0x776>
 800185a:	f8d3 0005 	ldr.w	r0, [r3, #5]
 800185e:	9e2b      	ldr	r6, [sp, #172]	@ 0xac
 8001860:	42b0      	cmp	r0, r6
 8001862:	f000 811e 	beq.w	8001aa2 <smoltcp::iface::interface::Interface::poll+0x986>
 8001866:	f103 000a 	add.w	r0, r3, #10
 800186a:	4288      	cmp	r0, r1
 800186c:	d011      	beq.n	8001892 <smoltcp::iface::interface::Interface::poll+0x776>
 800186e:	f8d3 000a 	ldr.w	r0, [r3, #10]
 8001872:	9e2b      	ldr	r6, [sp, #172]	@ 0xac
 8001874:	42b0      	cmp	r0, r6
 8001876:	f000 8114 	beq.w	8001aa2 <smoltcp::iface::interface::Interface::poll+0x986>
 800187a:	f103 000f 	add.w	r0, r3, #15
 800187e:	4288      	cmp	r0, r1
 8001880:	d007      	beq.n	8001892 <smoltcp::iface::interface::Interface::poll+0x776>
 8001882:	f8d3 000f 	ldr.w	r0, [r3, #15]
 8001886:	3a14      	subs	r2, #20
 8001888:	9e2b      	ldr	r6, [sp, #172]	@ 0xac
 800188a:	3314      	adds	r3, #20
 800188c:	42b0      	cmp	r0, r6
 800188e:	d1da      	bne.n	8001846 <smoltcp::iface::interface::Interface::poll+0x72a>
 8001890:	e107      	b.n	8001aa2 <smoltcp::iface::interface::Interface::poll+0x986>
 8001892:	982b      	ldr	r0, [sp, #172]	@ 0xac
 8001894:	9d25      	ldr	r5, [sp, #148]	@ 0x94
 8001896:	f110 0c01 	adds.w	ip, r0, #1
 800189a:	f000 810d 	beq.w	8001ab8 <smoltcp::iface::interface::Interface::poll+0x99c>
 800189e:	9a2b      	ldr	r2, [sp, #172]	@ 0xac
 80018a0:	20e0      	movs	r0, #224	@ 0xe0
 80018a2:	f2c0 1000 	movt	r0, #256	@ 0x100
 80018a6:	4282      	cmp	r2, r0
 80018a8:	f000 8106 	beq.w	8001ab8 <smoltcp::iface::interface::Interface::poll+0x99c>
 80018ac:	f1be 0f00 	cmp.w	lr, #0
 80018b0:	f000 80d4 	beq.w	8001a5c <smoltcp::iface::interface::Interface::poll+0x940>
 80018b4:	9b44      	ldr	r3, [sp, #272]	@ 0x110
 80018b6:	e00f      	b.n	80018d8 <smoltcp::iface::interface::Interface::poll+0x7bc>
 80018b8:	2000      	movs	r0, #0
 80018ba:	4010      	ands	r0, r2
 80018bc:	f006 021f 	and.w	r2, r6, #31
 80018c0:	fa24 f202 	lsr.w	r2, r4, r2
 80018c4:	ba12      	rev	r2, r2
 80018c6:	4310      	orrs	r0, r2
 80018c8:	9a2b      	ldr	r2, [sp, #172]	@ 0xac
 80018ca:	4282      	cmp	r2, r0
 80018cc:	f000 80e3 	beq.w	8001a96 <smoltcp::iface::interface::Interface::poll+0x97a>
 80018d0:	3305      	adds	r3, #5
 80018d2:	428b      	cmp	r3, r1
 80018d4:	f000 80c2 	beq.w	8001a5c <smoltcp::iface::interface::Interface::poll+0x940>
 80018d8:	791e      	ldrb	r6, [r3, #4]
 80018da:	681a      	ldr	r2, [r3, #0]
 80018dc:	2e00      	cmp	r6, #0
 80018de:	d0eb      	beq.n	80018b8 <smoltcp::iface::interface::Interface::poll+0x79c>
 80018e0:	f1a6 001f 	sub.w	r0, r6, #31
 80018e4:	b2c0      	uxtb	r0, r0
 80018e6:	2802      	cmp	r0, #2
 80018e8:	d3f2      	bcc.n	80018d0 <smoltcp::iface::interface::Interface::poll+0x7b4>
 80018ea:	4270      	negs	r0, r6
 80018ec:	f000 001f 	and.w	r0, r0, #31
 80018f0:	fa04 f000 	lsl.w	r0, r4, r0
 80018f4:	ba00      	rev	r0, r0
 80018f6:	e7e0      	b.n	80018ba <smoltcp::iface::interface::Interface::poll+0x79e>
 80018f8:	2d00      	cmp	r5, #0
 80018fa:	f47f af43 	bne.w	8001784 <smoltcp::iface::interface::Interface::poll+0x668>
 80018fe:	f04f 0c01 	mov.w	ip, #1
 8001902:	e781      	b.n	8001808 <smoltcp::iface::interface::Interface::poll+0x6ec>
 8001904:	f240 0027 	movw	r0, #39	@ 0x27
 8001908:	f2c0 0000 	movt	r0, #0
 800190c:	e6d8      	b.n	80016c0 <smoltcp::iface::interface::Interface::poll+0x5a4>
 800190e:	983f      	ldr	r0, [sp, #252]	@ 0xfc
 8001910:	461c      	mov	r4, r3
 8001912:	992e      	ldr	r1, [sp, #184]	@ 0xb8
 8001914:	46b3      	mov	fp, r6
 8001916:	9b2a      	ldr	r3, [sp, #168]	@ 0xa8
 8001918:	4675      	mov	r5, lr
 800191a:	6001      	str	r1, [r0, #0]
 800191c:	f880 e004 	strb.w	lr, [r0, #4]
 8001920:	0e09      	lsrs	r1, r1, #24
 8001922:	982f      	ldr	r0, [sp, #188]	@ 0xbc
 8001924:	f88d 02f8 	strb.w	r0, [sp, #760]	@ 0x2f8
 8001928:	982c      	ldr	r0, [sp, #176]	@ 0xb0
 800192a:	e9cd 0300 	strd	r0, r3, [sp]
 800192e:	fa5f f08e 	uxtb.w	r0, lr
 8001932:	ea41 2300 	orr.w	r3, r1, r0, lsl #8
 8001936:	9abe      	ldr	r2, [sp, #760]	@ 0x2f8
 8001938:	983e      	ldr	r0, [sp, #248]	@ 0xf8
 800193a:	9930      	ldr	r1, [sp, #192]	@ 0xc0
 800193c:	f006 fe10 	bl	8008560 <smoltcp::iface::neighbor::Cache::fill>
 8001940:	f5b4 7f80 	cmp.w	r4, #256	@ 0x100
 8001944:	f040 8098 	bne.w	8001a78 <smoltcp::iface::interface::Interface::poll+0x95c>
 8001948:	9946      	ldr	r1, [sp, #280]	@ 0x118
 800194a:	9a3a      	ldr	r2, [sp, #232]	@ 0xe8
 800194c:	f8cd b29e 	str.w	fp, [sp, #670]	@ 0x29e
 8001950:	6808      	ldr	r0, [r1, #0]
 8001952:	8889      	ldrh	r1, [r1, #4]
 8001954:	8091      	strh	r1, [r2, #4]
 8001956:	6010      	str	r0, [r2, #0]
 8001958:	9a38      	ldr	r2, [sp, #224]	@ 0xe0
 800195a:	e9dd 0154 	ldrd	r0, r1, [sp, #336]	@ 0x150
 800195e:	6010      	str	r0, [r2, #0]
 8001960:	9839      	ldr	r0, [sp, #228]	@ 0xe4
 8001962:	6051      	str	r1, [r2, #4]
 8001964:	992e      	ldr	r1, [sp, #184]	@ 0xb8
 8001966:	6001      	str	r1, [r0, #0]
 8001968:	e9da 1404 	ldrd	r1, r4, [sl, #16]
 800196c:	7105      	strb	r5, [r0, #4]
 800196e:	2001      	movs	r0, #1
 8001970:	f8ad 0294 	strh.w	r0, [sp, #660]	@ 0x294
 8001974:	428c      	cmp	r4, r1
 8001976:	982f      	ldr	r0, [sp, #188]	@ 0xbc
 8001978:	f88d 02a2 	strb.w	r0, [sp, #674]	@ 0x2a2
 800197c:	9830      	ldr	r0, [sp, #192]	@ 0xc0
 800197e:	90aa      	str	r0, [sp, #680]	@ 0x2a8
 8001980:	f081 8582 	bcs.w	8003488 <smoltcp::iface::interface::Interface::poll+0x236c>
 8001984:	f44f 60c6 	mov.w	r0, #1584	@ 0x630
 8001988:	fb04 f600 	mul.w	r6, r4, r0
 800198c:	9843      	ldr	r0, [sp, #268]	@ 0x10c
 800198e:	6800      	ldr	r0, [r0, #0]
 8001990:	5982      	ldr	r2, [r0, r6]
 8001992:	2a00      	cmp	r2, #0
 8001994:	f101 857f 	bmi.w	8003496 <smoltcp::iface::interface::Interface::poll+0x237a>
 8001998:	1c62      	adds	r2, r4, #1
 800199a:	f8d7 8008 	ldr.w	r8, [r7, #8]
 800199e:	fbb2 f3f1 	udiv	r3, r2, r1
 80019a2:	fb03 2111 	mls	r1, r3, r1, r2
 80019a6:	f44f 62c6 	mov.w	r2, #1584	@ 0x630
 80019aa:	9b2e      	ldr	r3, [sp, #184]	@ 0xb8
 80019ac:	fb04 0002 	mla	r0, r4, r2, r0
 80019b0:	9a46      	ldr	r2, [sp, #280]	@ 0x118
 80019b2:	f8c8 1014 	str.w	r1, [r8, #20]
 80019b6:	6811      	ldr	r1, [r2, #0]
 80019b8:	8892      	ldrh	r2, [r2, #4]
 80019ba:	f8c0 103e 	str.w	r1, [r0, #62]	@ 0x3e
 80019be:	f44f 61c1 	mov.w	r1, #1544	@ 0x608
 80019c2:	f8a0 1044 	strh.w	r1, [r0, #68]	@ 0x44
 80019c6:	992f      	ldr	r1, [sp, #188]	@ 0xbc
 80019c8:	f8a0 2042 	strh.w	r2, [r0, #66]	@ 0x42
 80019cc:	221c      	movs	r2, #28
 80019ce:	f880 1038 	strb.w	r1, [r0, #56]	@ 0x38
 80019d2:	f100 0146 	add.w	r1, r0, #70	@ 0x46
 80019d6:	f880 503d 	strb.w	r5, [r0, #61]	@ 0x3d
 80019da:	f8c0 3039 	str.w	r3, [r0, #57]	@ 0x39
 80019de:	a8a5      	add	r0, sp, #660	@ 0x294
 80019e0:	f7fe fc36 	bl	8000250 <smoltcp::wire::arp::Repr::emit>
 80019e4:	f8d8 1010 	ldr.w	r1, [r8, #16]
 80019e8:	428c      	cmp	r4, r1
 80019ea:	f081 855f 	bcs.w	80034ac <smoltcp::iface::interface::Interface::poll+0x2390>
 80019ee:	f8dd 810c 	ldr.w	r8, [sp, #268]	@ 0x10c
 80019f2:	f44f 61c6 	mov.w	r1, #1584	@ 0x630
 80019f6:	f04f 0900 	mov.w	r9, #0
 80019fa:	f8d7 a008 	ldr.w	sl, [r7, #8]
 80019fe:	f8d8 0000 	ldr.w	r0, [r8]
 8001a02:	fb04 0101 	mla	r1, r4, r1, r0
 8001a06:	242a      	movs	r4, #42	@ 0x2a
 8001a08:	684a      	ldr	r2, [r1, #4]
 8001a0a:	e9d1 3c0a 	ldrd	r3, ip, [r1, #40]	@ 0x28
 8001a0e:	f364 020b 	bfi	r2, r4, #0, #12
 8001a12:	604a      	str	r2, [r1, #4]
 8001a14:	608b      	str	r3, [r1, #8]
 8001a16:	2200      	movs	r2, #0
 8001a18:	f8c1 9020 	str.w	r9, [r1, #32]
 8001a1c:	f249 0408 	movw	r4, #36872	@ 0x9008
 8001a20:	f8c1 c00c 	str.w	ip, [r1, #12]
 8001a24:	f2cf 02d0 	movt	r2, #61648	@ 0xf0d0
 8001a28:	f3bf 8f5f 	dmb	sy
 8001a2c:	f891 1030 	ldrb.w	r1, [r1, #48]	@ 0x30
 8001a30:	f2c4 0402 	movt	r4, #16386	@ 0x4002
 8001a34:	ea42 5141 	orr.w	r1, r2, r1, lsl #21
 8001a38:	5181      	str	r1, [r0, r6]
 8001a3a:	f3bf 8f5f 	dmb	sy
 8001a3e:	2001      	movs	r0, #1
 8001a40:	f844 9c04 	str.w	r9, [r4, #-4]
 8001a44:	901c      	str	r0, [sp, #112]	@ 0x70
 8001a46:	9830      	ldr	r0, [sp, #192]	@ 0xc0
 8001a48:	901b      	str	r0, [sp, #108]	@ 0x6c
 8001a4a:	982e      	ldr	r0, [sp, #184]	@ 0xb8
 8001a4c:	f8cd b074 	str.w	fp, [sp, #116]	@ 0x74
 8001a50:	e9cd 501e 	strd	r5, r0, [sp, #120]	@ 0x78
 8001a54:	982f      	ldr	r0, [sp, #188]	@ 0xbc
 8001a56:	9045      	str	r0, [sp, #276]	@ 0x114
 8001a58:	9849      	ldr	r0, [sp, #292]	@ 0x124
 8001a5a:	e014      	b.n	8001a86 <smoltcp::iface::interface::Interface::poll+0x96a>
 8001a5c:	982b      	ldr	r0, [sp, #172]	@ 0xac
 8001a5e:	f000 00f0 	and.w	r0, r0, #240	@ 0xf0
 8001a62:	28e0      	cmp	r0, #224	@ 0xe0
 8001a64:	bf1e      	ittt	ne
 8001a66:	984a      	ldrne	r0, [sp, #296]	@ 0x128
 8001a68:	f890 016e 	ldrbne.w	r0, [r0, #366]	@ 0x16e
 8001a6c:	ea5f 70c0 	movsne.w	r0, r0, lsl #31
 8001a70:	f040 81e2 	bne.w	8001e38 <smoltcp::iface::interface::Interface::poll+0xd1c>
 8001a74:	f8d7 a008 	ldr.w	sl, [r7, #8]
 8001a78:	f8dd 810c 	ldr.w	r8, [sp, #268]	@ 0x10c
 8001a7c:	f249 0408 	movw	r4, #36872	@ 0x9008
 8001a80:	9849      	ldr	r0, [sp, #292]	@ 0x124
 8001a82:	f2c4 0402 	movt	r4, #16386	@ 0x4002
 8001a86:	f50d 7996 	add.w	r9, sp, #300	@ 0x12c
 8001a8a:	f04f 0c01 	mov.w	ip, #1
 8001a8e:	f44f 6ec8 	mov.w	lr, #1600	@ 0x640
 8001a92:	4683      	mov	fp, r0
 8001a94:	e684      	b.n	80017a0 <smoltcp::iface::interface::Interface::poll+0x684>
 8001a96:	f8d7 a008 	ldr.w	sl, [r7, #8]
 8001a9a:	f50d 7996 	add.w	r9, sp, #300	@ 0x12c
 8001a9e:	f8dd 810c 	ldr.w	r8, [sp, #268]	@ 0x10c
 8001aa2:	982b      	ldr	r0, [sp, #172]	@ 0xac
 8001aa4:	9d25      	ldr	r5, [sp, #148]	@ 0x94
 8001aa6:	f000 00f0 	and.w	r0, r0, #240	@ 0xf0
 8001aaa:	28e0      	cmp	r0, #224	@ 0xe0
 8001aac:	d004      	beq.n	8001ab8 <smoltcp::iface::interface::Interface::poll+0x99c>
 8001aae:	982b      	ldr	r0, [sp, #172]	@ 0xac
 8001ab0:	3001      	adds	r0, #1
 8001ab2:	2802      	cmp	r0, #2
 8001ab4:	f080 816c 	bcs.w	8001d90 <smoltcp::iface::interface::Interface::poll+0xc74>
 8001ab8:	9922      	ldr	r1, [sp, #136]	@ 0x88
 8001aba:	2904      	cmp	r1, #4
 8001abc:	f000 80b8 	beq.w	8001c30 <smoltcp::iface::interface::Interface::poll+0xb14>
 8001ac0:	2903      	cmp	r1, #3
 8001ac2:	d052      	beq.n	8001b6a <smoltcp::iface::interface::Interface::poll+0xa4e>
 8001ac4:	2901      	cmp	r1, #1
 8001ac6:	f040 80cb 	bne.w	8001c60 <smoltcp::iface::interface::Interface::poll+0xb44>
 8001aca:	982c      	ldr	r0, [sp, #176]	@ 0xb0
 8001acc:	9929      	ldr	r1, [sp, #164]	@ 0xa4
 8001ace:	2808      	cmp	r0, #8
 8001ad0:	bf38      	it	cc
 8001ad2:	2100      	movcc	r1, #0
 8001ad4:	2807      	cmp	r0, #7
 8001ad6:	9129      	str	r1, [sp, #164]	@ 0xa4
 8001ad8:	f240 80b9 	bls.w	8001c4e <smoltcp::iface::interface::Interface::poll+0xb32>
 8001adc:	984a      	ldr	r0, [sp, #296]	@ 0x128
 8001ade:	7ac0      	ldrb	r0, [r0, #11]
 8001ae0:	2801      	cmp	r0, #1
 8001ae2:	d807      	bhi.n	8001af4 <smoltcp::iface::interface::Interface::poll+0x9d8>
 8001ae4:	982a      	ldr	r0, [sp, #168]	@ 0xa8
 8001ae6:	992c      	ldr	r1, [sp, #176]	@ 0xb0
 8001ae8:	f006 fb35 	bl	8008156 <smoltcp::wire::ip::checksum::data>
 8001aec:	43c0      	mvns	r0, r0
 8001aee:	0400      	lsls	r0, r0, #16
 8001af0:	f040 80ad 	bne.w	8001c4e <smoltcp::iface::interface::Interface::poll+0xb32>
 8001af4:	982a      	ldr	r0, [sp, #168]	@ 0xa8
 8001af6:	7800      	ldrb	r0, [r0, #0]
 8001af8:	280b      	cmp	r0, #11
 8001afa:	f200 80a8 	bhi.w	8001c4e <smoltcp::iface::interface::Interface::poll+0xb32>
 8001afe:	e8df f010 	tbh	[pc, r0, lsl #1]
 8001b02:	026e      	.short	0x026e
 8001b04:	00a600a6 	.word	0x00a600a6
 8001b08:	00a6000c 	.word	0x00a6000c
 8001b0c:	00a600a6 	.word	0x00a600a6
 8001b10:	028100a6 	.word	0x028100a6
 8001b14:	00a600a6 	.word	0x00a600a6
 8001b18:	000c      	.short	0x000c
 8001b1a:	982c      	ldr	r0, [sp, #176]	@ 0xb0
 8001b1c:	f1a0 0108 	sub.w	r1, r0, #8
 8001b20:	2914      	cmp	r1, #20
 8001b22:	f0c0 8094 	bcc.w	8001c4e <smoltcp::iface::interface::Interface::poll+0xb32>
 8001b26:	9829      	ldr	r0, [sp, #164]	@ 0xa4
 8001b28:	233c      	movs	r3, #60	@ 0x3c
 8001b2a:	3008      	adds	r0, #8
 8001b2c:	7802      	ldrb	r2, [r0, #0]
 8001b2e:	ea03 0282 	and.w	r2, r3, r2, lsl #2
 8001b32:	4291      	cmp	r1, r2
 8001b34:	f0c0 808b 	bcc.w	8001c4e <smoltcp::iface::interface::Interface::poll+0xb32>
 8001b38:	9b2a      	ldr	r3, [sp, #168]	@ 0xa8
 8001b3a:	895b      	ldrh	r3, [r3, #10]
 8001b3c:	ba1b      	rev	r3, r3
 8001b3e:	ebb2 4f13 	cmp.w	r2, r3, lsr #16
 8001b42:	f200 8084 	bhi.w	8001c4e <smoltcp::iface::interface::Interface::poll+0xb32>
 8001b46:	0c1b      	lsrs	r3, r3, #16
 8001b48:	4299      	cmp	r1, r3
 8001b4a:	bf24      	itt	cs
 8001b4c:	1a89      	subcs	r1, r1, r2
 8001b4e:	2908      	cmpcs	r1, #8
 8001b50:	d37d      	bcc.n	8001c4e <smoltcp::iface::interface::Interface::poll+0xb32>
 8001b52:	992a      	ldr	r1, [sp, #168]	@ 0xa8
 8001b54:	4410      	add	r0, r2
 8001b56:	901a      	str	r0, [sp, #104]	@ 0x68
 8001b58:	2004      	movs	r0, #4
 8001b5a:	9057      	str	r0, [sp, #348]	@ 0x15c
 8001b5c:	9817      	ldr	r0, [sp, #92]	@ 0x5c
 8001b5e:	7849      	ldrb	r1, [r1, #1]
 8001b60:	f020 00ff 	bic.w	r0, r0, #255	@ 0xff
 8001b64:	4408      	add	r0, r1
 8001b66:	9017      	str	r0, [sp, #92]	@ 0x5c
 8001b68:	e073      	b.n	8001c52 <smoltcp::iface::interface::Interface::poll+0xb36>
 8001b6a:	982c      	ldr	r0, [sp, #176]	@ 0xb0
 8001b6c:	2814      	cmp	r0, #20
 8001b6e:	d36e      	bcc.n	8001c4e <smoltcp::iface::interface::Interface::poll+0xb32>
 8001b70:	982a      	ldr	r0, [sp, #168]	@ 0xa8
 8001b72:	213c      	movs	r1, #60	@ 0x3c
 8001b74:	8986      	ldrh	r6, [r0, #12]
 8001b76:	b2f0      	uxtb	r0, r6
 8001b78:	2850      	cmp	r0, #80	@ 0x50
 8001b7a:	f04f 0000 	mov.w	r0, #0
 8001b7e:	ea01 0596 	and.w	r5, r1, r6, lsr #2
 8001b82:	bf38      	it	cc
 8001b84:	2001      	movcc	r0, #1
 8001b86:	992c      	ldr	r1, [sp, #176]	@ 0xb0
 8001b88:	42a9      	cmp	r1, r5
 8001b8a:	f04f 0100 	mov.w	r1, #0
 8001b8e:	bf38      	it	cc
 8001b90:	2101      	movcc	r1, #1
 8001b92:	4308      	orrs	r0, r1
 8001b94:	2801      	cmp	r0, #1
 8001b96:	d05a      	beq.n	8001c4e <smoltcp::iface::interface::Interface::poll+0xb32>
 8001b98:	982a      	ldr	r0, [sp, #168]	@ 0xa8
 8001b9a:	8800      	ldrh	r0, [r0, #0]
 8001b9c:	2800      	cmp	r0, #0
 8001b9e:	bf1e      	ittt	ne
 8001ba0:	982a      	ldrne	r0, [sp, #168]	@ 0xa8
 8001ba2:	8840      	ldrhne	r0, [r0, #2]
 8001ba4:	2800      	cmpne	r0, #0
 8001ba6:	d052      	beq.n	8001c4e <smoltcp::iface::interface::Interface::poll+0xb32>
 8001ba8:	984a      	ldr	r0, [sp, #296]	@ 0x128
 8001baa:	7a80      	ldrb	r0, [r0, #10]
 8001bac:	2801      	cmp	r0, #1
 8001bae:	d832      	bhi.n	8001c16 <smoltcp::iface::interface::Interface::poll+0xafa>
 8001bb0:	982b      	ldr	r0, [sp, #172]	@ 0xac
 8001bb2:	ba00      	rev	r0, r0
 8001bb4:	0c01      	lsrs	r1, r0, #16
 8001bb6:	fa11 f080 	uxtah	r0, r1, r0
 8001bba:	0c01      	lsrs	r1, r0, #16
 8001bbc:	fa11 f080 	uxtah	r0, r1, r0
 8001bc0:	9925      	ldr	r1, [sp, #148]	@ 0x94
 8001bc2:	eb00 4010 	add.w	r0, r0, r0, lsr #16
 8001bc6:	ba09      	rev	r1, r1
 8001bc8:	b280      	uxth	r0, r0
 8001bca:	0c0a      	lsrs	r2, r1, #16
 8001bcc:	fa12 f181 	uxtah	r1, r2, r1
 8001bd0:	0c0a      	lsrs	r2, r1, #16
 8001bd2:	fa12 f181 	uxtah	r1, r2, r1
 8001bd6:	eb01 4111 	add.w	r1, r1, r1, lsr #16
 8001bda:	fa10 f081 	uxtah	r0, r0, r1
 8001bde:	992c      	ldr	r1, [sp, #176]	@ 0xb0
 8001be0:	1d8b      	adds	r3, r1, #6
 8001be2:	0c1a      	lsrs	r2, r3, #16
 8001be4:	fa12 f283 	uxtah	r2, r2, r3
 8001be8:	eb02 4212 	add.w	r2, r2, r2, lsr #16
 8001bec:	fa10 f082 	uxtah	r0, r0, r2
 8001bf0:	0c02      	lsrs	r2, r0, #16
 8001bf2:	fa12 f080 	uxtah	r0, r2, r0
 8001bf6:	eb00 4010 	add.w	r0, r0, r0, lsr #16
 8001bfa:	b284      	uxth	r4, r0
 8001bfc:	982a      	ldr	r0, [sp, #168]	@ 0xa8
 8001bfe:	f006 faaa 	bl	8008156 <smoltcp::wire::ip::checksum::data>
 8001c02:	fa14 f080 	uxtah	r0, r4, r0
 8001c06:	0c01      	lsrs	r1, r0, #16
 8001c08:	fa11 f080 	uxtah	r0, r1, r0
 8001c0c:	eb00 4010 	add.w	r0, r0, r0, lsr #16
 8001c10:	43c0      	mvns	r0, r0
 8001c12:	0400      	lsls	r0, r0, #16
 8001c14:	d11b      	bne.n	8001c4e <smoltcp::iface::interface::Interface::poll+0xb32>
 8001c16:	05b0      	lsls	r0, r6, #22
 8001c18:	f100 8270 	bmi.w	80020fc <smoltcp::iface::interface::Interface::poll+0xfe0>
 8001c1c:	05f0      	lsls	r0, r6, #23
 8001c1e:	f100 8273 	bmi.w	8002108 <smoltcp::iface::interface::Interface::poll+0xfec>
 8001c22:	0570      	lsls	r0, r6, #21
 8001c24:	f04f 0004 	mov.w	r0, #4
 8001c28:	bf58      	it	pl
 8001c2a:	f3c6 20c0 	ubfxpl	r0, r6, #11, #1
 8001c2e:	e26f      	b.n	8002110 <smoltcp::iface::interface::Interface::poll+0xff4>
 8001c30:	982c      	ldr	r0, [sp, #176]	@ 0xb0
 8001c32:	2808      	cmp	r0, #8
 8001c34:	d30b      	bcc.n	8001c4e <smoltcp::iface::interface::Interface::poll+0xb32>
 8001c36:	982a      	ldr	r0, [sp, #168]	@ 0xa8
 8001c38:	8880      	ldrh	r0, [r0, #4]
 8001c3a:	ba00      	rev	r0, r0
 8001c3c:	ea4f 4910 	mov.w	r9, r0, lsr #16
 8001c40:	f1b9 0f08 	cmp.w	r9, #8
 8001c44:	bf24      	itt	cs
 8001c46:	982c      	ldrcs	r0, [sp, #176]	@ 0xb0
 8001c48:	4548      	cmpcs	r0, r9
 8001c4a:	f080 813d 	bcs.w	8001ec8 <smoltcp::iface::interface::Interface::poll+0xdac>
 8001c4e:	2004      	movs	r0, #4
 8001c50:	9057      	str	r0, [sp, #348]	@ 0x15c
 8001c52:	f8d7 a008 	ldr.w	sl, [r7, #8]
 8001c56:	f50d 7996 	add.w	r9, sp, #300	@ 0x12c
 8001c5a:	f8dd 810c 	ldr.w	r8, [sp, #268]	@ 0x10c
 8001c5e:	e021      	b.n	8001ca4 <smoltcp::iface::interface::Interface::poll+0xb88>
 8001c60:	9826      	ldr	r0, [sp, #152]	@ 0x98
 8001c62:	462a      	mov	r2, r5
 8001c64:	f8ad 01da 	strh.w	r0, [sp, #474]	@ 0x1da
 8001c68:	9821      	ldr	r0, [sp, #132]	@ 0x84
 8001c6a:	f88d 01d8 	strb.w	r0, [sp, #472]	@ 0x1d8
 8001c6e:	9823      	ldr	r0, [sp, #140]	@ 0x8c
 8001c70:	9b2b      	ldr	r3, [sp, #172]	@ 0xac
 8001c72:	f88d 11d9 	strb.w	r1, [sp, #473]	@ 0x1d9
 8001c76:	9075      	str	r0, [sp, #468]	@ 0x1d4
 8001c78:	f240 2002 	movw	r0, #514	@ 0x202
 8001c7c:	992c      	ldr	r1, [sp, #176]	@ 0xb0
 8001c7e:	f8ad 01c0 	strh.w	r0, [sp, #448]	@ 0x1c0
 8001c82:	982a      	ldr	r0, [sp, #168]	@ 0xa8
 8001c84:	f5b1 7f04 	cmp.w	r1, #528	@ 0x210
 8001c88:	9071      	str	r0, [sp, #452]	@ 0x1c4
 8001c8a:	f44f 7004 	mov.w	r0, #528	@ 0x210
 8001c8e:	e9cd 5373 	strd	r5, r3, [sp, #460]	@ 0x1cc
 8001c92:	bf28      	it	cs
 8001c94:	4601      	movcs	r1, r0
 8001c96:	9172      	str	r1, [sp, #456]	@ 0x1c8
 8001c98:	a870      	add	r0, sp, #448	@ 0x1c0
 8001c9a:	994a      	ldr	r1, [sp, #296]	@ 0x128
 8001c9c:	9000      	str	r0, [sp, #0]
 8001c9e:	a857      	add	r0, sp, #348	@ 0x15c
 8001ca0:	f005 ff05 	bl	8007aae <smoltcp::iface::interface::ipv4::<impl smoltcp::iface::interface::InterfaceInner>::icmpv4_reply>
 8001ca4:	9c57      	ldr	r4, [sp, #348]	@ 0x15c
 8001ca6:	9e2d      	ldr	r6, [sp, #180]	@ 0xb4
 8001ca8:	2c04      	cmp	r4, #4
 8001caa:	d10b      	bne.n	8001cc4 <smoltcp::iface::interface::Interface::poll+0xba8>
 8001cac:	f249 0408 	movw	r4, #36872	@ 0x9008
 8001cb0:	f04f 0c01 	mov.w	ip, #1
 8001cb4:	f2c4 0402 	movt	r4, #16386	@ 0x4002
 8001cb8:	f44f 6ec8 	mov.w	lr, #1600	@ 0x640
 8001cbc:	f8dd b124 	ldr.w	fp, [sp, #292]	@ 0x124
 8001cc0:	f7ff bc5e 	b.w	8001580 <smoltcp::iface::interface::Interface::poll+0x464>
 8001cc4:	9940      	ldr	r1, [sp, #256]	@ 0x100
 8001cc6:	f8dd 016a 	ldr.w	r0, [sp, #362]	@ 0x16a
 8001cca:	901d      	str	r0, [sp, #116]	@ 0x74
 8001ccc:	f89d 016e 	ldrb.w	r0, [sp, #366]	@ 0x16e
 8001cd0:	9045      	str	r0, [sp, #276]	@ 0x114
 8001cd2:	6808      	ldr	r0, [r1, #0]
 8001cd4:	6849      	ldr	r1, [r1, #4]
 8001cd6:	9a41      	ldr	r2, [sp, #260]	@ 0x104
 8001cd8:	f8bd 5160 	ldrh.w	r5, [sp, #352]	@ 0x160
 8001cdc:	e9cd 0154 	strd	r0, r1, [sp, #336]	@ 0x150
 8001ce0:	a8a5      	add	r0, sp, #660	@ 0x294
 8001ce2:	9942      	ldr	r1, [sp, #264]	@ 0x108
 8001ce4:	7913      	ldrb	r3, [r2, #4]
 8001ce6:	6812      	ldr	r2, [r2, #0]
 8001ce8:	921f      	str	r2, [sp, #124]	@ 0x7c
 8001cea:	2248      	movs	r2, #72	@ 0x48
 8001cec:	931e      	str	r3, [sp, #120]	@ 0x78
 8001cee:	9e5d      	ldr	r6, [sp, #372]	@ 0x174
 8001cf0:	f006 fe58 	bl	80089a4 <__aeabi_memcpy4>
 8001cf4:	2c05      	cmp	r4, #5
 8001cf6:	e9cd 651b 	strd	r6, r5, [sp, #108]	@ 0x6c
 8001cfa:	d03c      	beq.n	8001d76 <smoltcp::iface::interface::Interface::poll+0xc5a>
 8001cfc:	9a3b      	ldr	r2, [sp, #236]	@ 0xec
 8001cfe:	e9dd 0154 	ldrd	r0, r1, [sp, #336]	@ 0x150
 8001d02:	f8ad 52fc 	strh.w	r5, [sp, #764]	@ 0x2fc
 8001d06:	6010      	str	r0, [r2, #0]
 8001d08:	983c      	ldr	r0, [sp, #240]	@ 0xf0
 8001d0a:	6051      	str	r1, [r2, #4]
 8001d0c:	2248      	movs	r2, #72	@ 0x48
 8001d0e:	991f      	ldr	r1, [sp, #124]	@ 0x7c
 8001d10:	6001      	str	r1, [r0, #0]
 8001d12:	991e      	ldr	r1, [sp, #120]	@ 0x78
 8001d14:	7101      	strb	r1, [r0, #4]
 8001d16:	a9a5      	add	r1, sp, #660	@ 0x294
 8001d18:	9845      	ldr	r0, [sp, #276]	@ 0x114
 8001d1a:	f88d 030a 	strb.w	r0, [sp, #778]	@ 0x30a
 8001d1e:	981d      	ldr	r0, [sp, #116]	@ 0x74
 8001d20:	f8cd 0306 	str.w	r0, [sp, #774]	@ 0x306
 8001d24:	983d      	ldr	r0, [sp, #244]	@ 0xf4
 8001d26:	94be      	str	r4, [sp, #760]	@ 0x2f8
 8001d28:	96c4      	str	r6, [sp, #784]	@ 0x310
 8001d2a:	f006 fe3b 	bl	80089a4 <__aeabi_memcpy4>
 8001d2e:	984a      	ldr	r0, [sp, #296]	@ 0x128
 8001d30:	a94c      	add	r1, sp, #304	@ 0x130
 8001d32:	abbe      	add	r3, sp, #760	@ 0x2f8
 8001d34:	2200      	movs	r2, #0
 8001d36:	f7fe fb11 	bl	800035c <smoltcp::iface::interface::InterfaceInner::dispatch_ip>
 8001d3a:	b2c4      	uxtb	r4, r0
 8001d3c:	2c02      	cmp	r4, #2
 8001d3e:	d01a      	beq.n	8001d76 <smoltcp::iface::interface::Interface::poll+0xc5a>
 8001d40:	f240 0023 	movw	r0, #35	@ 0x23
 8001d44:	f2c0 0000 	movt	r0, #0
 8001d48:	f002 fb84 	bl	8004454 <defmt::export::acquire_and_header>
 8001d4c:	f240 003e 	movw	r0, #62	@ 0x3e
 8001d50:	aebe      	add	r6, sp, #760	@ 0x2f8
 8001d52:	f2c0 0000 	movt	r0, #0
 8001d56:	2102      	movs	r1, #2
 8001d58:	f8ad 02f8 	strh.w	r0, [sp, #760]	@ 0x2f8
 8001d5c:	4630      	mov	r0, r6
 8001d5e:	f002 fd2b 	bl	80047b8 <_defmt_write>
 8001d62:	f004 0001 	and.w	r0, r4, #1
 8001d66:	f88d 02f8 	strb.w	r0, [sp, #760]	@ 0x2f8
 8001d6a:	4630      	mov	r0, r6
 8001d6c:	2101      	movs	r1, #1
 8001d6e:	f002 fd23 	bl	80047b8 <_defmt_write>
 8001d72:	f002 fca9 	bl	80046c8 <_defmt_release>
 8001d76:	f249 0408 	movw	r4, #36872	@ 0x9008
 8001d7a:	f04f 0c01 	mov.w	ip, #1
 8001d7e:	f2c4 0402 	movt	r4, #16386	@ 0x4002
 8001d82:	f44f 6ec8 	mov.w	lr, #1600	@ 0x640
 8001d86:	9e2d      	ldr	r6, [sp, #180]	@ 0xb4
 8001d88:	f8dd b124 	ldr.w	fp, [sp, #292]	@ 0x124
 8001d8c:	f7ff bbf8 	b.w	8001580 <smoltcp::iface::interface::Interface::poll+0x464>
 8001d90:	f1be 0f00 	cmp.w	lr, #0
 8001d94:	d023      	beq.n	8001dde <smoltcp::iface::interface::Interface::poll+0xcc2>
 8001d96:	9944      	ldr	r1, [sp, #272]	@ 0x110
 8001d98:	eb0e 008e 	add.w	r0, lr, lr, lsl #2
 8001d9c:	4408      	add	r0, r1
 8001d9e:	e00e      	b.n	8001dbe <smoltcp::iface::interface::Interface::poll+0xca2>
 8001da0:	2600      	movs	r6, #0
 8001da2:	f002 021f 	and.w	r2, r2, #31
 8001da6:	4033      	ands	r3, r6
 8001da8:	fa24 f202 	lsr.w	r2, r4, r2
 8001dac:	ba12      	rev	r2, r2
 8001dae:	431a      	orrs	r2, r3
 8001db0:	9b2b      	ldr	r3, [sp, #172]	@ 0xac
 8001db2:	4293      	cmp	r3, r2
 8001db4:	f43f ae80 	beq.w	8001ab8 <smoltcp::iface::interface::Interface::poll+0x99c>
 8001db8:	3105      	adds	r1, #5
 8001dba:	4281      	cmp	r1, r0
 8001dbc:	d00f      	beq.n	8001dde <smoltcp::iface::interface::Interface::poll+0xcc2>
 8001dbe:	790a      	ldrb	r2, [r1, #4]
 8001dc0:	680b      	ldr	r3, [r1, #0]
 8001dc2:	2a00      	cmp	r2, #0
 8001dc4:	d0ec      	beq.n	8001da0 <smoltcp::iface::interface::Interface::poll+0xc84>
 8001dc6:	f1a2 061f 	sub.w	r6, r2, #31
 8001dca:	b2f6      	uxtb	r6, r6
 8001dcc:	2e02      	cmp	r6, #2
 8001dce:	d3f3      	bcc.n	8001db8 <smoltcp::iface::interface::Interface::poll+0xc9c>
 8001dd0:	4256      	negs	r6, r2
 8001dd2:	f006 061f 	and.w	r6, r6, #31
 8001dd6:	fa04 f606 	lsl.w	r6, r4, r6
 8001dda:	ba36      	rev	r6, r6
 8001ddc:	e7e1      	b.n	8001da2 <smoltcp::iface::interface::Interface::poll+0xc86>
 8001dde:	984a      	ldr	r0, [sp, #296]	@ 0x128
 8001de0:	2200      	movs	r2, #0
 8001de2:	e9d0 1c04 	ldrd	r1, ip, [r0, #16]
 8001de6:	f8d0 00e0 	ldr.w	r0, [r0, #224]	@ 0xe0
 8001dea:	eba0 0080 	sub.w	r0, r0, r0, lsl #2
 8001dee:	00c3      	lsls	r3, r0, #3
 8001df0:	1898      	adds	r0, r3, r2
 8001df2:	f43f ae61 	beq.w	8001ab8 <smoltcp::iface::interface::Interface::poll+0x99c>
 8001df6:	9e4a      	ldr	r6, [sp, #296]	@ 0x128
 8001df8:	4416      	add	r6, r2
 8001dfa:	6a34      	ldr	r4, [r6, #32]
 8001dfc:	42ac      	cmp	r4, r5
 8001dfe:	f000 814c 	beq.w	800209a <smoltcp::iface::interface::Interface::poll+0xf7e>
 8001e02:	f110 0418 	adds.w	r4, r0, #24
 8001e06:	f43f ae57 	beq.w	8001ab8 <smoltcp::iface::interface::Interface::poll+0x99c>
 8001e0a:	6bb4      	ldr	r4, [r6, #56]	@ 0x38
 8001e0c:	42ac      	cmp	r4, r5
 8001e0e:	f000 8147 	beq.w	80020a0 <smoltcp::iface::interface::Interface::poll+0xf84>
 8001e12:	f110 0430 	adds.w	r4, r0, #48	@ 0x30
 8001e16:	f43f ae4f 	beq.w	8001ab8 <smoltcp::iface::interface::Interface::poll+0x99c>
 8001e1a:	6d34      	ldr	r4, [r6, #80]	@ 0x50
 8001e1c:	42ac      	cmp	r4, r5
 8001e1e:	f000 8142 	beq.w	80020a6 <smoltcp::iface::interface::Interface::poll+0xf8a>
 8001e22:	3048      	adds	r0, #72	@ 0x48
 8001e24:	f43f ae48 	beq.w	8001ab8 <smoltcp::iface::interface::Interface::poll+0x99c>
 8001e28:	6eb0      	ldr	r0, [r6, #104]	@ 0x68
 8001e2a:	3260      	adds	r2, #96	@ 0x60
 8001e2c:	42a8      	cmp	r0, r5
 8001e2e:	d1df      	bne.n	8001df0 <smoltcp::iface::interface::Interface::poll+0xcd4>
 8001e30:	984a      	ldr	r0, [sp, #296]	@ 0x128
 8001e32:	4410      	add	r0, r2
 8001e34:	3008      	adds	r0, #8
 8001e36:	e138      	b.n	80020aa <smoltcp::iface::interface::Interface::poll+0xf8e>
 8001e38:	f1bc 0f02 	cmp.w	ip, #2
 8001e3c:	f4ff ae1a 	bcc.w	8001a74 <smoltcp::iface::interface::Interface::poll+0x958>
 8001e40:	984a      	ldr	r0, [sp, #296]	@ 0x128
 8001e42:	9a2b      	ldr	r2, [sp, #172]	@ 0xac
 8001e44:	e9d0 0104 	ldrd	r0, r1, [r0, #16]
 8001e48:	e9cd 0100 	strd	r0, r1, [sp]
 8001e4c:	a8be      	add	r0, sp, #760	@ 0x2f8
 8001e4e:	9935      	ldr	r1, [sp, #212]	@ 0xd4
 8001e50:	f006 fae7 	bl	8008422 <smoltcp::iface::route::Routes::lookup>
 8001e54:	f89d 02f8 	ldrb.w	r0, [sp, #760]	@ 0x2f8
 8001e58:	2801      	cmp	r0, #1
 8001e5a:	f47f ae0b 	bne.w	8001a74 <smoltcp::iface::interface::Interface::poll+0x958>
 8001e5e:	984a      	ldr	r0, [sp, #296]	@ 0x128
 8001e60:	9e44      	ldr	r6, [sp, #272]	@ 0x110
 8001e62:	f8dd 12f9 	ldr.w	r1, [sp, #761]	@ 0x2f9
 8001e66:	f8d0 e0f0 	ldr.w	lr, [r0, #240]	@ 0xf0
 8001e6a:	eb0e 028e 	add.w	r2, lr, lr, lsl #2
 8001e6e:	18b3      	adds	r3, r6, r2
 8001e70:	2a00      	cmp	r2, #0
 8001e72:	f43f adff 	beq.w	8001a74 <smoltcp::iface::interface::Interface::poll+0x958>
 8001e76:	4630      	mov	r0, r6
 8001e78:	f850 4b05 	ldr.w	r4, [r0], #5
 8001e7c:	428c      	cmp	r4, r1
 8001e7e:	d01a      	beq.n	8001eb6 <smoltcp::iface::interface::Interface::poll+0xd9a>
 8001e80:	4298      	cmp	r0, r3
 8001e82:	f43f adf7 	beq.w	8001a74 <smoltcp::iface::interface::Interface::poll+0x958>
 8001e86:	f8d6 0005 	ldr.w	r0, [r6, #5]
 8001e8a:	4288      	cmp	r0, r1
 8001e8c:	d013      	beq.n	8001eb6 <smoltcp::iface::interface::Interface::poll+0xd9a>
 8001e8e:	f106 000a 	add.w	r0, r6, #10
 8001e92:	4298      	cmp	r0, r3
 8001e94:	f43f adee 	beq.w	8001a74 <smoltcp::iface::interface::Interface::poll+0x958>
 8001e98:	f8d6 000a 	ldr.w	r0, [r6, #10]
 8001e9c:	4288      	cmp	r0, r1
 8001e9e:	d00a      	beq.n	8001eb6 <smoltcp::iface::interface::Interface::poll+0xd9a>
 8001ea0:	f106 000f 	add.w	r0, r6, #15
 8001ea4:	4298      	cmp	r0, r3
 8001ea6:	f43f ade5 	beq.w	8001a74 <smoltcp::iface::interface::Interface::poll+0x958>
 8001eaa:	f8d6 000f 	ldr.w	r0, [r6, #15]
 8001eae:	3a14      	subs	r2, #20
 8001eb0:	3614      	adds	r6, #20
 8001eb2:	4288      	cmp	r0, r1
 8001eb4:	d1dc      	bne.n	8001e70 <smoltcp::iface::interface::Interface::poll+0xd54>
 8001eb6:	f8d7 a008 	ldr.w	sl, [r7, #8]
 8001eba:	f50d 7996 	add.w	r9, sp, #300	@ 0x12c
 8001ebe:	f8dd 810c 	ldr.w	r8, [sp, #268]	@ 0x10c
 8001ec2:	f04f 34ff 	mov.w	r4, #4294967295	@ 0xffffffff
 8001ec6:	e5ec      	b.n	8001aa2 <smoltcp::iface::interface::Interface::poll+0x986>
 8001ec8:	982a      	ldr	r0, [sp, #168]	@ 0xa8
 8001eca:	8846      	ldrh	r6, [r0, #2]
 8001ecc:	2e00      	cmp	r6, #0
 8001ece:	f43f aebe 	beq.w	8001c4e <smoltcp::iface::interface::Interface::poll+0xb32>
 8001ed2:	984a      	ldr	r0, [sp, #296]	@ 0x128
 8001ed4:	7a40      	ldrb	r0, [r0, #9]
 8001ed6:	2801      	cmp	r0, #1
 8001ed8:	d837      	bhi.n	8001f4a <smoltcp::iface::interface::Interface::poll+0xe2e>
 8001eda:	982a      	ldr	r0, [sp, #168]	@ 0xa8
 8001edc:	88c0      	ldrh	r0, [r0, #6]
 8001ede:	b3a0      	cbz	r0, 8001f4a <smoltcp::iface::interface::Interface::poll+0xe2e>
 8001ee0:	982b      	ldr	r0, [sp, #172]	@ 0xac
 8001ee2:	ba00      	rev	r0, r0
 8001ee4:	0c01      	lsrs	r1, r0, #16
 8001ee6:	fa11 f080 	uxtah	r0, r1, r0
 8001eea:	0c01      	lsrs	r1, r0, #16
 8001eec:	fa11 f080 	uxtah	r0, r1, r0
 8001ef0:	f109 0111 	add.w	r1, r9, #17
 8001ef4:	eb00 4010 	add.w	r0, r0, r0, lsr #16
 8001ef8:	0c0a      	lsrs	r2, r1, #16
 8001efa:	fa12 f181 	uxtah	r1, r2, r1
 8001efe:	b280      	uxth	r0, r0
 8001f00:	eb01 4111 	add.w	r1, r1, r1, lsr #16
 8001f04:	fa10 f081 	uxtah	r0, r0, r1
 8001f08:	9925      	ldr	r1, [sp, #148]	@ 0x94
 8001f0a:	ba09      	rev	r1, r1
 8001f0c:	0c0a      	lsrs	r2, r1, #16
 8001f0e:	fa12 f181 	uxtah	r1, r2, r1
 8001f12:	0c0a      	lsrs	r2, r1, #16
 8001f14:	fa12 f181 	uxtah	r1, r2, r1
 8001f18:	eb01 4111 	add.w	r1, r1, r1, lsr #16
 8001f1c:	fa10 f081 	uxtah	r0, r0, r1
 8001f20:	0c01      	lsrs	r1, r0, #16
 8001f22:	fa11 f080 	uxtah	r0, r1, r0
 8001f26:	4649      	mov	r1, r9
 8001f28:	eb00 4010 	add.w	r0, r0, r0, lsr #16
 8001f2c:	b284      	uxth	r4, r0
 8001f2e:	982a      	ldr	r0, [sp, #168]	@ 0xa8
 8001f30:	f006 f911 	bl	8008156 <smoltcp::wire::ip::checksum::data>
 8001f34:	fa14 f080 	uxtah	r0, r4, r0
 8001f38:	0c01      	lsrs	r1, r0, #16
 8001f3a:	fa11 f080 	uxtah	r0, r1, r0
 8001f3e:	eb00 4010 	add.w	r0, r0, r0, lsr #16
 8001f42:	43c0      	mvns	r0, r0
 8001f44:	0400      	lsls	r0, r0, #16
 8001f46:	f47f ae82 	bne.w	8001c4e <smoltcp::iface::interface::Interface::poll+0xb32>
 8001f4a:	e9dd 252f 	ldrd	r2, r5, [sp, #188]	@ 0xbc
 8001f4e:	f44f 71a8 	mov.w	r1, #336	@ 0x150
 8001f52:	982a      	ldr	r0, [sp, #168]	@ 0xa8
 8001f54:	fa96 fa96 	rev16.w	sl, r6
 8001f58:	fb02 5401 	mla	r4, r2, r1, r5
 8001f5c:	8800      	ldrh	r0, [r0, #0]
 8001f5e:	ba00      	rev	r0, r0
 8001f60:	ea4f 4810 	mov.w	r8, r0, lsr #16
 8001f64:	e00c      	b.n	8001f80 <smoltcp::iface::interface::Interface::poll+0xe64>
 8001f66:	4605      	mov	r5, r0
 8001f68:	4608      	mov	r0, r1
 8001f6a:	f100 0608 	add.w	r6, r0, #8
 8001f6e:	994a      	ldr	r1, [sp, #296]	@ 0x128
 8001f70:	9a2b      	ldr	r2, [sp, #172]	@ 0xac
 8001f72:	4653      	mov	r3, sl
 8001f74:	4630      	mov	r0, r6
 8001f76:	f005 ffe6 	bl	8007f46 <smoltcp::socket::udp::Socket::accepts>
 8001f7a:	2800      	cmp	r0, #0
 8001f7c:	f040 80b0 	bne.w	80020e0 <smoltcp::iface::interface::Interface::poll+0xfc4>
 8001f80:	42a5      	cmp	r5, r4
 8001f82:	d066      	beq.n	8002052 <smoltcp::iface::interface::Interface::poll+0xf36>
 8001f84:	e9d5 0200 	ldrd	r0, r2, [r5]
 8001f88:	4629      	mov	r1, r5
 8001f8a:	f080 0002 	eor.w	r0, r0, #2
 8001f8e:	4310      	orrs	r0, r2
 8001f90:	f505 70a8 	add.w	r0, r5, #336	@ 0x150
 8001f94:	d0e7      	beq.n	8001f66 <smoltcp::iface::interface::Interface::poll+0xe4a>
 8001f96:	42a0      	cmp	r0, r4
 8001f98:	d05b      	beq.n	8002052 <smoltcp::iface::interface::Interface::poll+0xf36>
 8001f9a:	e9d1 2354 	ldrd	r2, r3, [r1, #336]	@ 0x150
 8001f9e:	f082 0202 	eor.w	r2, r2, #2
 8001fa2:	431a      	orrs	r2, r3
 8001fa4:	f501 7228 	add.w	r2, r1, #672	@ 0x2a0
 8001fa8:	d101      	bne.n	8001fae <smoltcp::iface::interface::Interface::poll+0xe92>
 8001faa:	4615      	mov	r5, r2
 8001fac:	e7dd      	b.n	8001f6a <smoltcp::iface::interface::Interface::poll+0xe4e>
 8001fae:	42a2      	cmp	r2, r4
 8001fb0:	d04f      	beq.n	8002052 <smoltcp::iface::interface::Interface::poll+0xf36>
 8001fb2:	e9d1 03a8 	ldrd	r0, r3, [r1, #672]	@ 0x2a0
 8001fb6:	f080 0002 	eor.w	r0, r0, #2
 8001fba:	4318      	orrs	r0, r3
 8001fbc:	f501 707c 	add.w	r0, r1, #1008	@ 0x3f0
 8001fc0:	d102      	bne.n	8001fc8 <smoltcp::iface::interface::Interface::poll+0xeac>
 8001fc2:	4605      	mov	r5, r0
 8001fc4:	4610      	mov	r0, r2
 8001fc6:	e7d0      	b.n	8001f6a <smoltcp::iface::interface::Interface::poll+0xe4e>
 8001fc8:	42a0      	cmp	r0, r4
 8001fca:	d042      	beq.n	8002052 <smoltcp::iface::interface::Interface::poll+0xf36>
 8001fcc:	e9d1 23fc 	ldrd	r2, r3, [r1, #1008]	@ 0x3f0
 8001fd0:	f501 65a8 	add.w	r5, r1, #1344	@ 0x540
 8001fd4:	f082 0202 	eor.w	r2, r2, #2
 8001fd8:	431a      	orrs	r2, r3
 8001fda:	d1d1      	bne.n	8001f80 <smoltcp::iface::interface::Interface::poll+0xe64>
 8001fdc:	e7c5      	b.n	8001f6a <smoltcp::iface::interface::Interface::poll+0xe4e>
 8001fde:	982a      	ldr	r0, [sp, #168]	@ 0xa8
 8001fe0:	7840      	ldrb	r0, [r0, #1]
 8001fe2:	2800      	cmp	r0, #0
 8001fe4:	f47f ae33 	bne.w	8001c4e <smoltcp::iface::interface::Interface::poll+0xb32>
 8001fe8:	9a2a      	ldr	r2, [sp, #168]	@ 0xa8
 8001fea:	2104      	movs	r1, #4
 8001fec:	9157      	str	r1, [sp, #348]	@ 0x15c
 8001fee:	88d0      	ldrh	r0, [r2, #6]
 8001ff0:	8891      	ldrh	r1, [r2, #4]
 8001ff2:	ba00      	rev	r0, r0
 8001ff4:	9a1a      	ldr	r2, [sp, #104]	@ 0x68
 8001ff6:	eac2 4220 	pkhtb	r2, r2, r0, asr #16
 8001ffa:	ba08      	rev	r0, r1
 8001ffc:	921a      	str	r2, [sp, #104]	@ 0x68
 8001ffe:	0c00      	lsrs	r0, r0, #16
 8002000:	9017      	str	r0, [sp, #92]	@ 0x5c
 8002002:	e626      	b.n	8001c52 <smoltcp::iface::interface::Interface::poll+0xb36>
 8002004:	982a      	ldr	r0, [sp, #168]	@ 0xa8
 8002006:	7840      	ldrb	r0, [r0, #1]
 8002008:	2800      	cmp	r0, #0
 800200a:	f47f ae20 	bne.w	8001c4e <smoltcp::iface::interface::Interface::poll+0xb32>
 800200e:	982c      	ldr	r0, [sp, #176]	@ 0xb0
 8002010:	2101      	movs	r1, #1
 8002012:	9a2a      	ldr	r2, [sp, #168]	@ 0xa8
 8002014:	3808      	subs	r0, #8
 8002016:	90c1      	str	r0, [sp, #772]	@ 0x304
 8002018:	9829      	ldr	r0, [sp, #164]	@ 0xa4
 800201a:	9b2b      	ldr	r3, [sp, #172]	@ 0xac
 800201c:	3008      	adds	r0, #8
 800201e:	90c0      	str	r0, [sp, #768]	@ 0x300
 8002020:	88d0      	ldrh	r0, [r2, #6]
 8002022:	f88d 12f8 	strb.w	r1, [sp, #760]	@ 0x2f8
 8002026:	ba04      	rev	r4, r0
 8002028:	8891      	ldrh	r1, [r2, #4]
 800202a:	9a25      	ldr	r2, [sp, #148]	@ 0x94
 800202c:	0c20      	lsrs	r0, r4, #16
 800202e:	f8ad 02fc 	strh.w	r0, [sp, #764]	@ 0x2fc
 8002032:	ba08      	rev	r0, r1
 8002034:	994a      	ldr	r1, [sp, #296]	@ 0x128
 8002036:	0c00      	lsrs	r0, r0, #16
 8002038:	9017      	str	r0, [sp, #92]	@ 0x5c
 800203a:	f8ad 02fa 	strh.w	r0, [sp, #762]	@ 0x2fa
 800203e:	a8be      	add	r0, sp, #760	@ 0x2f8
 8002040:	9000      	str	r0, [sp, #0]
 8002042:	a857      	add	r0, sp, #348	@ 0x15c
 8002044:	f005 fd33 	bl	8007aae <smoltcp::iface::interface::ipv4::<impl smoltcp::iface::interface::InterfaceInner>::icmpv4_reply>
 8002048:	981a      	ldr	r0, [sp, #104]	@ 0x68
 800204a:	eac0 4024 	pkhtb	r0, r0, r4, asr #16
 800204e:	901a      	str	r0, [sp, #104]	@ 0x68
 8002050:	e5ff      	b.n	8001c52 <smoltcp::iface::interface::Interface::poll+0xb36>
 8002052:	9826      	ldr	r0, [sp, #152]	@ 0x98
 8002054:	f8ad 0312 	strh.w	r0, [sp, #786]	@ 0x312
 8002058:	2004      	movs	r0, #4
 800205a:	f88d 0311 	strb.w	r0, [sp, #785]	@ 0x311
 800205e:	9821      	ldr	r0, [sp, #132]	@ 0x84
 8002060:	f88d 0310 	strb.w	r0, [sp, #784]	@ 0x310
 8002064:	9823      	ldr	r0, [sp, #140]	@ 0x8c
 8002066:	90c3      	str	r0, [sp, #780]	@ 0x30c
 8002068:	f240 3002 	movw	r0, #770	@ 0x302
 800206c:	992c      	ldr	r1, [sp, #176]	@ 0xb0
 800206e:	9b2b      	ldr	r3, [sp, #172]	@ 0xac
 8002070:	9a25      	ldr	r2, [sp, #148]	@ 0x94
 8002072:	f5b1 7f04 	cmp.w	r1, #528	@ 0x210
 8002076:	f8ad 02f8 	strh.w	r0, [sp, #760]	@ 0x2f8
 800207a:	982a      	ldr	r0, [sp, #168]	@ 0xa8
 800207c:	90bf      	str	r0, [sp, #764]	@ 0x2fc
 800207e:	f44f 7004 	mov.w	r0, #528	@ 0x210
 8002082:	93c2      	str	r3, [sp, #776]	@ 0x308
 8002084:	92c1      	str	r2, [sp, #772]	@ 0x304
 8002086:	bf28      	it	cs
 8002088:	4601      	movcs	r1, r0
 800208a:	91c0      	str	r1, [sp, #768]	@ 0x300
 800208c:	a8be      	add	r0, sp, #760	@ 0x2f8
 800208e:	994a      	ldr	r1, [sp, #296]	@ 0x128
 8002090:	9000      	str	r0, [sp, #0]
 8002092:	a857      	add	r0, sp, #348	@ 0x15c
 8002094:	f005 fd0b 	bl	8007aae <smoltcp::iface::interface::ipv4::<impl smoltcp::iface::interface::InterfaceInner>::icmpv4_reply>
 8002098:	e5db      	b.n	8001c52 <smoltcp::iface::interface::Interface::poll+0xb36>
 800209a:	f106 0020 	add.w	r0, r6, #32
 800209e:	e004      	b.n	80020aa <smoltcp::iface::interface::Interface::poll+0xf8e>
 80020a0:	f106 0038 	add.w	r0, r6, #56	@ 0x38
 80020a4:	e001      	b.n	80020aa <smoltcp::iface::interface::Interface::poll+0xf8e>
 80020a6:	f106 0050 	add.w	r0, r6, #80	@ 0x50
 80020aa:	9e27      	ldr	r6, [sp, #156]	@ 0x9c
 80020ac:	f50d 7996 	add.w	r9, sp, #300	@ 0x12c
 80020b0:	8a82      	ldrh	r2, [r0, #20]
 80020b2:	6903      	ldr	r3, [r0, #16]
 80020b4:	b2b6      	uxth	r6, r6
 80020b6:	4072      	eors	r2, r6
 80020b8:	9e28      	ldr	r6, [sp, #160]	@ 0xa0
 80020ba:	f8d7 a008 	ldr.w	sl, [r7, #8]
 80020be:	f8dd 810c 	ldr.w	r8, [sp, #268]	@ 0x10c
 80020c2:	4073      	eors	r3, r6
 80020c4:	9d25      	ldr	r5, [sp, #148]	@ 0x94
 80020c6:	431a      	orrs	r2, r3
 80020c8:	f47f acf6 	bne.w	8001ab8 <smoltcp::iface::interface::Interface::poll+0x99c>
 80020cc:	f248 7200 	movw	r2, #34560	@ 0x8700
 80020d0:	f2c0 3293 	movt	r2, #915	@ 0x393
 80020d4:	1889      	adds	r1, r1, r2
 80020d6:	f14c 0200 	adc.w	r2, ip, #0
 80020da:	e9c0 1202 	strd	r1, r2, [r0, #8]
 80020de:	e4eb      	b.n	8001ab8 <smoltcp::iface::interface::Interface::poll+0x99c>
 80020e0:	9929      	ldr	r1, [sp, #164]	@ 0xa4
 80020e2:	f1a9 0008 	sub.w	r0, r9, #8
 80020e6:	9a25      	ldr	r2, [sp, #148]	@ 0x94
 80020e8:	3108      	adds	r1, #8
 80020ea:	9b2b      	ldr	r3, [sp, #172]	@ 0xac
 80020ec:	9002      	str	r0, [sp, #8]
 80020ee:	4630      	mov	r0, r6
 80020f0:	e9cd 8100 	strd	r8, r1, [sp]
 80020f4:	992e      	ldr	r1, [sp, #184]	@ 0xb8
 80020f6:	f005 ff6f 	bl	8007fd8 <smoltcp::socket::udp::Socket::process>
 80020fa:	e5a8      	b.n	8001c4e <smoltcp::iface::interface::Interface::poll+0xb32>
 80020fc:	f416 6fa0 	tst.w	r6, #1280	@ 0x500
 8002100:	f47f ada5 	bne.w	8001c4e <smoltcp::iface::interface::Interface::poll+0xb32>
 8002104:	2002      	movs	r0, #2
 8002106:	e003      	b.n	8002110 <smoltcp::iface::interface::Interface::poll+0xff4>
 8002108:	0570      	lsls	r0, r6, #21
 800210a:	f53f ada0 	bmi.w	8001c4e <smoltcp::iface::interface::Interface::poll+0xb32>
 800210e:	2003      	movs	r0, #3
 8002110:	9016      	str	r0, [sp, #88]	@ 0x58
 8002112:	04f0      	lsls	r0, r6, #19
 8002114:	902e      	str	r0, [sp, #184]	@ 0xb8
 8002116:	d402      	bmi.n	800211e <smoltcp::iface::interface::Interface::poll+0x1002>
 8002118:	2000      	movs	r0, #0
 800211a:	9015      	str	r0, [sp, #84]	@ 0x54
 800211c:	e005      	b.n	800212a <smoltcp::iface::interface::Interface::poll+0x100e>
 800211e:	982a      	ldr	r0, [sp, #168]	@ 0xa8
 8002120:	6880      	ldr	r0, [r0, #8]
 8002122:	ba00      	rev	r0, r0
 8002124:	9006      	str	r0, [sp, #24]
 8002126:	2001      	movs	r0, #1
 8002128:	9015      	str	r0, [sp, #84]	@ 0x54
 800212a:	3d14      	subs	r5, #20
 800212c:	f000 81a5 	beq.w	800247a <smoltcp::iface::interface::Interface::poll+0x135e>
 8002130:	9829      	ldr	r0, [sp, #164]	@ 0xa4
 8002132:	f04f 0900 	mov.w	r9, #0
 8002136:	f04f 0a00 	mov.w	sl, #0
 800213a:	f100 0814 	add.w	r8, r0, #20
 800213e:	2000      	movs	r0, #0
 8002140:	9019      	str	r0, [sp, #100]	@ 0x64
 8002142:	2000      	movs	r0, #0
 8002144:	9022      	str	r0, [sp, #136]	@ 0x88
 8002146:	2000      	movs	r0, #0
 8002148:	9024      	str	r0, [sp, #144]	@ 0x90
 800214a:	9018      	str	r0, [sp, #96]	@ 0x60
 800214c:	e9cd 0027 	strd	r0, r0, [sp, #156]	@ 0x9c
 8002150:	e002      	b.n	8002158 <smoltcp::iface::interface::Interface::poll+0x103c>
 8002152:	2d00      	cmp	r5, #0
 8002154:	f000 81a0 	beq.w	8002498 <smoltcp::iface::interface::Interface::poll+0x137c>
 8002158:	f898 0000 	ldrb.w	r0, [r8]
 800215c:	b150      	cbz	r0, 8002174 <smoltcp::iface::interface::Interface::poll+0x1058>
 800215e:	2801      	cmp	r0, #1
 8002160:	d134      	bne.n	80021cc <smoltcp::iface::interface::Interface::poll+0x10b0>
 8002162:	f04f 0b01 	mov.w	fp, #1
 8002166:	2103      	movs	r1, #3
 8002168:	2000      	movs	r0, #0
 800216a:	2200      	movs	r2, #0
 800216c:	f04f 0c00 	mov.w	ip, #0
 8002170:	2300      	movs	r3, #0
 8002172:	e005      	b.n	8002180 <smoltcp::iface::interface::Interface::poll+0x1064>
 8002174:	f04f 0b01 	mov.w	fp, #1
 8002178:	2102      	movs	r1, #2
 800217a:	4602      	mov	r2, r0
 800217c:	4684      	mov	ip, r0
 800217e:	4603      	mov	r3, r0
 8002180:	455d      	cmp	r5, fp
 8002182:	f0c1 8178 	bcc.w	8003476 <smoltcp::iface::interface::Interface::poll+0x235a>
 8002186:	290a      	cmp	r1, #10
 8002188:	f43f ad61 	beq.w	8001c4e <smoltcp::iface::interface::Interface::poll+0xb32>
 800218c:	021b      	lsls	r3, r3, #8
 800218e:	2901      	cmp	r1, #1
 8002190:	b29b      	uxth	r3, r3
 8002192:	ea42 0203 	orr.w	r2, r2, r3
 8002196:	f04f 0305 	mov.w	r3, #5
 800219a:	44d8      	add	r8, fp
 800219c:	bf88      	it	hi
 800219e:	1e8b      	subhi	r3, r1, #2
 80021a0:	eba5 050b 	sub.w	r5, r5, fp
 80021a4:	ea42 020c 	orr.w	r2, r2, ip
 80021a8:	e8df f013 	tbh	[pc, r3, lsl #1]
 80021ac:	000b0176 	.word	0x000b0176
 80021b0:	004b000c 	.word	0x004b000c
 80021b4:	00d90008 	.word	0x00d90008
 80021b8:	000b00eb 	.word	0x000b00eb
 80021bc:	2001      	movs	r0, #1
 80021be:	9019      	str	r0, [sp, #100]	@ 0x64
 80021c0:	e7c7      	b.n	8002152 <smoltcp::iface::interface::Interface::poll+0x1036>
 80021c2:	e7c6      	b.n	8002152 <smoltcp::iface::interface::Interface::poll+0x1036>
 80021c4:	2001      	movs	r0, #1
 80021c6:	920c      	str	r2, [sp, #48]	@ 0x30
 80021c8:	9022      	str	r0, [sp, #136]	@ 0x88
 80021ca:	e7c2      	b.n	8002152 <smoltcp::iface::interface::Interface::poll+0x1036>
 80021cc:	2d01      	cmp	r5, #1
 80021ce:	f43f ad3e 	beq.w	8001c4e <smoltcp::iface::interface::Interface::poll+0xb32>
 80021d2:	f898 2001 	ldrb.w	r2, [r8, #1]
 80021d6:	2100      	movs	r1, #0
 80021d8:	2300      	movs	r3, #0
 80021da:	f108 0602 	add.w	r6, r8, #2
 80021de:	fa5f fb82 	uxtb.w	fp, r2
 80021e2:	455d      	cmp	r5, fp
 80021e4:	bf38      	it	cc
 80021e6:	2101      	movcc	r1, #1
 80021e8:	f1bb 0f02 	cmp.w	fp, #2
 80021ec:	bf38      	it	cc
 80021ee:	2301      	movcc	r3, #1
 80021f0:	4319      	orrs	r1, r3
 80021f2:	4631      	mov	r1, r6
 80021f4:	bf18      	it	ne
 80021f6:	2100      	movne	r1, #0
 80021f8:	f47f ad29 	bne.w	8001c4e <smoltcp::iface::interface::Interface::poll+0xb32>
 80021fc:	f06f 0301 	mvn.w	r3, #1
 8002200:	fa53 f482 	uxtab	r4, r3, r2
 8002204:	1e82      	subs	r2, r0, #2
 8002206:	2a06      	cmp	r2, #6
 8002208:	f200 812e 	bhi.w	8002468 <smoltcp::iface::interface::Interface::poll+0x134c>
 800220c:	e8df f012 	tbh	[pc, r2, lsl #1]
 8002210:	00c20007 	.word	0x00c20007
 8002214:	00d600ce 	.word	0x00d600ce
 8002218:	012c012c 	.word	0x012c012c
 800221c:	0111      	.short	0x0111
 800221e:	f1bb 0f04 	cmp.w	fp, #4
 8002222:	f47f ad14 	bne.w	8001c4e <smoltcp::iface::interface::Interface::poll+0xb32>
 8002226:	2c01      	cmp	r4, #1
 8002228:	f241 8147 	bls.w	80034ba <smoltcp::iface::interface::Interface::poll+0x239e>
 800222c:	8830      	ldrh	r0, [r6, #0]
 800222e:	2104      	movs	r1, #4
 8002230:	2200      	movs	r2, #0
 8002232:	f04f 0b04 	mov.w	fp, #4
 8002236:	ba00      	rev	r0, r0
 8002238:	0e03      	lsrs	r3, r0, #24
 800223a:	f3c0 4c07 	ubfx	ip, r0, #16, #8
 800223e:	2000      	movs	r0, #0
 8002240:	e79e      	b.n	8002180 <smoltcp::iface::interface::Interface::poll+0x1064>
 8002242:	f1bc 0f0e 	cmp.w	ip, #14
 8002246:	f240 80a1 	bls.w	800238c <smoltcp::iface::interface::Interface::poll+0x1270>
 800224a:	982a      	ldr	r0, [sp, #168]	@ 0xa8
 800224c:	8841      	ldrh	r1, [r0, #2]
 800224e:	8800      	ldrh	r0, [r0, #0]
 8002250:	9004      	str	r0, [sp, #16]
 8002252:	f240 000a 	movw	r0, #10
 8002256:	f2c0 0000 	movt	r0, #0
 800225a:	9105      	str	r1, [sp, #20]
 800225c:	f002 f8fa 	bl	8004454 <defmt::export::acquire_and_header>
 8002260:	ae8c      	add	r6, sp, #560	@ 0x230
 8002262:	f240 0907 	movw	r9, #7
 8002266:	f2c0 0900 	movt	r9, #0
 800226a:	2102      	movs	r1, #2
 800226c:	4630      	mov	r0, r6
 800226e:	f8ad 9230 	strh.w	r9, [sp, #560]	@ 0x230
 8002272:	f002 faa1 	bl	80047b8 <_defmt_write>
 8002276:	acda      	add	r4, sp, #872	@ 0x368
 8002278:	f240 0a3f 	movw	sl, #63	@ 0x3f
 800227c:	9825      	ldr	r0, [sp, #148]	@ 0x94
 800227e:	f2c0 0a00 	movt	sl, #0
 8002282:	908c      	str	r0, [sp, #560]	@ 0x230
 8002284:	4620      	mov	r0, r4
 8002286:	2102      	movs	r1, #2
 8002288:	f8ad a368 	strh.w	sl, [sp, #872]	@ 0x368
 800228c:	f002 fa94 	bl	80047b8 <_defmt_write>
 8002290:	4620      	mov	r0, r4
 8002292:	2102      	movs	r1, #2
 8002294:	f8ad 9368 	strh.w	r9, [sp, #872]	@ 0x368
 8002298:	f002 fa8e 	bl	80047b8 <_defmt_write>
 800229c:	4630      	mov	r0, r6
 800229e:	f002 f887 	bl	80043b0 <defmt::impls::core_::net::<impl defmt::traits::Format for core::net::ip_addr::Ipv4Addr>::format>
 80022a2:	f04f 0b00 	mov.w	fp, #0
 80022a6:	4620      	mov	r0, r4
 80022a8:	2102      	movs	r1, #2
 80022aa:	f8ad b368 	strh.w	fp, [sp, #872]	@ 0x368
 80022ae:	f002 fa83 	bl	80047b8 <_defmt_write>
 80022b2:	4630      	mov	r0, r6
 80022b4:	2102      	movs	r1, #2
 80022b6:	f8ad b230 	strh.w	fp, [sp, #560]	@ 0x230
 80022ba:	f002 fa7d 	bl	80047b8 <_defmt_write>
 80022be:	f240 0004 	movw	r0, #4
 80022c2:	2102      	movs	r1, #2
 80022c4:	f2c0 0000 	movt	r0, #0
 80022c8:	f8ad 0230 	strh.w	r0, [sp, #560]	@ 0x230
 80022cc:	4630      	mov	r0, r6
 80022ce:	f002 fa73 	bl	80047b8 <_defmt_write>
 80022d2:	9804      	ldr	r0, [sp, #16]
 80022d4:	2102      	movs	r1, #2
 80022d6:	ba00      	rev	r0, r0
 80022d8:	0c00      	lsrs	r0, r0, #16
 80022da:	f8ad 0230 	strh.w	r0, [sp, #560]	@ 0x230
 80022de:	4630      	mov	r0, r6
 80022e0:	f002 fa6a 	bl	80047b8 <_defmt_write>
 80022e4:	4630      	mov	r0, r6
 80022e6:	2102      	movs	r1, #2
 80022e8:	f8ad 9230 	strh.w	r9, [sp, #560]	@ 0x230
 80022ec:	f002 fa64 	bl	80047b8 <_defmt_write>
 80022f0:	982b      	ldr	r0, [sp, #172]	@ 0xac
 80022f2:	2102      	movs	r1, #2
 80022f4:	908c      	str	r0, [sp, #560]	@ 0x230
 80022f6:	4620      	mov	r0, r4
 80022f8:	f8ad a368 	strh.w	sl, [sp, #872]	@ 0x368
 80022fc:	f002 fa5c 	bl	80047b8 <_defmt_write>
 8002300:	4620      	mov	r0, r4
 8002302:	2102      	movs	r1, #2
 8002304:	f8ad 9368 	strh.w	r9, [sp, #872]	@ 0x368
 8002308:	f002 fa56 	bl	80047b8 <_defmt_write>
 800230c:	4630      	mov	r0, r6
 800230e:	f002 f84f 	bl	80043b0 <defmt::impls::core_::net::<impl defmt::traits::Format for core::net::ip_addr::Ipv4Addr>::format>
 8002312:	4620      	mov	r0, r4
 8002314:	2102      	movs	r1, #2
 8002316:	f8ad b368 	strh.w	fp, [sp, #872]	@ 0x368
 800231a:	f002 fa4d 	bl	80047b8 <_defmt_write>
 800231e:	4630      	mov	r0, r6
 8002320:	2102      	movs	r1, #2
 8002322:	f8ad b230 	strh.w	fp, [sp, #560]	@ 0x230
 8002326:	f002 fa47 	bl	80047b8 <_defmt_write>
 800232a:	f240 0004 	movw	r0, #4
 800232e:	2102      	movs	r1, #2
 8002330:	f2c0 0000 	movt	r0, #0
 8002334:	f8ad 0230 	strh.w	r0, [sp, #560]	@ 0x230
 8002338:	4630      	mov	r0, r6
 800233a:	f002 fa3d 	bl	80047b8 <_defmt_write>
 800233e:	9805      	ldr	r0, [sp, #20]
 8002340:	2102      	movs	r1, #2
 8002342:	ba00      	rev	r0, r0
 8002344:	0c00      	lsrs	r0, r0, #16
 8002346:	f8ad 0230 	strh.w	r0, [sp, #560]	@ 0x230
 800234a:	4630      	mov	r0, r6
 800234c:	f002 fa34 	bl	80047b8 <_defmt_write>
 8002350:	f002 f9ba 	bl	80046c8 <_defmt_release>
 8002354:	f04f 0901 	mov.w	r9, #1
 8002358:	f04f 0a0e 	mov.w	sl, #14
 800235c:	e6f9      	b.n	8002152 <smoltcp::iface::interface::Interface::poll+0x1036>
 800235e:	9b37      	ldr	r3, [sp, #220]	@ 0xdc
 8002360:	e9cd 4213 	strd	r4, r2, [sp, #76]	@ 0x4c
 8002364:	9124      	str	r1, [sp, #144]	@ 0x90
 8002366:	ea40 2003 	orr.w	r0, r0, r3, lsl #8
 800236a:	9027      	str	r0, [sp, #156]	@ 0x9c
 800236c:	9808      	ldr	r0, [sp, #32]
 800236e:	9012      	str	r0, [sp, #72]	@ 0x48
 8002370:	9809      	ldr	r0, [sp, #36]	@ 0x24
 8002372:	9018      	str	r0, [sp, #96]	@ 0x60
 8002374:	980b      	ldr	r0, [sp, #44]	@ 0x2c
 8002376:	900d      	str	r0, [sp, #52]	@ 0x34
 8002378:	9807      	ldr	r0, [sp, #28]
 800237a:	900f      	str	r0, [sp, #60]	@ 0x3c
 800237c:	980a      	ldr	r0, [sp, #40]	@ 0x28
 800237e:	900e      	str	r0, [sp, #56]	@ 0x38
 8002380:	e6e7      	b.n	8002152 <smoltcp::iface::interface::Interface::poll+0x1036>
 8002382:	2001      	movs	r0, #1
 8002384:	e9cd 4210 	strd	r4, r2, [sp, #64]	@ 0x40
 8002388:	9028      	str	r0, [sp, #160]	@ 0xa0
 800238a:	e6e2      	b.n	8002152 <smoltcp::iface::interface::Interface::poll+0x1036>
 800238c:	f04f 0901 	mov.w	r9, #1
 8002390:	46e2      	mov	sl, ip
 8002392:	e6de      	b.n	8002152 <smoltcp::iface::interface::Interface::poll+0x1036>
 8002394:	f1bb 0f03 	cmp.w	fp, #3
 8002398:	f47f ac59 	bne.w	8001c4e <smoltcp::iface::interface::Interface::poll+0xb32>
 800239c:	f04f 0b03 	mov.w	fp, #3
 80023a0:	f896 c000 	ldrb.w	ip, [r6]
 80023a4:	2105      	movs	r1, #5
 80023a6:	2000      	movs	r0, #0
 80023a8:	2200      	movs	r2, #0
 80023aa:	e6e1      	b.n	8002170 <smoltcp::iface::interface::Interface::poll+0x1054>
 80023ac:	f1bb 0f02 	cmp.w	fp, #2
 80023b0:	f47f ac4d 	bne.w	8001c4e <smoltcp::iface::interface::Interface::poll+0xb32>
 80023b4:	f04f 0b02 	mov.w	fp, #2
 80023b8:	2106      	movs	r1, #6
 80023ba:	e6d5      	b.n	8002168 <smoltcp::iface::interface::Interface::poll+0x104c>
 80023bc:	f1bb 0f0a 	cmp.w	fp, #10
 80023c0:	f4ff ac45 	bcc.w	8001c4e <smoltcp::iface::interface::Interface::poll+0xb32>
 80023c4:	f00b 0007 	and.w	r0, fp, #7
 80023c8:	2802      	cmp	r0, #2
 80023ca:	f47f ac40 	bne.w	8001c4e <smoltcp::iface::interface::Interface::poll+0xb32>
 80023ce:	f1bb 0f1a 	cmp.w	fp, #26
 80023d2:	d905      	bls.n	80023e0 <smoltcp::iface::interface::Interface::poll+0x12c4>
 80023d4:	f240 0009 	movw	r0, #9
 80023d8:	f2c0 0000 	movt	r0, #0
 80023dc:	f002 f84b 	bl	8004476 <defmt::export::acquire_header_and_release>
 80023e0:	2000      	movs	r0, #0
 80023e2:	9933      	ldr	r1, [sp, #204]	@ 0xcc
 80023e4:	9092      	str	r0, [sp, #584]	@ 0x248
 80023e6:	aada      	add	r2, sp, #872	@ 0x368
 80023e8:	908f      	str	r0, [sp, #572]	@ 0x23c
 80023ea:	908c      	str	r0, [sp, #560]	@ 0x230
 80023ec:	90dc      	str	r0, [sp, #880]	@ 0x370
 80023ee:	a88c      	add	r0, sp, #560	@ 0x230
 80023f0:	e9cd 64da 	strd	r6, r4, [sp, #872]	@ 0x368
 80023f4:	f003 ff22 	bl	800623c <<core::slice::iter::IterMut<T> as core::iter::traits::iterator::Iterator>::fold>
 80023f8:	9a34      	ldr	r2, [sp, #208]	@ 0xd0
 80023fa:	e9dd 108c 	ldrd	r1, r0, [sp, #560]	@ 0x230
 80023fe:	fa5f fc80 	uxtb.w	ip, r0
 8002402:	9c8e      	ldr	r4, [sp, #568]	@ 0x238
 8002404:	7893      	ldrb	r3, [r2, #2]
 8002406:	8816      	ldrh	r6, [r2, #0]
 8002408:	9a94      	ldr	r2, [sp, #592]	@ 0x250
 800240a:	ea46 4303 	orr.w	r3, r6, r3, lsl #16
 800240e:	920b      	str	r2, [sp, #44]	@ 0x2c
 8002410:	f64f 72ff 	movw	r2, #65535	@ 0xffff
 8002414:	9337      	str	r3, [sp, #220]	@ 0xdc
 8002416:	ea20 0202 	bic.w	r2, r0, r2
 800241a:	0a03      	lsrs	r3, r0, #8
 800241c:	9893      	ldr	r0, [sp, #588]	@ 0x24c
 800241e:	9008      	str	r0, [sp, #32]
 8002420:	9892      	ldr	r0, [sp, #584]	@ 0x248
 8002422:	9009      	str	r0, [sp, #36]	@ 0x24
 8002424:	9891      	ldr	r0, [sp, #580]	@ 0x244
 8002426:	9e90      	ldr	r6, [sp, #576]	@ 0x240
 8002428:	900a      	str	r0, [sp, #40]	@ 0x28
 800242a:	f89d 023c 	ldrb.w	r0, [sp, #572]	@ 0x23c
 800242e:	9607      	str	r6, [sp, #28]
 8002430:	e6a6      	b.n	8002180 <smoltcp::iface::interface::Interface::poll+0x1064>
 8002432:	f1bb 0f0a 	cmp.w	fp, #10
 8002436:	d117      	bne.n	8002468 <smoltcp::iface::interface::Interface::poll+0x134c>
 8002438:	2c03      	cmp	r4, #3
 800243a:	f241 8047 	bls.w	80034cc <smoltcp::iface::interface::Interface::poll+0x23b0>
 800243e:	2c07      	cmp	r4, #7
 8002440:	f241 804d 	bls.w	80034de <smoltcp::iface::interface::Interface::poll+0x23c2>
 8002444:	f8d8 0002 	ldr.w	r0, [r8, #2]
 8002448:	f64f 72ff 	movw	r2, #65535	@ 0xffff
 800244c:	f8d8 1006 	ldr.w	r1, [r8, #6]
 8002450:	f04f 0b0a 	mov.w	fp, #10
 8002454:	ba00      	rev	r0, r0
 8002456:	ba0c      	rev	r4, r1
 8002458:	ea20 0202 	bic.w	r2, r0, r2
 800245c:	0a03      	lsrs	r3, r0, #8
 800245e:	fa5f fc80 	uxtb.w	ip, r0
 8002462:	2108      	movs	r1, #8
 8002464:	2000      	movs	r0, #0
 8002466:	e68b      	b.n	8002180 <smoltcp::iface::interface::Interface::poll+0x1064>
 8002468:	f64f 72ff 	movw	r2, #65535	@ 0xffff
 800246c:	0a0b      	lsrs	r3, r1, #8
 800246e:	ea21 0202 	bic.w	r2, r1, r2
 8002472:	fa5f fc81 	uxtb.w	ip, r1
 8002476:	2109      	movs	r1, #9
 8002478:	e682      	b.n	8002180 <smoltcp::iface::interface::Interface::poll+0x1064>
 800247a:	2000      	movs	r0, #0
 800247c:	f04f 0a00 	mov.w	sl, #0
 8002480:	9028      	str	r0, [sp, #160]	@ 0xa0
 8002482:	f04f 0900 	mov.w	r9, #0
 8002486:	2000      	movs	r0, #0
 8002488:	9018      	str	r0, [sp, #96]	@ 0x60
 800248a:	9027      	str	r0, [sp, #156]	@ 0x9c
 800248c:	9024      	str	r0, [sp, #144]	@ 0x90
 800248e:	2000      	movs	r0, #0
 8002490:	9022      	str	r0, [sp, #136]	@ 0x88
 8002492:	2000      	movs	r0, #0
 8002494:	9019      	str	r0, [sp, #100]	@ 0x64
 8002496:	e001      	b.n	800249c <smoltcp::iface::interface::Interface::poll+0x1380>
 8002498:	982a      	ldr	r0, [sp, #168]	@ 0xa8
 800249a:	8986      	ldrh	r6, [r0, #12]
 800249c:	203c      	movs	r0, #60	@ 0x3c
 800249e:	992c      	ldr	r1, [sp, #176]	@ 0xb0
 80024a0:	ea00 0096 	and.w	r0, r0, r6, lsr #2
 80024a4:	4281      	cmp	r1, r0
 80024a6:	f0c1 8023 	bcc.w	80034f0 <smoltcp::iface::interface::Interface::poll+0x23d4>
 80024aa:	e9dd 322f 	ldrd	r3, r2, [sp, #188]	@ 0xbc
 80024ae:	f44f 71a8 	mov.w	r1, #336	@ 0x150
 80024b2:	f88d a225 	strb.w	sl, [sp, #549]	@ 0x225
 80024b6:	fb03 2201 	mla	r2, r3, r1, r2
 80024ba:	9916      	ldr	r1, [sp, #88]	@ 0x58
 80024bc:	f88d 122d 	strb.w	r1, [sp, #557]	@ 0x22d
 80024c0:	9919      	ldr	r1, [sp, #100]	@ 0x64
 80024c2:	9b06      	ldr	r3, [sp, #24]
 80024c4:	f001 0101 	and.w	r1, r1, #1
 80024c8:	f88d 122c 	strb.w	r1, [sp, #556]	@ 0x22c
 80024cc:	f009 0101 	and.w	r1, r9, #1
 80024d0:	f88d 1224 	strb.w	r1, [sp, #548]	@ 0x224
 80024d4:	992c      	ldr	r1, [sp, #176]	@ 0xb0
 80024d6:	9378      	str	r3, [sp, #480]	@ 0x1e0
 80024d8:	1a09      	subs	r1, r1, r0
 80024da:	9187      	str	r1, [sp, #540]	@ 0x21c
 80024dc:	9929      	ldr	r1, [sp, #164]	@ 0xa4
 80024de:	9b15      	ldr	r3, [sp, #84]	@ 0x54
 80024e0:	4408      	add	r0, r1
 80024e2:	9086      	str	r0, [sp, #536]	@ 0x218
 80024e4:	980c      	ldr	r0, [sp, #48]	@ 0x30
 80024e6:	f8ad 0216 	strh.w	r0, [sp, #534]	@ 0x216
 80024ea:	9822      	ldr	r0, [sp, #136]	@ 0x88
 80024ec:	f8ad 0214 	strh.w	r0, [sp, #532]	@ 0x214
 80024f0:	9810      	ldr	r0, [sp, #64]	@ 0x40
 80024f2:	9084      	str	r0, [sp, #528]	@ 0x210
 80024f4:	9811      	ldr	r0, [sp, #68]	@ 0x44
 80024f6:	9083      	str	r0, [sp, #524]	@ 0x20c
 80024f8:	9828      	ldr	r0, [sp, #160]	@ 0xa0
 80024fa:	9082      	str	r0, [sp, #520]	@ 0x208
 80024fc:	980d      	ldr	r0, [sp, #52]	@ 0x34
 80024fe:	9081      	str	r0, [sp, #516]	@ 0x204
 8002500:	9812      	ldr	r0, [sp, #72]	@ 0x48
 8002502:	9080      	str	r0, [sp, #512]	@ 0x200
 8002504:	9818      	ldr	r0, [sp, #96]	@ 0x60
 8002506:	907f      	str	r0, [sp, #508]	@ 0x1fc
 8002508:	980e      	ldr	r0, [sp, #56]	@ 0x38
 800250a:	907e      	str	r0, [sp, #504]	@ 0x1f8
 800250c:	980f      	ldr	r0, [sp, #60]	@ 0x3c
 800250e:	907d      	str	r0, [sp, #500]	@ 0x1f4
 8002510:	9827      	ldr	r0, [sp, #156]	@ 0x9c
 8002512:	907c      	str	r0, [sp, #496]	@ 0x1f0
 8002514:	9813      	ldr	r0, [sp, #76]	@ 0x4c
 8002516:	907b      	str	r0, [sp, #492]	@ 0x1ec
 8002518:	9814      	ldr	r0, [sp, #80]	@ 0x50
 800251a:	907a      	str	r0, [sp, #488]	@ 0x1e8
 800251c:	9824      	ldr	r0, [sp, #144]	@ 0x90
 800251e:	9079      	str	r0, [sp, #484]	@ 0x1e4
 8002520:	982a      	ldr	r0, [sp, #168]	@ 0xa8
 8002522:	9377      	str	r3, [sp, #476]	@ 0x1dc
 8002524:	6846      	ldr	r6, [r0, #4]
 8002526:	8801      	ldrh	r1, [r0, #0]
 8002528:	89c4      	ldrh	r4, [r0, #14]
 800252a:	ba36      	rev	r6, r6
 800252c:	f8b0 e002 	ldrh.w	lr, [r0, #2]
 8002530:	ba09      	rev	r1, r1
 8002532:	9688      	str	r6, [sp, #544]	@ 0x220
 8002534:	ba26      	rev	r6, r4
 8002536:	fa9e f39e 	rev16.w	r3, lr
 800253a:	ea4f 4c11 	mov.w	ip, r1, lsr #16
 800253e:	0c36      	lsrs	r6, r6, #16
 8002540:	f8ad 3228 	strh.w	r3, [sp, #552]	@ 0x228
 8002544:	f8ad 622a 	strh.w	r6, [sp, #554]	@ 0x22a
 8002548:	f8ad c226 	strh.w	ip, [sp, #550]	@ 0x226
 800254c:	9830      	ldr	r0, [sp, #192]	@ 0xc0
 800254e:	4290      	cmp	r0, r2
 8002550:	f000 8080 	beq.w	8002654 <smoltcp::iface::interface::Interface::poll+0x1538>
 8002554:	9830      	ldr	r0, [sp, #192]	@ 0xc0
 8002556:	e9d0 6400 	ldrd	r6, r4, [r0]
 800255a:	f500 71a8 	add.w	r1, r0, #336	@ 0x150
 800255e:	3e02      	subs	r6, #2
 8002560:	f174 0600 	sbcs.w	r6, r4, #0
 8002564:	d202      	bcs.n	800256c <smoltcp::iface::interface::Interface::poll+0x1450>
 8002566:	460c      	mov	r4, r1
 8002568:	9930      	ldr	r1, [sp, #192]	@ 0xc0
 800256a:	e029      	b.n	80025c0 <smoltcp::iface::interface::Interface::poll+0x14a4>
 800256c:	4291      	cmp	r1, r2
 800256e:	d071      	beq.n	8002654 <smoltcp::iface::interface::Interface::poll+0x1538>
 8002570:	9d30      	ldr	r5, [sp, #192]	@ 0xc0
 8002572:	e9d5 4054 	ldrd	r4, r0, [r5, #336]	@ 0x150
 8002576:	f505 7628 	add.w	r6, r5, #672	@ 0x2a0
 800257a:	3c02      	subs	r4, #2
 800257c:	f170 0000 	sbcs.w	r0, r0, #0
 8002580:	d201      	bcs.n	8002586 <smoltcp::iface::interface::Interface::poll+0x146a>
 8002582:	4634      	mov	r4, r6
 8002584:	e01c      	b.n	80025c0 <smoltcp::iface::interface::Interface::poll+0x14a4>
 8002586:	4296      	cmp	r6, r2
 8002588:	d064      	beq.n	8002654 <smoltcp::iface::interface::Interface::poll+0x1538>
 800258a:	9930      	ldr	r1, [sp, #192]	@ 0xc0
 800258c:	e9d1 04a8 	ldrd	r0, r4, [r1, #672]	@ 0x2a0
 8002590:	f501 717c 	add.w	r1, r1, #1008	@ 0x3f0
 8002594:	3802      	subs	r0, #2
 8002596:	f174 0000 	sbcs.w	r0, r4, #0
 800259a:	d202      	bcs.n	80025a2 <smoltcp::iface::interface::Interface::poll+0x1486>
 800259c:	460c      	mov	r4, r1
 800259e:	4631      	mov	r1, r6
 80025a0:	e00e      	b.n	80025c0 <smoltcp::iface::interface::Interface::poll+0x14a4>
 80025a2:	4291      	cmp	r1, r2
 80025a4:	d056      	beq.n	8002654 <smoltcp::iface::interface::Interface::poll+0x1538>
 80025a6:	9d30      	ldr	r5, [sp, #192]	@ 0xc0
 80025a8:	e9d5 04fc 	ldrd	r0, r4, [r5, #1008]	@ 0x3f0
 80025ac:	f505 65a8 	add.w	r5, r5, #1344	@ 0x540
 80025b0:	9530      	str	r5, [sp, #192]	@ 0xc0
 80025b2:	f1d0 0001 	rsbs	r0, r0, #1
 80025b6:	f04f 0000 	mov.w	r0, #0
 80025ba:	41a0      	sbcs	r0, r4
 80025bc:	462c      	mov	r4, r5
 80025be:	d3c5      	bcc.n	800254c <smoltcp::iface::interface::Interface::poll+0x1430>
 80025c0:	f891 6133 	ldrb.w	r6, [r1, #307]	@ 0x133
 80025c4:	9430      	str	r4, [sp, #192]	@ 0xc0
 80025c6:	2e00      	cmp	r6, #0
 80025c8:	d0c0      	beq.n	800254c <smoltcp::iface::interface::Interface::poll+0x1430>
 80025ca:	2e01      	cmp	r6, #1
 80025cc:	d103      	bne.n	80025d6 <smoltcp::iface::interface::Interface::poll+0x14ba>
 80025ce:	982e      	ldr	r0, [sp, #184]	@ 0xb8
 80025d0:	9430      	str	r4, [sp, #192]	@ 0xc0
 80025d2:	2800      	cmp	r0, #0
 80025d4:	d4ba      	bmi.n	800254c <smoltcp::iface::interface::Interface::poll+0x1430>
 80025d6:	f8b1 011c 	ldrh.w	r0, [r1, #284]	@ 0x11c
 80025da:	b1a0      	cbz	r0, 8002606 <smoltcp::iface::interface::Interface::poll+0x14ea>
 80025dc:	f8d1 011e 	ldr.w	r0, [r1, #286]	@ 0x11e
 80025e0:	9d2b      	ldr	r5, [sp, #172]	@ 0xac
 80025e2:	9430      	str	r4, [sp, #192]	@ 0xc0
 80025e4:	4285      	cmp	r5, r0
 80025e6:	d1b1      	bne.n	800254c <smoltcp::iface::interface::Interface::poll+0x1430>
 80025e8:	f8b1 0122 	ldrh.w	r0, [r1, #290]	@ 0x122
 80025ec:	9430      	str	r4, [sp, #192]	@ 0xc0
 80025ee:	4283      	cmp	r3, r0
 80025f0:	d1ac      	bne.n	800254c <smoltcp::iface::interface::Interface::poll+0x1430>
 80025f2:	f8d1 0124 	ldr.w	r0, [r1, #292]	@ 0x124
 80025f6:	9d25      	ldr	r5, [sp, #148]	@ 0x94
 80025f8:	9430      	str	r4, [sp, #192]	@ 0xc0
 80025fa:	4285      	cmp	r5, r0
 80025fc:	d1a6      	bne.n	800254c <smoltcp::iface::interface::Interface::poll+0x1430>
 80025fe:	f8b1 0128 	ldrh.w	r0, [r1, #296]	@ 0x128
 8002602:	4584      	cmp	ip, r0
 8002604:	e012      	b.n	800262c <smoltcp::iface::interface::Interface::poll+0x1510>
 8002606:	f8d1 00b3 	ldr.w	r0, [r1, #179]	@ 0xb3
 800260a:	9d2b      	ldr	r5, [sp, #172]	@ 0xac
 800260c:	f891 60b2 	ldrb.w	r6, [r1, #178]	@ 0xb2
 8002610:	1a28      	subs	r0, r5, r0
 8002612:	bf18      	it	ne
 8002614:	2001      	movne	r0, #1
 8002616:	4206      	tst	r6, r0
 8002618:	9430      	str	r4, [sp, #192]	@ 0xc0
 800261a:	d197      	bne.n	800254c <smoltcp::iface::interface::Interface::poll+0x1430>
 800261c:	f1be 0f00 	cmp.w	lr, #0
 8002620:	9430      	str	r4, [sp, #192]	@ 0xc0
 8002622:	f43f af93 	beq.w	800254c <smoltcp::iface::interface::Interface::poll+0x1430>
 8002626:	f8b1 00b0 	ldrh.w	r0, [r1, #176]	@ 0xb0
 800262a:	4283      	cmp	r3, r0
 800262c:	9430      	str	r4, [sp, #192]	@ 0xc0
 800262e:	f47f af8d 	bne.w	800254c <smoltcp::iface::interface::Interface::poll+0x1430>
 8002632:	a877      	add	r0, sp, #476	@ 0x1dc
 8002634:	9a2b      	ldr	r2, [sp, #172]	@ 0xac
 8002636:	9b25      	ldr	r3, [sp, #148]	@ 0x94
 8002638:	e9cd 2000 	strd	r2, r0, [sp]
 800263c:	a88c      	add	r0, sp, #560	@ 0x230
 800263e:	9a4a      	ldr	r2, [sp, #296]	@ 0x128
 8002640:	f003 ffb0 	bl	80065a4 <smoltcp::socket::tcp::Socket::process>
 8002644:	9890      	ldr	r0, [sp, #576]	@ 0x240
 8002646:	2802      	cmp	r0, #2
 8002648:	f43f ab01 	beq.w	8001c4e <smoltcp::iface::interface::Interface::poll+0xb32>
 800264c:	ab8c      	add	r3, sp, #560	@ 0x230
 800264e:	9e31      	ldr	r6, [sp, #196]	@ 0xc4
 8002650:	aca5      	add	r4, sp, #660	@ 0x294
 8002652:	e017      	b.n	8002684 <smoltcp::iface::interface::Interface::poll+0x1568>
 8002654:	9816      	ldr	r0, [sp, #88]	@ 0x58
 8002656:	992b      	ldr	r1, [sp, #172]	@ 0xac
 8002658:	3804      	subs	r0, #4
 800265a:	fab0 f080 	clz	r0, r0
 800265e:	fab1 f181 	clz	r1, r1
 8002662:	0949      	lsrs	r1, r1, #5
 8002664:	0940      	lsrs	r0, r0, #5
 8002666:	4308      	orrs	r0, r1
 8002668:	9920      	ldr	r1, [sp, #128]	@ 0x80
 800266a:	4308      	orrs	r0, r1
 800266c:	2801      	cmp	r0, #1
 800266e:	f43f aaee 	beq.w	8001c4e <smoltcp::iface::interface::Interface::poll+0xb32>
 8002672:	9925      	ldr	r1, [sp, #148]	@ 0x94
 8002674:	a88c      	add	r0, sp, #560	@ 0x230
 8002676:	9a2b      	ldr	r2, [sp, #172]	@ 0xac
 8002678:	ab77      	add	r3, sp, #476	@ 0x1dc
 800267a:	f005 f8a2 	bl	80077c2 <smoltcp::socket::tcp::Socket::rst_reply>
 800267e:	ab8c      	add	r3, sp, #560	@ 0x230
 8002680:	acbe      	add	r4, sp, #760	@ 0x2f8
 8002682:	9e32      	ldr	r6, [sp, #200]	@ 0xc8
 8002684:	cb0f      	ldmia	r3, {r0, r1, r2, r3}
 8002686:	c60f      	stmia	r6!, {r0, r1, r2, r3}
 8002688:	9936      	ldr	r1, [sp, #216]	@ 0xd8
 800268a:	4620      	mov	r0, r4
 800268c:	2254      	movs	r2, #84	@ 0x54
 800268e:	f006 f989 	bl	80089a4 <__aeabi_memcpy4>
 8002692:	a857      	add	r0, sp, #348	@ 0x15c
 8002694:	4621      	mov	r1, r4
 8002696:	2264      	movs	r2, #100	@ 0x64
 8002698:	f006 f984 	bl	80089a4 <__aeabi_memcpy4>
 800269c:	f7ff bad9 	b.w	8001c52 <smoltcp::iface::interface::Interface::poll+0xb36>
 80026a0:	68f8      	ldr	r0, [r7, #12]
 80026a2:	f44f 71a8 	mov.w	r1, #336	@ 0x150
 80026a6:	e9d0 5000 	ldrd	r5, r0, [r0]
 80026aa:	fb00 5001 	mla	r0, r0, r1, r5
 80026ae:	e9dd 2147 	ldrd	r2, r1, [sp, #284]	@ 0x11c
 80026b2:	9049      	str	r0, [sp, #292]	@ 0x124
 80026b4:	984a      	ldr	r0, [sp, #296]	@ 0x128
 80026b6:	e9c0 2104 	strd	r2, r1, [r0, #16]
 80026ba:	a8be      	add	r0, sp, #760	@ 0x2f8
 80026bc:	3008      	adds	r0, #8
 80026be:	9038      	str	r0, [sp, #224]	@ 0xe0
 80026c0:	9849      	ldr	r0, [sp, #292]	@ 0x124
 80026c2:	4285      	cmp	r5, r0
 80026c4:	f000 861a 	beq.w	80032fc <smoltcp::iface::interface::Interface::poll+0x21e0>
 80026c8:	46a9      	mov	r9, r5
 80026ca:	e8f5 0154 	ldrd	r0, r1, [r5], #336	@ 0x150
 80026ce:	f080 0003 	eor.w	r0, r0, #3
 80026d2:	4308      	orrs	r0, r1
 80026d4:	d0f4      	beq.n	80026c0 <smoltcp::iface::interface::Interface::poll+0x15a4>
 80026d6:	f899 0138 	ldrb.w	r0, [r9, #312]	@ 0x138
 80026da:	2801      	cmp	r0, #1
 80026dc:	f040 8089 	bne.w	80027f2 <smoltcp::iface::interface::Interface::poll+0x16d6>
 80026e0:	984a      	ldr	r0, [sp, #296]	@ 0x128
 80026e2:	46a8      	mov	r8, r5
 80026e4:	f8d9 2139 	ldr.w	r2, [r9, #313]	@ 0x139
 80026e8:	f04f 34ff 	mov.w	r4, #4294967295	@ 0xffffffff
 80026ec:	e9d0 ab04 	ldrd	sl, fp, [r0, #16]
 80026f0:	f8d0 00f0 	ldr.w	r0, [r0, #240]	@ 0xf0
 80026f4:	e9d9 c550 	ldrd	ip, r5, [r9, #320]	@ 0x140
 80026f8:	9944      	ldr	r1, [sp, #272]	@ 0x110
 80026fa:	eb00 0080 	add.w	r0, r0, r0, lsl #2
 80026fe:	e00b      	b.n	8002718 <smoltcp::iface::interface::Interface::poll+0x15fc>
 8002700:	425b      	negs	r3, r3
 8002702:	f003 031f 	and.w	r3, r3, #31
 8002706:	fa04 f303 	lsl.w	r3, r4, r3
 800270a:	ba1b      	rev	r3, r3
 800270c:	680e      	ldr	r6, [r1, #0]
 800270e:	3105      	adds	r1, #5
 8002710:	3805      	subs	r0, #5
 8002712:	4056      	eors	r6, r2
 8002714:	4233      	tst	r3, r6
 8002716:	d016      	beq.n	8002746 <smoltcp::iface::interface::Interface::poll+0x162a>
 8002718:	b120      	cbz	r0, 8002724 <smoltcp::iface::interface::Interface::poll+0x1608>
 800271a:	790b      	ldrb	r3, [r1, #4]
 800271c:	2b00      	cmp	r3, #0
 800271e:	d1ef      	bne.n	8002700 <smoltcp::iface::interface::Interface::poll+0x15e4>
 8002720:	2300      	movs	r3, #0
 8002722:	e7f3      	b.n	800270c <smoltcp::iface::interface::Interface::poll+0x15f0>
 8002724:	1c50      	adds	r0, r2, #1
 8002726:	f000 85cd 	beq.w	80032c4 <smoltcp::iface::interface::Interface::poll+0x21a8>
 800272a:	9935      	ldr	r1, [sp, #212]	@ 0xd4
 800272c:	a8be      	add	r0, sp, #760	@ 0x2f8
 800272e:	e9cd ab00 	strd	sl, fp, [sp]
 8002732:	4664      	mov	r4, ip
 8002734:	f005 fe75 	bl	8008422 <smoltcp::iface::route::Routes::lookup>
 8002738:	f89d 02f8 	ldrb.w	r0, [sp, #760]	@ 0x2f8
 800273c:	46a4      	mov	ip, r4
 800273e:	2801      	cmp	r0, #1
 8002740:	d150      	bne.n	80027e4 <smoltcp::iface::interface::Interface::poll+0x16c8>
 8002742:	f8dd 22f9 	ldr.w	r2, [sp, #761]	@ 0x2f9
 8002746:	1c50      	adds	r0, r2, #1
 8002748:	f000 85bc 	beq.w	80032c4 <smoltcp::iface::interface::Interface::poll+0x21a8>
 800274c:	f002 00f0 	and.w	r0, r2, #240	@ 0xf0
 8002750:	28e0      	cmp	r0, #224	@ 0xe0
 8002752:	bf1c      	itt	ne
 8002754:	b2d0      	uxtbne	r0, r2
 8002756:	ea50 2012 	orrsne.w	r0, r0, r2, lsr #8
 800275a:	f000 85b3 	beq.w	80032c4 <smoltcp::iface::interface::Interface::poll+0x21a8>
 800275e:	984a      	ldr	r0, [sp, #296]	@ 0x128
 8002760:	f8d0 00e0 	ldr.w	r0, [r0, #224]	@ 0xe0
 8002764:	eba0 0080 	sub.w	r0, r0, r0, lsl #2
 8002768:	00c1      	lsls	r1, r0, #3
 800276a:	2000      	movs	r0, #0
 800276c:	180e      	adds	r6, r1, r0
 800276e:	d039      	beq.n	80027e4 <smoltcp::iface::interface::Interface::poll+0x16c8>
 8002770:	9b4a      	ldr	r3, [sp, #296]	@ 0x128
 8002772:	4403      	add	r3, r0
 8002774:	6a1c      	ldr	r4, [r3, #32]
 8002776:	4294      	cmp	r4, r2
 8002778:	d01d      	beq.n	80027b6 <smoltcp::iface::interface::Interface::poll+0x169a>
 800277a:	f116 0418 	adds.w	r4, r6, #24
 800277e:	d031      	beq.n	80027e4 <smoltcp::iface::interface::Interface::poll+0x16c8>
 8002780:	6b9c      	ldr	r4, [r3, #56]	@ 0x38
 8002782:	4294      	cmp	r4, r2
 8002784:	d025      	beq.n	80027d2 <smoltcp::iface::interface::Interface::poll+0x16b6>
 8002786:	f116 0430 	adds.w	r4, r6, #48	@ 0x30
 800278a:	d02b      	beq.n	80027e4 <smoltcp::iface::interface::Interface::poll+0x16c8>
 800278c:	6d1c      	ldr	r4, [r3, #80]	@ 0x50
 800278e:	4294      	cmp	r4, r2
 8002790:	f000 8189 	beq.w	8002aa6 <smoltcp::iface::interface::Interface::poll+0x198a>
 8002794:	3648      	adds	r6, #72	@ 0x48
 8002796:	d025      	beq.n	80027e4 <smoltcp::iface::interface::Interface::poll+0x16c8>
 8002798:	6e9b      	ldr	r3, [r3, #104]	@ 0x68
 800279a:	3060      	adds	r0, #96	@ 0x60
 800279c:	4293      	cmp	r3, r2
 800279e:	d1e5      	bne.n	800276c <smoltcp::iface::interface::Interface::poll+0x1650>
 80027a0:	994a      	ldr	r1, [sp, #296]	@ 0x128
 80027a2:	4408      	add	r0, r1
 80027a4:	3008      	adds	r0, #8
 80027a6:	e9d0 0102 	ldrd	r0, r1, [r0, #8]
 80027aa:	ebba 0000 	subs.w	r0, sl, r0
 80027ae:	eb7b 0001 	sbcs.w	r0, fp, r1
 80027b2:	db09      	blt.n	80027c8 <smoltcp::iface::interface::Interface::poll+0x16ac>
 80027b4:	e016      	b.n	80027e4 <smoltcp::iface::interface::Interface::poll+0x16c8>
 80027b6:	f103 0020 	add.w	r0, r3, #32
 80027ba:	e9d0 0102 	ldrd	r0, r1, [r0, #8]
 80027be:	ebba 0000 	subs.w	r0, sl, r0
 80027c2:	eb7b 0001 	sbcs.w	r0, fp, r1
 80027c6:	da0d      	bge.n	80027e4 <smoltcp::iface::interface::Interface::poll+0x16c8>
 80027c8:	2000      	movs	r0, #0
 80027ca:	4645      	mov	r5, r8
 80027cc:	f889 0138 	strb.w	r0, [r9, #312]	@ 0x138
 80027d0:	e00f      	b.n	80027f2 <smoltcp::iface::interface::Interface::poll+0x16d6>
 80027d2:	f103 0038 	add.w	r0, r3, #56	@ 0x38
 80027d6:	e9d0 0102 	ldrd	r0, r1, [r0, #8]
 80027da:	ebba 0000 	subs.w	r0, sl, r0
 80027de:	eb7b 0001 	sbcs.w	r0, fp, r1
 80027e2:	dbf1      	blt.n	80027c8 <smoltcp::iface::interface::Interface::poll+0x16ac>
 80027e4:	ebba 000c 	subs.w	r0, sl, ip
 80027e8:	eb7b 0005 	sbcs.w	r0, fp, r5
 80027ec:	4645      	mov	r5, r8
 80027ee:	f6ff af67 	blt.w	80026c0 <smoltcp::iface::interface::Interface::poll+0x15a4>
 80027f2:	e9d9 0100 	ldrd	r0, r1, [r9]
 80027f6:	f080 0002 	eor.w	r0, r0, #2
 80027fa:	4308      	orrs	r0, r1
 80027fc:	d140      	bne.n	8002880 <smoltcp::iface::interface::Interface::poll+0x1764>
 80027fe:	f899 0050 	ldrb.w	r0, [r9, #80]	@ 0x50
 8002802:	f8d9 b03c 	ldr.w	fp, [r9, #60]	@ 0x3c
 8002806:	f899 e051 	ldrb.w	lr, [r9, #81]	@ 0x51
 800280a:	2800      	cmp	r0, #0
 800280c:	bf08      	it	eq
 800280e:	f04f 0e40 	moveq.w	lr, #64	@ 0x40
 8002812:	f1bb 0f00 	cmp.w	fp, #0
 8002816:	f000 80d7 	beq.w	80029c8 <smoltcp::iface::interface::Interface::poll+0x18ac>
 800281a:	f8d9 1034 	ldr.w	r1, [r9, #52]	@ 0x34
 800281e:	2900      	cmp	r1, #0
 8002820:	f000 85e9 	beq.w	80033f6 <smoltcp::iface::interface::Interface::poll+0x22da>
 8002824:	f8d9 0038 	ldr.w	r0, [r9, #56]	@ 0x38
 8002828:	4288      	cmp	r0, r1
 800282a:	f080 85f1 	bcs.w	8003410 <smoltcp::iface::interface::Interface::poll+0x22f4>
 800282e:	f8d9 a030 	ldr.w	sl, [r9, #48]	@ 0x30
 8002832:	eb00 0480 	add.w	r4, r0, r0, lsl #2
 8002836:	e9d9 2302 	ldrd	r2, r3, [r9, #8]
 800283a:	9246      	str	r2, [sp, #280]	@ 0x118
 800283c:	eb0a 0284 	add.w	r2, sl, r4, lsl #2
 8002840:	933f      	str	r3, [sp, #252]	@ 0xfc
 8002842:	7b92      	ldrb	r2, [r2, #14]
 8002844:	2a02      	cmp	r2, #2
 8002846:	d12b      	bne.n	80028a0 <smoltcp::iface::interface::Interface::poll+0x1784>
 8002848:	f109 0844 	add.w	r8, r9, #68	@ 0x44
 800284c:	46ac      	mov	ip, r5
 800284e:	e898 0124 	ldmia.w	r8, {r2, r5, r8}
 8002852:	1b53      	subs	r3, r2, r5
 8002854:	4543      	cmp	r3, r8
 8002856:	bf28      	it	cs
 8002858:	4643      	movcs	r3, r8
 800285a:	195e      	adds	r6, r3, r5
 800285c:	f080 858d 	bcs.w	800337a <smoltcp::iface::interface::Interface::poll+0x225e>
 8002860:	4296      	cmp	r6, r2
 8002862:	f200 858a 	bhi.w	800337a <smoltcp::iface::interface::Interface::poll+0x225e>
 8002866:	f85a 6024 	ldr.w	r6, [sl, r4, lsl #2]
 800286a:	42b3      	cmp	r3, r6
 800286c:	bf38      	it	cc
 800286e:	461e      	movcc	r6, r3
 8002870:	2a00      	cmp	r2, #0
 8002872:	d061      	beq.n	8002938 <smoltcp::iface::interface::Interface::poll+0x181c>
 8002874:	1973      	adds	r3, r6, r5
 8002876:	fbb3 f4f2 	udiv	r4, r3, r2
 800287a:	fb04 3212 	mls	r2, r4, r2, r3
 800287e:	e05c      	b.n	800293a <smoltcp::iface::interface::Interface::poll+0x181e>
 8002880:	f8b9 011c 	ldrh.w	r0, [r9, #284]	@ 0x11c
 8002884:	2800      	cmp	r0, #0
 8002886:	f43f af1b 	beq.w	80026c0 <smoltcp::iface::interface::Interface::poll+0x15a4>
 800288a:	984a      	ldr	r0, [sp, #296]	@ 0x128
 800288c:	e9d9 2314 	ldrd	r2, r3, [r9, #80]	@ 0x50
 8002890:	e9d0 1004 	ldrd	r1, r0, [r0, #16]
 8002894:	431a      	orrs	r2, r3
 8002896:	9548      	str	r5, [sp, #288]	@ 0x120
 8002898:	d005      	beq.n	80028a6 <smoltcp::iface::interface::Interface::poll+0x178a>
 800289a:	e9d9 2316 	ldrd	r2, r3, [r9, #88]	@ 0x58
 800289e:	e00c      	b.n	80028ba <smoltcp::iface::interface::Interface::poll+0x179e>
 80028a0:	f8dd a118 	ldr.w	sl, [sp, #280]	@ 0x118
 80028a4:	e05a      	b.n	800295c <smoltcp::iface::interface::Interface::poll+0x1840>
 80028a6:	2201      	movs	r2, #1
 80028a8:	f8c9 005c 	str.w	r0, [r9, #92]	@ 0x5c
 80028ac:	f8c9 2050 	str.w	r2, [r9, #80]	@ 0x50
 80028b0:	2200      	movs	r2, #0
 80028b2:	e9c9 2115 	strd	r2, r1, [r9, #84]	@ 0x54
 80028b6:	460a      	mov	r2, r1
 80028b8:	4603      	mov	r3, r0
 80028ba:	e9d9 540e 	ldrd	r5, r4, [r9, #56]	@ 0x38
 80028be:	f8d9 6030 	ldr.w	r6, [r9, #48]	@ 0x30
 80028c2:	1952      	adds	r2, r2, r5
 80028c4:	4163      	adcs	r3, r4
 80028c6:	07f6      	lsls	r6, r6, #31
 80028c8:	d00c      	beq.n	80028e4 <smoltcp::iface::interface::Interface::poll+0x17c8>
 80028ca:	1a89      	subs	r1, r1, r2
 80028cc:	4198      	sbcs	r0, r3
 80028ce:	db09      	blt.n	80028e4 <smoltcp::iface::interface::Interface::poll+0x17c8>
 80028d0:	f240 0019 	movw	r0, #25
 80028d4:	f2c0 0000 	movt	r0, #0
 80028d8:	f001 fdcd 	bl	8004476 <defmt::export::acquire_header_and_release>
 80028dc:	2000      	movs	r0, #0
 80028de:	f889 0133 	strb.w	r0, [r9, #307]	@ 0x133
 80028e2:	e171      	b.n	8002bc8 <smoltcp::iface::interface::Interface::poll+0x1aac>
 80028e4:	984a      	ldr	r0, [sp, #296]	@ 0x128
 80028e6:	68c1      	ldr	r1, [r0, #12]
 80028e8:	4648      	mov	r0, r9
 80028ea:	f003 fdfb 	bl	80064e4 <smoltcp::socket::tcp::Socket::seq_to_transmit>
 80028ee:	2800      	cmp	r0, #0
 80028f0:	f040 816a 	bne.w	8002bc8 <smoltcp::iface::interface::Interface::poll+0x1aac>
 80028f4:	f8d9 0080 	ldr.w	r0, [r9, #128]	@ 0x80
 80028f8:	2802      	cmp	r0, #2
 80028fa:	f000 80df 	beq.w	8002abc <smoltcp::iface::interface::Interface::poll+0x19a0>
 80028fe:	2801      	cmp	r0, #1
 8002900:	f040 8162 	bne.w	8002bc8 <smoltcp::iface::interface::Interface::poll+0x1aac>
 8002904:	984a      	ldr	r0, [sp, #296]	@ 0x128
 8002906:	e9d9 3222 	ldrd	r3, r2, [r9, #136]	@ 0x88
 800290a:	e9d0 1004 	ldrd	r1, r0, [r0, #16]
 800290e:	1ace      	subs	r6, r1, r3
 8002910:	eb70 0602 	sbcs.w	r6, r0, r2
 8002914:	f2c0 8158 	blt.w	8002bc8 <smoltcp::iface::interface::Interface::poll+0x1aac>
 8002918:	1ac9      	subs	r1, r1, r3
 800291a:	e9d9 6424 	ldrd	r6, r4, [r9, #144]	@ 0x90
 800291e:	4190      	sbcs	r0, r2
 8002920:	ea81 71e0 	eor.w	r1, r1, r0, asr #31
 8002924:	ea80 72e0 	eor.w	r2, r0, r0, asr #31
 8002928:	ebb1 71e0 	subs.w	r1, r1, r0, asr #31
 800292c:	eb62 70e0 	sbc.w	r0, r2, r0, asr #31
 8002930:	1875      	adds	r5, r6, r1
 8002932:	eb44 0600 	adc.w	r6, r4, r0
 8002936:	e0c3      	b.n	8002ac0 <smoltcp::iface::interface::Interface::poll+0x19a4>
 8002938:	2200      	movs	r2, #0
 800293a:	3001      	adds	r0, #1
 800293c:	f8dd a118 	ldr.w	sl, [sp, #280]	@ 0x118
 8002940:	fbb0 f3f1 	udiv	r3, r0, r1
 8002944:	f1bb 0b01 	subs.w	fp, fp, #1
 8002948:	fb03 0011 	mls	r0, r3, r1, r0
 800294c:	eba8 0106 	sub.w	r1, r8, r6
 8002950:	4665      	mov	r5, ip
 8002952:	e9c9 2112 	strd	r2, r1, [r9, #72]	@ 0x48
 8002956:	e9c9 0b0e 	strd	r0, fp, [r9, #56]	@ 0x38
 800295a:	d035      	beq.n	80029c8 <smoltcp::iface::interface::Interface::poll+0x18ac>
 800295c:	f8d9 3034 	ldr.w	r3, [r9, #52]	@ 0x34
 8002960:	2b00      	cmp	r3, #0
 8002962:	f000 8548 	beq.w	80033f6 <smoltcp::iface::interface::Interface::poll+0x22da>
 8002966:	f8d9 0038 	ldr.w	r0, [r9, #56]	@ 0x38
 800296a:	9548      	str	r5, [sp, #288]	@ 0x120
 800296c:	4298      	cmp	r0, r3
 800296e:	f080 8574 	bcs.w	800345a <smoltcp::iface::interface::Interface::poll+0x233e>
 8002972:	e9d9 5811 	ldrd	r5, r8, [r9, #68]	@ 0x44
 8002976:	f8d9 404c 	ldr.w	r4, [r9, #76]	@ 0x4c
 800297a:	eba5 0608 	sub.w	r6, r5, r8
 800297e:	42a6      	cmp	r6, r4
 8002980:	bf28      	it	cs
 8002982:	4626      	movcs	r6, r4
 8002984:	eb16 0108 	adds.w	r1, r6, r8
 8002988:	f080 84dc 	bcs.w	8003344 <smoltcp::iface::interface::Interface::poll+0x2228>
 800298c:	42a9      	cmp	r1, r5
 800298e:	f200 84d9 	bhi.w	8003344 <smoltcp::iface::interface::Interface::poll+0x2228>
 8002992:	f8d9 2030 	ldr.w	r2, [r9, #48]	@ 0x30
 8002996:	eb00 0180 	add.w	r1, r0, r0, lsl #2
 800299a:	f8cd b114 	str.w	fp, [sp, #276]	@ 0x114
 800299e:	eb02 0b81 	add.w	fp, r2, r1, lsl #2
 80029a2:	f89b 200e 	ldrb.w	r2, [fp, #14]
 80029a6:	2a02      	cmp	r2, #2
 80029a8:	f000 8500 	beq.w	80033ac <smoltcp::iface::interface::Interface::poll+0x2290>
 80029ac:	f8db 1000 	ldr.w	r1, [fp]
 80029b0:	42b1      	cmp	r1, r6
 80029b2:	f200 84cf 	bhi.w	8003354 <smoltcp::iface::interface::Interface::poll+0x2238>
 80029b6:	f8d9 c040 	ldr.w	ip, [r9, #64]	@ 0x40
 80029ba:	07d2      	lsls	r2, r2, #31
 80029bc:	aa40      	add	r2, sp, #256	@ 0x100
 80029be:	c219      	stmia	r2!, {r0, r3, r4}
 80029c0:	d006      	beq.n	80029d0 <smoltcp::iface::interface::Interface::poll+0x18b4>
 80029c2:	f8db 300f 	ldr.w	r3, [fp, #15]
 80029c6:	e014      	b.n	80029f2 <smoltcp::iface::interface::Interface::poll+0x18d6>
 80029c8:	2203      	movs	r2, #3
 80029ca:	f04f 0c00 	mov.w	ip, #0
 80029ce:	e2eb      	b.n	8002fa8 <smoltcp::iface::interface::Interface::poll+0x1e8c>
 80029d0:	ea5f 32ca 	movs.w	r2, sl, lsl #15
 80029d4:	d408      	bmi.n	80029e8 <smoltcp::iface::interface::Interface::poll+0x18cc>
 80029d6:	9a4a      	ldr	r2, [sp, #296]	@ 0x128
 80029d8:	f8d2 20f0 	ldr.w	r2, [r2, #240]	@ 0xf0
 80029dc:	2a00      	cmp	r2, #0
 80029de:	f000 82c7 	beq.w	8002f70 <smoltcp::iface::interface::Interface::poll+0x1e54>
 80029e2:	9a44      	ldr	r2, [sp, #272]	@ 0x110
 80029e4:	6813      	ldr	r3, [r2, #0]
 80029e6:	e004      	b.n	80029f2 <smoltcp::iface::interface::Interface::poll+0x18d6>
 80029e8:	983f      	ldr	r0, [sp, #252]	@ 0xfc
 80029ea:	ea4f 621a 	mov.w	r2, sl, lsr #24
 80029ee:	ea42 2300 	orr.w	r3, r2, r0, lsl #8
 80029f2:	eb0c 0008 	add.w	r0, ip, r8
 80029f6:	e9db 2a01 	ldrd	r2, sl, [fp, #4]
 80029fa:	f8bb c00c 	ldrh.w	ip, [fp, #12]
 80029fe:	2404      	movs	r4, #4
 8002a00:	e9cd 01c1 	strd	r0, r1, [sp, #772]	@ 0x304
 8002a04:	2003      	movs	r0, #3
 8002a06:	e9cd 20bf 	strd	r2, r0, [sp, #764]	@ 0x2fc
 8002a0a:	984a      	ldr	r0, [sp, #296]	@ 0x128
 8002a0c:	90be      	str	r0, [sp, #760]	@ 0x2f8
 8002a0e:	68b8      	ldr	r0, [r7, #8]
 8002a10:	f88d 4361 	strb.w	r4, [sp, #865]	@ 0x361
 8002a14:	f101 0408 	add.w	r4, r1, #8
 8002a18:	e9d0 1004 	ldrd	r1, r0, [r0, #16]
 8002a1c:	e9cd 3ad5 	strd	r3, sl, [sp, #852]	@ 0x354
 8002a20:	9b46      	ldr	r3, [sp, #280]	@ 0x118
 8002a22:	4288      	cmp	r0, r1
 8002a24:	f88d e360 	strb.w	lr, [sp, #864]	@ 0x360
 8002a28:	94d7      	str	r4, [sp, #860]	@ 0x35c
 8002a2a:	f8cd a11c 	str.w	sl, [sp, #284]	@ 0x11c
 8002a2e:	f8ad c30e 	strh.w	ip, [sp, #782]	@ 0x30e
 8002a32:	f8ad 330c 	strh.w	r3, [sp, #780]	@ 0x30c
 8002a36:	f4be abd0 	bcs.w	80011da <smoltcp::iface::interface::Interface::poll+0xbe>
 8002a3a:	f44f 61c6 	mov.w	r1, #1584	@ 0x630
 8002a3e:	9b43      	ldr	r3, [sp, #268]	@ 0x10c
 8002a40:	4348      	muls	r0, r1
 8002a42:	6819      	ldr	r1, [r3, #0]
 8002a44:	5808      	ldr	r0, [r1, r0]
 8002a46:	2800      	cmp	r0, #0
 8002a48:	d415      	bmi.n	8002a76 <smoltcp::iface::interface::Interface::poll+0x195a>
 8002a4a:	2000      	movs	r0, #0
 8002a4c:	93a7      	str	r3, [sp, #668]	@ 0x29c
 8002a4e:	90a5      	str	r0, [sp, #660]	@ 0x294
 8002a50:	a9a5      	add	r1, sp, #660	@ 0x294
 8002a52:	984a      	ldr	r0, [sp, #296]	@ 0x128
 8002a54:	9b38      	ldr	r3, [sp, #224]	@ 0xe0
 8002a56:	f7fd fc81 	bl	800035c <smoltcp::iface::interface::InterfaceInner::dispatch_ip>
 8002a5a:	b2c0      	uxtb	r0, r0
 8002a5c:	2802      	cmp	r0, #2
 8002a5e:	d112      	bne.n	8002a86 <smoltcp::iface::interface::Interface::poll+0x196a>
 8002a60:	f8db 1000 	ldr.w	r1, [fp]
 8002a64:	f04f 0c01 	mov.w	ip, #1
 8002a68:	9c42      	ldr	r4, [sp, #264]	@ 0x108
 8002a6a:	9845      	ldr	r0, [sp, #276]	@ 0x114
 8002a6c:	42b1      	cmp	r1, r6
 8002a6e:	f240 8285 	bls.w	8002f7c <smoltcp::iface::interface::Interface::poll+0x1e60>
 8002a72:	f000 bc8a 	b.w	800338a <smoltcp::iface::interface::Interface::poll+0x226e>
 8002a76:	f240 0025 	movw	r0, #37	@ 0x25
 8002a7a:	f2c0 0000 	movt	r0, #0
 8002a7e:	f001 fcfa 	bl	8004476 <defmt::export::acquire_header_and_release>
 8002a82:	2200      	movs	r2, #0
 8002a84:	e000      	b.n	8002a88 <smoltcp::iface::interface::Interface::poll+0x196c>
 8002a86:	2201      	movs	r2, #1
 8002a88:	9c42      	ldr	r4, [sp, #264]	@ 0x108
 8002a8a:	2100      	movs	r1, #0
 8002a8c:	9845      	ldr	r0, [sp, #276]	@ 0x114
 8002a8e:	f04f 0c01 	mov.w	ip, #1
 8002a92:	2d00      	cmp	r5, #0
 8002a94:	f000 8276 	beq.w	8002f84 <smoltcp::iface::interface::Interface::poll+0x1e68>
 8002a98:	eb01 0308 	add.w	r3, r1, r8
 8002a9c:	fbb3 f6f5 	udiv	r6, r3, r5
 8002aa0:	fb06 3315 	mls	r3, r6, r5, r3
 8002aa4:	e26f      	b.n	8002f86 <smoltcp::iface::interface::Interface::poll+0x1e6a>
 8002aa6:	f103 0050 	add.w	r0, r3, #80	@ 0x50
 8002aaa:	e9d0 0102 	ldrd	r0, r1, [r0, #8]
 8002aae:	ebba 0000 	subs.w	r0, sl, r0
 8002ab2:	eb7b 0001 	sbcs.w	r0, fp, r1
 8002ab6:	f6ff ae87 	blt.w	80027c8 <smoltcp::iface::interface::Interface::poll+0x16ac>
 8002aba:	e693      	b.n	80027e4 <smoltcp::iface::interface::Interface::poll+0x16c8>
 8002abc:	2500      	movs	r5, #0
 8002abe:	2600      	movs	r6, #0
 8002ac0:	f240 0015 	movw	r0, #21
 8002ac4:	f2c0 0000 	movt	r0, #0
 8002ac8:	f001 fcc4 	bl	8004454 <defmt::export::acquire_and_header>
 8002acc:	f240 0007 	movw	r0, #7
 8002ad0:	acbe      	add	r4, sp, #760	@ 0x2f8
 8002ad2:	f2c0 0000 	movt	r0, #0
 8002ad6:	2102      	movs	r1, #2
 8002ad8:	f8ad 02f8 	strh.w	r0, [sp, #760]	@ 0x2f8
 8002adc:	4620      	mov	r0, r4
 8002ade:	f001 fe6b 	bl	80047b8 <_defmt_write>
 8002ae2:	f240 0040 	movw	r0, #64	@ 0x40
 8002ae6:	2102      	movs	r1, #2
 8002ae8:	f2c0 0000 	movt	r0, #0
 8002aec:	f8ad 02f8 	strh.w	r0, [sp, #760]	@ 0x2f8
 8002af0:	4620      	mov	r0, r4
 8002af2:	f001 fe61 	bl	80047b8 <_defmt_write>
 8002af6:	f240 0805 	movw	r8, #5
 8002afa:	4620      	mov	r0, r4
 8002afc:	f2c0 0800 	movt	r8, #0
 8002b00:	2102      	movs	r1, #2
 8002b02:	f8ad 82f8 	strh.w	r8, [sp, #760]	@ 0x2f8
 8002b06:	f001 fe57 	bl	80047b8 <_defmt_write>
 8002b0a:	f244 2240 	movw	r2, #16960	@ 0x4240
 8002b0e:	4628      	mov	r0, r5
 8002b10:	4631      	mov	r1, r6
 8002b12:	f2c0 020f 	movt	r2, #15
 8002b16:	2300      	movs	r3, #0
 8002b18:	f006 fd2a 	bl	8009570 <__aeabi_uldivmod>
 8002b1c:	e9cd 01be 	strd	r0, r1, [sp, #760]	@ 0x2f8
 8002b20:	4620      	mov	r0, r4
 8002b22:	2108      	movs	r1, #8
 8002b24:	f001 fe48 	bl	80047b8 <_defmt_write>
 8002b28:	4620      	mov	r0, r4
 8002b2a:	2102      	movs	r1, #2
 8002b2c:	f8ad 82f8 	strh.w	r8, [sp, #760]	@ 0x2f8
 8002b30:	f001 fe42 	bl	80047b8 <_defmt_write>
 8002b34:	4628      	mov	r0, r5
 8002b36:	4631      	mov	r1, r6
 8002b38:	f44f 727a 	mov.w	r2, #1000	@ 0x3e8
 8002b3c:	2300      	movs	r3, #0
 8002b3e:	f006 fd17 	bl	8009570 <__aeabi_uldivmod>
 8002b42:	f44f 727a 	mov.w	r2, #1000	@ 0x3e8
 8002b46:	2300      	movs	r3, #0
 8002b48:	f006 fd12 	bl	8009570 <__aeabi_uldivmod>
 8002b4c:	4620      	mov	r0, r4
 8002b4e:	2108      	movs	r1, #8
 8002b50:	e9cd 23be 	strd	r2, r3, [sp, #760]	@ 0x2f8
 8002b54:	f001 fe30 	bl	80047b8 <_defmt_write>
 8002b58:	2500      	movs	r5, #0
 8002b5a:	4620      	mov	r0, r4
 8002b5c:	2102      	movs	r1, #2
 8002b5e:	f8ad 52f8 	strh.w	r5, [sp, #760]	@ 0x2f8
 8002b62:	f001 fe29 	bl	80047b8 <_defmt_write>
 8002b66:	f001 fdaf 	bl	80046c8 <_defmt_release>
 8002b6a:	984a      	ldr	r0, [sp, #296]	@ 0x128
 8002b6c:	e9d9 6312 	ldrd	r6, r3, [r9, #72]	@ 0x48
 8002b70:	e9d0 0104 	ldrd	r0, r1, [r0, #16]
 8002b74:	f8d9 4100 	ldr.w	r4, [r9, #256]	@ 0x100
 8002b78:	1980      	adds	r0, r0, r6
 8002b7a:	f999 2028 	ldrsb.w	r2, [r9, #40]	@ 0x28
 8002b7e:	f8c9 4108 	str.w	r4, [r9, #264]	@ 0x108
 8002b82:	f04f 0401 	mov.w	r4, #1
 8002b86:	4159      	adcs	r1, r3
 8002b88:	e9d9 ce10 	ldrd	ip, lr, [r9, #64]	@ 0x40
 8002b8c:	fa82 f254 	uqadd8	r2, r2, r4
 8002b90:	e9c9 5500 	strd	r5, r5, [r9]
 8002b94:	e9c9 0124 	strd	r0, r1, [r9, #144]	@ 0x90
 8002b98:	b2d0      	uxtb	r0, r2
 8002b9a:	2803      	cmp	r0, #3
 8002b9c:	f889 2028 	strb.w	r2, [r9, #40]	@ 0x28
 8002ba0:	e9c9 5520 	strd	r5, r5, [r9, #128]	@ 0x80
 8002ba4:	e9c9 ce22 	strd	ip, lr, [r9, #136]	@ 0x88
 8002ba8:	d30e      	bcc.n	8002bc8 <smoltcp::iface::interface::Interface::poll+0x1aac>
 8002baa:	f8d9 0020 	ldr.w	r0, [r9, #32]
 8002bae:	2100      	movs	r1, #0
 8002bb0:	f889 1028 	strb.w	r1, [r9, #40]	@ 0x28
 8002bb4:	f242 7210 	movw	r2, #10000	@ 0x2710
 8002bb8:	0041      	lsls	r1, r0, #1
 8002bba:	4291      	cmp	r1, r2
 8002bbc:	f242 7110 	movw	r1, #10000	@ 0x2710
 8002bc0:	bf38      	it	cc
 8002bc2:	0041      	lslcc	r1, r0, #1
 8002bc4:	f8c9 1020 	str.w	r1, [r9, #32]
 8002bc8:	984a      	ldr	r0, [sp, #296]	@ 0x128
 8002bca:	68c1      	ldr	r1, [r0, #12]
 8002bcc:	4648      	mov	r0, r9
 8002bce:	f003 fc89 	bl	80064e4 <smoltcp::socket::tcp::Socket::seq_to_transmit>
 8002bd2:	2800      	cmp	r0, #0
 8002bd4:	d03e      	beq.n	8002c54 <smoltcp::iface::interface::Interface::poll+0x1b38>
 8002bd6:	f8b9 011c 	ldrh.w	r0, [r9, #284]	@ 0x11c
 8002bda:	07c0      	lsls	r0, r0, #31
 8002bdc:	f000 83e0 	beq.w	80033a0 <smoltcp::iface::interface::Interface::poll+0x2284>
 8002be0:	f899 112a 	ldrb.w	r1, [r9, #298]	@ 0x12a
 8002be4:	f44f 7a50 	mov.w	sl, #832	@ 0x340
 8002be8:	f8d9 40c4 	ldr.w	r4, [r9, #196]	@ 0xc4
 8002bec:	2900      	cmp	r1, #0
 8002bee:	f899 012b 	ldrb.w	r0, [r9, #299]	@ 0x12b
 8002bf2:	bf18      	it	ne
 8002bf4:	f500 7a40 	addne.w	sl, r0, #768	@ 0x300
 8002bf8:	f1b4 3fff 	cmp.w	r4, #4294967295	@ 0xffffffff
 8002bfc:	f340 836d 	ble.w	80032da <smoltcp::iface::interface::Interface::poll+0x21be>
 8002c00:	f8d9 011e 	ldr.w	r0, [r9, #286]	@ 0x11e
 8002c04:	903c      	str	r0, [sp, #240]	@ 0xf0
 8002c06:	f8d9 0124 	ldr.w	r0, [r9, #292]	@ 0x124
 8002c0a:	9041      	str	r0, [sp, #260]	@ 0x104
 8002c0c:	f8b9 0122 	ldrh.w	r0, [r9, #290]	@ 0x122
 8002c10:	903b      	str	r0, [sp, #236]	@ 0xec
 8002c12:	f8b9 0128 	ldrh.w	r0, [r9, #296]	@ 0x128
 8002c16:	f899 1134 	ldrb.w	r1, [r9, #308]	@ 0x134
 8002c1a:	903a      	str	r0, [sp, #232]	@ 0xe8
 8002c1c:	f8d9 00bc 	ldr.w	r0, [r9, #188]	@ 0xbc
 8002c20:	f001 011f 	and.w	r1, r1, #31
 8002c24:	e9d9 5641 	ldrd	r5, r6, [r9, #260]	@ 0x104
 8002c28:	1b00      	subs	r0, r0, r4
 8002c2a:	f8d9 2114 	ldr.w	r2, [r9, #276]	@ 0x114
 8002c2e:	fa20 f101 	lsr.w	r1, r0, r1
 8002c32:	f64f 70ff 	movw	r0, #65535	@ 0xffff
 8002c36:	4281      	cmp	r1, r0
 8002c38:	bf28      	it	cs
 8002c3a:	4601      	movcs	r1, r0
 8002c3c:	2a00      	cmp	r2, #0
 8002c3e:	9142      	str	r1, [sp, #264]	@ 0x108
 8002c40:	923d      	str	r2, [sp, #244]	@ 0xf4
 8002c42:	f000 80c1 	beq.w	8002dc8 <smoltcp::iface::interface::Interface::poll+0x1cac>
 8002c46:	f8d9 0118 	ldr.w	r0, [r9, #280]	@ 0x118
 8002c4a:	9037      	str	r0, [sp, #220]	@ 0xdc
 8002c4c:	4790      	blx	r2
 8002c4e:	9036      	str	r0, [sp, #216]	@ 0xd8
 8002c50:	2001      	movs	r0, #1
 8002c52:	e0ba      	b.n	8002dca <smoltcp::iface::interface::Interface::poll+0x1cae>
 8002c54:	f8d9 1098 	ldr.w	r1, [r9, #152]	@ 0x98
 8002c58:	2901      	cmp	r1, #1
 8002c5a:	d10f      	bne.n	8002c7c <smoltcp::iface::interface::Interface::poll+0x1b60>
 8002c5c:	f8d9 00c4 	ldr.w	r0, [r9, #196]	@ 0xc4
 8002c60:	f1b0 3fff 	cmp.w	r0, #4294967295	@ 0xffffffff
 8002c64:	f340 8339 	ble.w	80032da <smoltcp::iface::interface::Interface::poll+0x21be>
 8002c68:	f8d9 3104 	ldr.w	r3, [r9, #260]	@ 0x104
 8002c6c:	f8d9 209c 	ldr.w	r2, [r9, #156]	@ 0x9c
 8002c70:	4418      	add	r0, r3
 8002c72:	1a10      	subs	r0, r2, r0
 8002c74:	f1b0 3fff 	cmp.w	r0, #4294967295	@ 0xffffffff
 8002c78:	f340 814f 	ble.w	8002f1a <smoltcp::iface::interface::Interface::poll+0x1dfe>
 8002c7c:	f899 0133 	ldrb.w	r0, [r9, #307]	@ 0x133
 8002c80:	1e82      	subs	r2, r0, #2
 8002c82:	2a04      	cmp	r2, #4
 8002c84:	d834      	bhi.n	8002cf0 <smoltcp::iface::interface::Interface::poll+0x1bd4>
 8002c86:	f899 2134 	ldrb.w	r2, [r9, #308]	@ 0x134
 8002c8a:	f8d9 30bc 	ldr.w	r3, [r9, #188]	@ 0xbc
 8002c8e:	f8d9 50c4 	ldr.w	r5, [r9, #196]	@ 0xc4
 8002c92:	f002 021f 	and.w	r2, r2, #31
 8002c96:	1b5b      	subs	r3, r3, r5
 8002c98:	fa23 f602 	lsr.w	r6, r3, r2
 8002c9c:	f64f 73ff 	movw	r3, #65535	@ 0xffff
 8002ca0:	429e      	cmp	r6, r3
 8002ca2:	bf38      	it	cc
 8002ca4:	4633      	movcc	r3, r6
 8002ca6:	b319      	cbz	r1, 8002cf0 <smoltcp::iface::interface::Interface::poll+0x1bd4>
 8002ca8:	f1b5 3fff 	cmp.w	r5, #4294967295	@ 0xffffffff
 8002cac:	bfc2      	ittt	gt
 8002cae:	f8b9 112e 	ldrhgt.w	r1, [r9, #302]	@ 0x12e
 8002cb2:	4091      	lslgt	r1, r2
 8002cb4:	f1b1 3fff 	cmpgt.w	r1, #4294967295	@ 0xffffffff
 8002cb8:	f340 830f 	ble.w	80032da <smoltcp::iface::interface::Interface::poll+0x21be>
 8002cbc:	f8d9 409c 	ldr.w	r4, [r9, #156]	@ 0x9c
 8002cc0:	f8d9 c104 	ldr.w	ip, [r9, #260]	@ 0x104
 8002cc4:	4421      	add	r1, r4
 8002cc6:	4465      	add	r5, ip
 8002cc8:	1b49      	subs	r1, r1, r5
 8002cca:	f1b1 3fff 	cmp.w	r1, #4294967295	@ 0xffffffff
 8002cce:	f340 8373 	ble.w	80033b8 <smoltcp::iface::interface::Interface::poll+0x229c>
 8002cd2:	b16e      	cbz	r6, 8002cf0 <smoltcp::iface::interface::Interface::poll+0x1bd4>
 8002cd4:	40d1      	lsrs	r1, r2
 8002cd6:	f64f 72ff 	movw	r2, #65535	@ 0xffff
 8002cda:	4291      	cmp	r1, r2
 8002cdc:	bf28      	it	cs
 8002cde:	4611      	movcs	r1, r2
 8002ce0:	ebb1 0f53 	cmp.w	r1, r3, lsr #1
 8002ce4:	f04f 0100 	mov.w	r1, #0
 8002ce8:	bf98      	it	ls
 8002cea:	2101      	movls	r1, #1
 8002cec:	b121      	cbz	r1, 8002cf8 <smoltcp::iface::interface::Interface::poll+0x1bdc>
 8002cee:	e772      	b.n	8002bd6 <smoltcp::iface::interface::Interface::poll+0x1aba>
 8002cf0:	2100      	movs	r1, #0
 8002cf2:	2900      	cmp	r1, #0
 8002cf4:	f47f af6f 	bne.w	8002bd6 <smoltcp::iface::interface::Interface::poll+0x1aba>
 8002cf8:	2800      	cmp	r0, #0
 8002cfa:	f43f af6c 	beq.w	8002bd6 <smoltcp::iface::interface::Interface::poll+0x1aba>
 8002cfe:	4648      	mov	r0, r9
 8002d00:	994a      	ldr	r1, [sp, #296]	@ 0x128
 8002d02:	f850 5f80 	ldr.w	r5, [r0, #128]!
 8002d06:	f100 0c04 	add.w	ip, r0, #4
 8002d0a:	e9d1 2e04 	ldrd	r2, lr, [r1, #16]
 8002d0e:	e89c 1050 	ldmia.w	ip, {r4, r6, ip}
 8002d12:	ea55 0304 	orrs.w	r3, r5, r4
 8002d16:	d108      	bne.n	8002d2a <smoltcp::iface::interface::Interface::poll+0x1c0e>
 8002d18:	07f3      	lsls	r3, r6, #31
 8002d1a:	d006      	beq.n	8002d2a <smoltcp::iface::interface::Interface::poll+0x1c0e>
 8002d1c:	e9d0 3104 	ldrd	r3, r1, [r0, #16]
 8002d20:	1ad3      	subs	r3, r2, r3
 8002d22:	eb7e 0101 	sbcs.w	r1, lr, r1
 8002d26:	f6bf af56 	bge.w	8002bd6 <smoltcp::iface::interface::Interface::poll+0x1aba>
 8002d2a:	f085 0103 	eor.w	r1, r5, #3
 8002d2e:	9d48      	ldr	r5, [sp, #288]	@ 0x120
 8002d30:	4321      	orrs	r1, r4
 8002d32:	f47f acc5 	bne.w	80026c0 <smoltcp::iface::interface::Interface::poll+0x15a4>
 8002d36:	1b91      	subs	r1, r2, r6
 8002d38:	eb7e 010c 	sbcs.w	r1, lr, ip
 8002d3c:	f6ff acc0 	blt.w	80026c0 <smoltcp::iface::interface::Interface::poll+0x15a4>
 8002d40:	462e      	mov	r6, r5
 8002d42:	2500      	movs	r5, #0
 8002d44:	e9c0 5500 	strd	r5, r5, [r0]
 8002d48:	f44f 7196 	mov.w	r1, #300	@ 0x12c
 8002d4c:	e9c0 5502 	strd	r5, r5, [r0, #8]
 8002d50:	2064      	movs	r0, #100	@ 0x64
 8002d52:	e9c9 1008 	strd	r1, r0, [r9, #32]
 8002d56:	f109 00d0 	add.w	r0, r9, #208	@ 0xd0
 8002d5a:	2128      	movs	r1, #40	@ 0x28
 8002d5c:	e9c9 5500 	strd	r5, r5, [r9]
 8002d60:	f889 5133 	strb.w	r5, [r9, #307]	@ 0x133
 8002d64:	f8c9 5018 	str.w	r5, [r9, #24]
 8002d68:	f889 5130 	strb.w	r5, [r9, #304]	@ 0x130
 8002d6c:	e9c9 5530 	strd	r5, r5, [r9, #192]	@ 0xc0
 8002d70:	f889 5028 	strb.w	r5, [r9, #40]	@ 0x28
 8002d74:	f8d9 40bc 	ldr.w	r4, [r9, #188]	@ 0xbc
 8002d78:	f8a9 511c 	strh.w	r5, [r9, #284]	@ 0x11c
 8002d7c:	f889 50b2 	strb.w	r5, [r9, #178]	@ 0xb2
 8002d80:	f8a9 50b0 	strh.w	r5, [r9, #176]	@ 0xb0
 8002d84:	f8a9 512e 	strh.w	r5, [r9, #302]	@ 0x12e
 8002d88:	f8c9 5098 	str.w	r5, [r9, #152]	@ 0x98
 8002d8c:	f889 512c 	strb.w	r5, [r9, #300]	@ 0x12c
 8002d90:	e9c9 5540 	strd	r5, r5, [r9, #256]	@ 0x100
 8002d94:	e9c9 5542 	strd	r5, r5, [r9, #264]	@ 0x108
 8002d98:	f005 fdad 	bl	80088f6 <__aeabi_memclr8>
 8002d9c:	f44f 7006 	mov.w	r0, #536	@ 0x218
 8002da0:	e9c9 553e 	strd	r5, r5, [r9, #248]	@ 0xf8
 8002da4:	f8c9 0110 	str.w	r0, [r9, #272]	@ 0x110
 8002da8:	fab4 f084 	clz	r0, r4
 8002dac:	f1c0 0110 	rsb	r1, r0, #16
 8002db0:	2210      	movs	r2, #16
 8002db2:	e9c9 551c 	strd	r5, r5, [r9, #112]	@ 0x70
 8002db6:	4282      	cmp	r2, r0
 8002db8:	e9c9 5514 	strd	r5, r5, [r9, #80]	@ 0x50
 8002dbc:	bf38      	it	cc
 8002dbe:	4629      	movcc	r1, r5
 8002dc0:	4635      	mov	r5, r6
 8002dc2:	f889 1134 	strb.w	r1, [r9, #308]	@ 0x134
 8002dc6:	e47b      	b.n	80026c0 <smoltcp::iface::interface::Interface::poll+0x15a4>
 8002dc8:	2000      	movs	r0, #0
 8002dca:	9039      	str	r0, [sp, #228]	@ 0xe4
 8002dcc:	1960      	adds	r0, r4, r5
 8002dce:	f899 4133 	ldrb.w	r4, [r9, #307]	@ 0x133
 8002dd2:	f04f 0800 	mov.w	r8, #0
 8002dd6:	903f      	str	r0, [sp, #252]	@ 0xfc
 8002dd8:	2001      	movs	r0, #1
 8002dda:	963e      	str	r6, [sp, #248]	@ 0xf8
 8002ddc:	2200      	movs	r2, #0
 8002dde:	9045      	str	r0, [sp, #276]	@ 0x114
 8002de0:	2001      	movs	r0, #1
 8002de2:	9040      	str	r0, [sp, #256]	@ 0x100
 8002de4:	2000      	movs	r0, #0
 8002de6:	2300      	movs	r3, #0
 8002de8:	9046      	str	r0, [sp, #280]	@ 0x118
 8002dea:	f04f 0b01 	mov.w	fp, #1
 8002dee:	f04f 0e00 	mov.w	lr, #0
 8002df2:	9d48      	ldr	r5, [sp, #288]	@ 0x120
 8002df4:	e8df f014 	tbh	[pc, r4, lsl #1]
 8002df8:	000b00a3 	.word	0x000b00a3
 8002dfc:	00510051 	.word	0x00510051
 8002e00:	000c000c 	.word	0x000c000c
 8002e04:	000c00f0 	.word	0x000c00f0
 8002e08:	000c000c 	.word	0x000c000c
 8002e0c:	00f0      	.short	0x00f0
 8002e0e:	e457      	b.n	80026c0 <smoltcp::iface::interface::Interface::poll+0x15a4>
 8002e10:	f8d9 010c 	ldr.w	r0, [r9, #268]	@ 0x10c
 8002e14:	f1b0 3fff 	cmp.w	r0, #4294967295	@ 0xffffffff
 8002e18:	f340 825f 	ble.w	80032da <smoltcp::iface::interface::Interface::poll+0x21be>
 8002e1c:	f8d9 2100 	ldr.w	r2, [r9, #256]	@ 0x100
 8002e20:	994a      	ldr	r1, [sp, #296]	@ 0x128
 8002e22:	f8d9 3108 	ldr.w	r3, [r9, #264]	@ 0x108
 8002e26:	4410      	add	r0, r2
 8002e28:	f8d9 5110 	ldr.w	r5, [r9, #272]	@ 0x110
 8002e2c:	1ac0      	subs	r0, r0, r3
 8002e2e:	68ce      	ldr	r6, [r1, #12]
 8002e30:	ea20 71e0 	bic.w	r1, r0, r0, asr #31
 8002e34:	f1a6 0036 	sub.w	r0, r6, #54	@ 0x36
 8002e38:	428d      	cmp	r5, r1
 8002e3a:	bf38      	it	cc
 8002e3c:	4629      	movcc	r1, r5
 8002e3e:	4288      	cmp	r0, r1
 8002e40:	bf38      	it	cc
 8002e42:	4601      	movcc	r1, r0
 8002e44:	1a9b      	subs	r3, r3, r2
 8002e46:	f100 82b7 	bmi.w	80033b8 <smoltcp::iface::interface::Interface::poll+0x229c>
 8002e4a:	f8d9 20cc 	ldr.w	r2, [r9, #204]	@ 0xcc
 8002e4e:	2a00      	cmp	r2, #0
 8002e50:	d03f      	beq.n	8002ed2 <smoltcp::iface::interface::Interface::poll+0x1db6>
 8002e52:	f8d9 00d0 	ldr.w	r0, [r9, #208]	@ 0xd0
 8002e56:	4418      	add	r0, r3
 8002e58:	fbb0 f6f2 	udiv	r6, r0, r2
 8002e5c:	fb06 0012 	mls	r0, r6, r2, r0
 8002e60:	f8d9 50d4 	ldr.w	r5, [r9, #212]	@ 0xd4
 8002e64:	429d      	cmp	r5, r3
 8002e66:	d239      	bcs.n	8002edc <smoltcp::iface::interface::Interface::poll+0x1dc0>
 8002e68:	2001      	movs	r0, #1
 8002e6a:	9040      	str	r0, [sp, #256]	@ 0x100
 8002e6c:	eb08 0003 	add.w	r0, r8, r3
 8002e70:	42a8      	cmp	r0, r5
 8002e72:	d14b      	bne.n	8002f0c <smoltcp::iface::interface::Interface::poll+0x1df0>
 8002e74:	3c04      	subs	r4, #4
 8002e76:	2001      	movs	r0, #1
 8002e78:	2200      	movs	r2, #0
 8002e7a:	2c05      	cmp	r4, #5
 8002e7c:	9045      	str	r0, [sp, #276]	@ 0x114
 8002e7e:	d848      	bhi.n	8002f12 <smoltcp::iface::interface::Interface::poll+0x1df6>
 8002e80:	2100      	movs	r1, #0
 8002e82:	2300      	movs	r3, #0
 8002e84:	9146      	str	r1, [sp, #280]	@ 0x118
 8002e86:	e8df f004 	tbb	[pc, r4]
 8002e8a:	03a0      	.short	0x03a0
 8002e8c:	0303a0a7 	.word	0x0303a0a7
 8002e90:	2003      	movs	r0, #3
 8002e92:	9046      	str	r0, [sp, #280]	@ 0x118
 8002e94:	2001      	movs	r0, #1
 8002e96:	9045      	str	r0, [sp, #276]	@ 0x114
 8002e98:	e056      	b.n	8002f48 <smoltcp::iface::interface::Interface::poll+0x1e2c>
 8002e9a:	f8d9 00bc 	ldr.w	r0, [r9, #188]	@ 0xbc
 8002e9e:	f8d9 10c4 	ldr.w	r1, [r9, #196]	@ 0xc4
 8002ea2:	f8d9 2100 	ldr.w	r2, [r9, #256]	@ 0x100
 8002ea6:	1a41      	subs	r1, r0, r1
 8002ea8:	f64f 70ff 	movw	r0, #65535	@ 0xffff
 8002eac:	923e      	str	r2, [sp, #248]	@ 0xf8
 8002eae:	4281      	cmp	r1, r0
 8002eb0:	bf28      	it	cs
 8002eb2:	4601      	movcs	r1, r0
 8002eb4:	2001      	movs	r0, #1
 8002eb6:	2c02      	cmp	r4, #2
 8002eb8:	9142      	str	r1, [sp, #264]	@ 0x108
 8002eba:	d148      	bne.n	8002f4e <smoltcp::iface::interface::Interface::poll+0x1e32>
 8002ebc:	9040      	str	r0, [sp, #256]	@ 0x100
 8002ebe:	2201      	movs	r2, #1
 8002ec0:	f899 0134 	ldrb.w	r0, [r9, #308]	@ 0x134
 8002ec4:	2301      	movs	r3, #1
 8002ec6:	9032      	str	r0, [sp, #200]	@ 0xc8
 8002ec8:	2000      	movs	r0, #0
 8002eca:	9045      	str	r0, [sp, #276]	@ 0x114
 8002ecc:	2002      	movs	r0, #2
 8002ece:	9046      	str	r0, [sp, #280]	@ 0x118
 8002ed0:	e049      	b.n	8002f66 <smoltcp::iface::interface::Interface::poll+0x1e4a>
 8002ed2:	2000      	movs	r0, #0
 8002ed4:	f8d9 50d4 	ldr.w	r5, [r9, #212]	@ 0xd4
 8002ed8:	429d      	cmp	r5, r3
 8002eda:	d3c5      	bcc.n	8002e68 <smoltcp::iface::interface::Interface::poll+0x1d4c>
 8002edc:	eba5 0803 	sub.w	r8, r5, r3
 8002ee0:	4541      	cmp	r1, r8
 8002ee2:	bf38      	it	cc
 8002ee4:	4688      	movcc	r8, r1
 8002ee6:	1a11      	subs	r1, r2, r0
 8002ee8:	4588      	cmp	r8, r1
 8002eea:	bf28      	it	cs
 8002eec:	4688      	movcs	r8, r1
 8002eee:	eb18 0100 	adds.w	r1, r8, r0
 8002ef2:	f080 826c 	bcs.w	80033ce <smoltcp::iface::interface::Interface::poll+0x22b2>
 8002ef6:	4291      	cmp	r1, r2
 8002ef8:	f200 8269 	bhi.w	80033ce <smoltcp::iface::interface::Interface::poll+0x22b2>
 8002efc:	f8d9 10c8 	ldr.w	r1, [r9, #200]	@ 0xc8
 8002f00:	4408      	add	r0, r1
 8002f02:	9040      	str	r0, [sp, #256]	@ 0x100
 8002f04:	eb08 0003 	add.w	r0, r8, r3
 8002f08:	42a8      	cmp	r0, r5
 8002f0a:	d0b3      	beq.n	8002e74 <smoltcp::iface::interface::Interface::poll+0x1d58>
 8002f0c:	2001      	movs	r0, #1
 8002f0e:	2200      	movs	r2, #0
 8002f10:	9045      	str	r0, [sp, #276]	@ 0x114
 8002f12:	2300      	movs	r3, #0
 8002f14:	2000      	movs	r0, #0
 8002f16:	9046      	str	r0, [sp, #280]	@ 0x118
 8002f18:	e05e      	b.n	8002fd8 <smoltcp::iface::interface::Interface::poll+0x1ebc>
 8002f1a:	e9d9 021c 	ldrd	r0, r2, [r9, #112]	@ 0x70
 8002f1e:	f080 0001 	eor.w	r0, r0, #1
 8002f22:	4310      	orrs	r0, r2
 8002f24:	f47f ae57 	bne.w	8002bd6 <smoltcp::iface::interface::Interface::poll+0x1aba>
 8002f28:	9b4a      	ldr	r3, [sp, #296]	@ 0x128
 8002f2a:	e9d9 021e 	ldrd	r0, r2, [r9, #120]	@ 0x78
 8002f2e:	e9d3 3604 	ldrd	r3, r6, [r3, #16]
 8002f32:	1a18      	subs	r0, r3, r0
 8002f34:	eb76 0002 	sbcs.w	r0, r6, r2
 8002f38:	f6bf ae4d 	bge.w	8002bd6 <smoltcp::iface::interface::Interface::poll+0x1aba>
 8002f3c:	e69e      	b.n	8002c7c <smoltcp::iface::interface::Interface::poll+0x1b60>
 8002f3e:	2004      	movs	r0, #4
 8002f40:	9046      	str	r0, [sp, #280]	@ 0x118
 8002f42:	2001      	movs	r0, #1
 8002f44:	9045      	str	r0, [sp, #276]	@ 0x114
 8002f46:	9040      	str	r0, [sp, #256]	@ 0x100
 8002f48:	f04f 0b00 	mov.w	fp, #0
 8002f4c:	e044      	b.n	8002fd8 <smoltcp::iface::interface::Interface::poll+0x1ebc>
 8002f4e:	9045      	str	r0, [sp, #276]	@ 0x114
 8002f50:	f899 0134 	ldrb.w	r0, [r9, #308]	@ 0x134
 8002f54:	9032      	str	r0, [sp, #200]	@ 0xc8
 8002f56:	2002      	movs	r0, #2
 8002f58:	9046      	str	r0, [sp, #280]	@ 0x118
 8002f5a:	2001      	movs	r0, #1
 8002f5c:	f899 212c 	ldrb.w	r2, [r9, #300]	@ 0x12c
 8002f60:	f899 3131 	ldrb.w	r3, [r9, #305]	@ 0x131
 8002f64:	9040      	str	r0, [sp, #256]	@ 0x100
 8002f66:	f04f 0b00 	mov.w	fp, #0
 8002f6a:	f04f 0e01 	mov.w	lr, #1
 8002f6e:	e033      	b.n	8002fd8 <smoltcp::iface::interface::Interface::poll+0x1ebc>
 8002f70:	f04f 0c00 	mov.w	ip, #0
 8002f74:	9845      	ldr	r0, [sp, #276]	@ 0x114
 8002f76:	42b1      	cmp	r1, r6
 8002f78:	f200 8207 	bhi.w	800338a <smoltcp::iface::interface::Interface::poll+0x226e>
 8002f7c:	2202      	movs	r2, #2
 8002f7e:	2d00      	cmp	r5, #0
 8002f80:	f47f ad8a 	bne.w	8002a98 <smoltcp::iface::interface::Interface::poll+0x197c>
 8002f84:	2300      	movs	r3, #0
 8002f86:	9d48      	ldr	r5, [sp, #288]	@ 0x120
 8002f88:	1a61      	subs	r1, r4, r1
 8002f8a:	2a02      	cmp	r2, #2
 8002f8c:	e9c9 3112 	strd	r3, r1, [r9, #72]	@ 0x48
 8002f90:	d10a      	bne.n	8002fa8 <smoltcp::iface::interface::Interface::poll+0x1e8c>
 8002f92:	9940      	ldr	r1, [sp, #256]	@ 0x100
 8002f94:	9b41      	ldr	r3, [sp, #260]	@ 0x104
 8002f96:	3101      	adds	r1, #1
 8002f98:	fbb1 f2f3 	udiv	r2, r1, r3
 8002f9c:	fb02 1113 	mls	r1, r2, r3, r1
 8002fa0:	1e42      	subs	r2, r0, #1
 8002fa2:	e9c9 120e 	strd	r1, r2, [r9, #56]	@ 0x38
 8002fa6:	2202      	movs	r2, #2
 8002fa8:	2a02      	cmp	r2, #2
 8002faa:	f04f 0102 	mov.w	r1, #2
 8002fae:	bf28      	it	cs
 8002fb0:	460a      	movcs	r2, r1
 8002fb2:	2a02      	cmp	r2, #2
 8002fb4:	f43f ab84 	beq.w	80026c0 <smoltcp::iface::interface::Interface::poll+0x15a4>
 8002fb8:	07d1      	lsls	r1, r2, #31
 8002fba:	f000 819f 	beq.w	80032fc <smoltcp::iface::interface::Interface::poll+0x21e0>
 8002fbe:	9a47      	ldr	r2, [sp, #284]	@ 0x11c
 8002fc0:	f1bc 0f00 	cmp.w	ip, #0
 8002fc4:	f040 80f3 	bne.w	80031ae <smoltcp::iface::interface::Interface::poll+0x2092>
 8002fc8:	e1cc      	b.n	8003364 <smoltcp::iface::interface::Interface::poll+0x2248>
 8002fca:	f1b8 0f00 	cmp.w	r8, #0
 8002fce:	f000 815c 	beq.w	800328a <smoltcp::iface::interface::Interface::poll+0x216e>
 8002fd2:	2001      	movs	r0, #1
 8002fd4:	e9cd 0045 	strd	r0, r0, [sp, #276]	@ 0x114
 8002fd8:	f109 0680 	add.w	r6, r9, #128	@ 0x80
 8002fdc:	984a      	ldr	r0, [sp, #296]	@ 0x128
 8002fde:	9247      	str	r2, [sp, #284]	@ 0x11c
 8002fe0:	469c      	mov	ip, r3
 8002fe2:	ce70      	ldmia	r6, {r4, r5, r6}
 8002fe4:	e9d9 1224 	ldrd	r1, r2, [r9, #144]	@ 0x90
 8002fe8:	4325      	orrs	r5, r4
 8002fea:	e9d0 3004 	ldrd	r3, r0, [r0, #16]
 8002fee:	fab5 f585 	clz	r5, r5
 8002ff2:	1a59      	subs	r1, r3, r1
 8002ff4:	ea4f 1555 	mov.w	r5, r5, lsr #5
 8002ff8:	4190      	sbcs	r0, r2
 8002ffa:	ea06 0605 	and.w	r6, r6, r5
 8002ffe:	f04f 0000 	mov.w	r0, #0
 8003002:	fab8 f188 	clz	r1, r8
 8003006:	bfa8      	it	ge
 8003008:	2001      	movge	r0, #1
 800300a:	4030      	ands	r0, r6
 800300c:	0949      	lsrs	r1, r1, #5
 800300e:	ea00 000b 	and.w	r0, r0, fp
 8003012:	ea10 0201 	ands.w	r2, r0, r1
 8003016:	9234      	str	r2, [sp, #208]	@ 0xd0
 8003018:	d00e      	beq.n	8003038 <smoltcp::iface::interface::Interface::poll+0x1f1c>
 800301a:	f8dd b0f8 	ldr.w	fp, [sp, #248]	@ 0xf8
 800301e:	f649 4490 	movw	r4, #40080	@ 0x9c90
 8003022:	9a43      	ldr	r2, [sp, #268]	@ 0x10c
 8003024:	f04f 0801 	mov.w	r8, #1
 8003028:	9d48      	ldr	r5, [sp, #288]	@ 0x120
 800302a:	f1ab 0b01 	sub.w	fp, fp, #1
 800302e:	f6c0 0400 	movt	r4, #2048	@ 0x800
 8003032:	2000      	movs	r0, #0
 8003034:	2314      	movs	r3, #20
 8003036:	e01c      	b.n	8003072 <smoltcp::iface::interface::Interface::poll+0x1f56>
 8003038:	f8dd b0f8 	ldr.w	fp, [sp, #248]	@ 0xf8
 800303c:	f1b8 0f00 	cmp.w	r8, #0
 8003040:	d008      	beq.n	8003054 <smoltcp::iface::interface::Interface::poll+0x1f38>
 8003042:	f8d9 0100 	ldr.w	r0, [r9, #256]	@ 0x100
 8003046:	f8d9 1108 	ldr.w	r1, [r9, #264]	@ 0x108
 800304a:	1a08      	subs	r0, r1, r0
 800304c:	f1b0 3fff 	cmp.w	r0, #4294967295	@ 0xffffffff
 8003050:	f340 81b2 	ble.w	80033b8 <smoltcp::iface::interface::Interface::poll+0x229c>
 8003054:	f1be 0f00 	cmp.w	lr, #0
 8003058:	d006      	beq.n	8003068 <smoltcp::iface::interface::Interface::poll+0x1f4c>
 800305a:	984a      	ldr	r0, [sp, #296]	@ 0x128
 800305c:	2318      	movs	r3, #24
 800305e:	8980      	ldrh	r0, [r0, #12]
 8003060:	3836      	subs	r0, #54	@ 0x36
 8003062:	9033      	str	r0, [sp, #204]	@ 0xcc
 8003064:	2001      	movs	r0, #1
 8003066:	e001      	b.n	800306c <smoltcp::iface::interface::Interface::poll+0x1f50>
 8003068:	2000      	movs	r0, #0
 800306a:	2314      	movs	r3, #20
 800306c:	9a43      	ldr	r2, [sp, #268]	@ 0x10c
 800306e:	9d48      	ldr	r5, [sp, #288]	@ 0x120
 8003070:	9c40      	ldr	r4, [sp, #256]	@ 0x100
 8003072:	9946      	ldr	r1, [sp, #280]	@ 0x118
 8003074:	4666      	mov	r6, ip
 8003076:	f88d 1351 	strb.w	r1, [sp, #849]	@ 0x351
 800307a:	9942      	ldr	r1, [sp, #264]	@ 0x108
 800307c:	f8ad 134e 	strh.w	r1, [sp, #846]	@ 0x34e
 8003080:	993a      	ldr	r1, [sp, #232]	@ 0xe8
 8003082:	f8ad 134c 	strh.w	r1, [sp, #844]	@ 0x34c
 8003086:	993b      	ldr	r1, [sp, #236]	@ 0xec
 8003088:	f8ad 134a 	strh.w	r1, [sp, #842]	@ 0x34a
 800308c:	9932      	ldr	r1, [sp, #200]	@ 0xc8
 800308e:	f88d 1349 	strb.w	r1, [sp, #841]	@ 0x349
 8003092:	a9cf      	add	r1, sp, #828	@ 0x33c
 8003094:	f8ad 0338 	strh.w	r0, [sp, #824]	@ 0x338
 8003098:	9837      	ldr	r0, [sp, #220]	@ 0xdc
 800309a:	e881 0910 	stmia.w	r1, {r4, r8, fp}
 800309e:	9933      	ldr	r1, [sp, #204]	@ 0xcc
 80030a0:	90cd      	str	r0, [sp, #820]	@ 0x334
 80030a2:	9836      	ldr	r0, [sp, #216]	@ 0xd8
 80030a4:	f8ad 133a 	strh.w	r1, [sp, #826]	@ 0x33a
 80030a8:	90cc      	str	r0, [sp, #816]	@ 0x330
 80030aa:	9839      	ldr	r0, [sp, #228]	@ 0xe4
 80030ac:	993f      	ldr	r1, [sp, #252]	@ 0xfc
 80030ae:	f88d c350 	strb.w	ip, [sp, #848]	@ 0x350
 80030b2:	f8dd c11c 	ldr.w	ip, [sp, #284]	@ 0x11c
 80030b6:	90cb      	str	r0, [sp, #812]	@ 0x32c
 80030b8:	2000      	movs	r0, #0
 80030ba:	91c1      	str	r1, [sp, #772]	@ 0x304
 80030bc:	f1bc 0f00 	cmp.w	ip, #0
 80030c0:	9945      	ldr	r1, [sp, #276]	@ 0x114
 80030c2:	91c0      	str	r1, [sp, #768]	@ 0x300
 80030c4:	9c41      	ldr	r4, [sp, #260]	@ 0x104
 80030c6:	993c      	ldr	r1, [sp, #240]	@ 0xf0
 80030c8:	90c8      	str	r0, [sp, #800]	@ 0x320
 80030ca:	90c5      	str	r0, [sp, #788]	@ 0x314
 80030cc:	90c2      	str	r0, [sp, #776]	@ 0x308
 80030ce:	90bf      	str	r0, [sp, #764]	@ 0x2fc
 80030d0:	984a      	ldr	r0, [sp, #296]	@ 0x128
 80030d2:	f88d c348 	strb.w	ip, [sp, #840]	@ 0x348
 80030d6:	f8cd a360 	str.w	sl, [sp, #864]	@ 0x360
 80030da:	94d6      	str	r4, [sp, #856]	@ 0x358
 80030dc:	91d5      	str	r1, [sp, #852]	@ 0x354
 80030de:	90be      	str	r0, [sp, #760]	@ 0x2f8
 80030e0:	bf18      	it	ne
 80030e2:	f043 0303 	orrne.w	r3, r3, #3
 80030e6:	993d      	ldr	r1, [sp, #244]	@ 0xf4
 80030e8:	eb03 0046 	add.w	r0, r3, r6, lsl #1
 80030ec:	2900      	cmp	r1, #0
 80030ee:	bf18      	it	ne
 80030f0:	300a      	addne	r0, #10
 80030f2:	3003      	adds	r0, #3
 80030f4:	f020 0003 	bic.w	r0, r0, #3
 80030f8:	4440      	add	r0, r8
 80030fa:	90d7      	str	r0, [sp, #860]	@ 0x35c
 80030fc:	68b8      	ldr	r0, [r7, #8]
 80030fe:	e9d0 1004 	ldrd	r1, r0, [r0, #16]
 8003102:	4288      	cmp	r0, r1
 8003104:	f4be a869 	bcs.w	80011da <smoltcp::iface::interface::Interface::poll+0xbe>
 8003108:	f44f 61c6 	mov.w	r1, #1584	@ 0x630
 800310c:	4348      	muls	r0, r1
 800310e:	6811      	ldr	r1, [r2, #0]
 8003110:	5808      	ldr	r0, [r1, r0]
 8003112:	2800      	cmp	r0, #0
 8003114:	f100 80ec 	bmi.w	80032f0 <smoltcp::iface::interface::Interface::poll+0x21d4>
 8003118:	2000      	movs	r0, #0
 800311a:	9b38      	ldr	r3, [sp, #224]	@ 0xe0
 800311c:	90a5      	str	r0, [sp, #660]	@ 0x294
 800311e:	a9a5      	add	r1, sp, #660	@ 0x294
 8003120:	984a      	ldr	r0, [sp, #296]	@ 0x128
 8003122:	92a7      	str	r2, [sp, #668]	@ 0x29c
 8003124:	2200      	movs	r2, #0
 8003126:	f7fd f919 	bl	800035c <smoltcp::iface::interface::InterfaceInner::dispatch_ip>
 800312a:	b2c0      	uxtb	r0, r0
 800312c:	2802      	cmp	r0, #2
 800312e:	d13d      	bne.n	80031ac <smoltcp::iface::interface::Interface::poll+0x2090>
 8003130:	e9d9 0120 	ldrd	r0, r1, [r9, #128]	@ 0x80
 8003134:	4308      	orrs	r0, r1
 8003136:	d10c      	bne.n	8003152 <smoltcp::iface::interface::Interface::poll+0x2036>
 8003138:	9e4a      	ldr	r6, [sp, #296]	@ 0x128
 800313a:	f109 0340 	add.w	r3, r9, #64	@ 0x40
 800313e:	f109 0c88 	add.w	ip, r9, #136	@ 0x88
 8003142:	e9d6 6504 	ldrd	r6, r5, [r6, #16]
 8003146:	cb0f      	ldmia	r3, {r0, r1, r2, r3}
 8003148:	1992      	adds	r2, r2, r6
 800314a:	416b      	adcs	r3, r5
 800314c:	9d48      	ldr	r5, [sp, #288]	@ 0x120
 800314e:	e88c 000f 	stmia.w	ip, {r0, r1, r2, r3}
 8003152:	2000      	movs	r0, #0
 8003154:	9447      	str	r4, [sp, #284]	@ 0x11c
 8003156:	e9c9 001c 	strd	r0, r0, [r9, #112]	@ 0x70
 800315a:	9834      	ldr	r0, [sp, #208]	@ 0xd0
 800315c:	2800      	cmp	r0, #0
 800315e:	f47f aaaf 	bne.w	80026c0 <smoltcp::iface::interface::Interface::poll+0x15a4>
 8003162:	9846      	ldr	r0, [sp, #280]	@ 0x118
 8003164:	f000 0106 	and.w	r1, r0, #6
 8003168:	4640      	mov	r0, r8
 800316a:	2902      	cmp	r1, #2
 800316c:	bf08      	it	eq
 800316e:	3001      	addeq	r0, #1
 8003170:	f1b0 3fff 	cmp.w	r0, #4294967295	@ 0xffffffff
 8003174:	f340 80b1 	ble.w	80032da <smoltcp::iface::interface::Interface::poll+0x21be>
 8003178:	9a42      	ldr	r2, [sp, #264]	@ 0x108
 800317a:	4458      	add	r0, fp
 800317c:	f8a9 212e 	strh.w	r2, [r9, #302]	@ 0x12e
 8003180:	2902      	cmp	r1, #2
 8003182:	9a3f      	ldr	r2, [sp, #252]	@ 0xfc
 8003184:	f04f 0100 	mov.w	r1, #0
 8003188:	9b45      	ldr	r3, [sp, #276]	@ 0x114
 800318a:	f8c9 0108 	str.w	r0, [r9, #264]	@ 0x108
 800318e:	e9c9 3226 	strd	r3, r2, [r9, #152]	@ 0x98
 8003192:	bf08      	it	eq
 8003194:	f04f 31ff 	moveq.w	r1, #4294967295	@ 0xffffffff
 8003198:	4588      	cmp	r8, r1
 800319a:	d11c      	bne.n	80031d6 <smoltcp::iface::interface::Interface::poll+0x20ba>
 800319c:	984a      	ldr	r0, [sp, #296]	@ 0x128
 800319e:	68c1      	ldr	r1, [r0, #12]
 80031a0:	4648      	mov	r0, r9
 80031a2:	f003 f99f 	bl	80064e4 <smoltcp::socket::tcp::Socket::seq_to_transmit>
 80031a6:	f8dd 8104 	ldr.w	r8, [sp, #260]	@ 0x104
 80031aa:	e060      	b.n	800326e <smoltcp::iface::interface::Interface::poll+0x2152>
 80031ac:	4622      	mov	r2, r4
 80031ae:	984a      	ldr	r0, [sp, #296]	@ 0x128
 80031b0:	9247      	str	r2, [sp, #284]	@ 0x11c
 80031b2:	e9d0 0104 	ldrd	r0, r1, [r0, #16]
 80031b6:	f8c9 2139 	str.w	r2, [r9, #313]	@ 0x139
 80031ba:	2201      	movs	r2, #1
 80031bc:	f889 2138 	strb.w	r2, [r9, #312]	@ 0x138
 80031c0:	f244 2240 	movw	r2, #16960	@ 0x4240
 80031c4:	f2c0 020f 	movt	r2, #15
 80031c8:	1880      	adds	r0, r0, r2
 80031ca:	f141 0100 	adc.w	r1, r1, #0
 80031ce:	e9c9 0150 	strd	r0, r1, [r9, #320]	@ 0x140
 80031d2:	f7ff ba75 	b.w	80026c0 <smoltcp::iface::interface::Interface::poll+0x15a4>
 80031d6:	994a      	ldr	r1, [sp, #296]	@ 0x128
 80031d8:	f8dd 8104 	ldr.w	r8, [sp, #260]	@ 0x104
 80031dc:	e9d1 2104 	ldrd	r2, r1, [r1, #16]
 80031e0:	f8d9 3018 	ldr.w	r3, [r9, #24]
 80031e4:	2b01      	cmp	r3, #1
 80031e6:	d104      	bne.n	80031f2 <smoltcp::iface::interface::Interface::poll+0x20d6>
 80031e8:	f8d9 301c 	ldr.w	r3, [r9, #28]
 80031ec:	1ac3      	subs	r3, r0, r3
 80031ee:	2b01      	cmp	r3, #1
 80031f0:	db0e      	blt.n	8003210 <smoltcp::iface::interface::Interface::poll+0x20f4>
 80031f2:	e9d9 3600 	ldrd	r3, r6, [r9]
 80031f6:	2401      	movs	r4, #1
 80031f8:	e9c9 4006 	strd	r4, r0, [r9, #24]
 80031fc:	4333      	orrs	r3, r6
 80031fe:	d107      	bne.n	8003210 <smoltcp::iface::interface::Interface::poll+0x20f4>
 8003200:	2301      	movs	r3, #1
 8003202:	e9c9 1003 	strd	r1, r0, [r9, #12]
 8003206:	f8c9 3000 	str.w	r3, [r9]
 800320a:	2300      	movs	r3, #0
 800320c:	e9c9 3201 	strd	r3, r2, [r9, #4]
 8003210:	984a      	ldr	r0, [sp, #296]	@ 0x128
 8003212:	68c1      	ldr	r1, [r0, #12]
 8003214:	4648      	mov	r0, r9
 8003216:	f003 f965 	bl	80064e4 <smoltcp::socket::tcp::Socket::seq_to_transmit>
 800321a:	bb40      	cbnz	r0, 800326e <smoltcp::iface::interface::Interface::poll+0x2152>
 800321c:	984a      	ldr	r0, [sp, #296]	@ 0x128
 800321e:	f8d9 2080 	ldr.w	r2, [r9, #128]	@ 0x80
 8003222:	e9d0 1004 	ldrd	r1, r0, [r0, #16]
 8003226:	e8df f002 	tbb	[pc, r2]
 800322a:	3502      	.short	0x3502
 800322c:	2202      	.short	0x2202
 800322e:	e9d9 2308 	ldrd	r2, r3, [r9, #32]
 8003232:	009e      	lsls	r6, r3, #2
 8003234:	2e05      	cmp	r6, #5
 8003236:	f04f 0605 	mov.w	r6, #5
 800323a:	bf88      	it	hi
 800323c:	009e      	lslhi	r6, r3, #2
 800323e:	4432      	add	r2, r6
 8003240:	2a0a      	cmp	r2, #10
 8003242:	bf98      	it	ls
 8003244:	220a      	movls	r2, #10
 8003246:	f242 7310 	movw	r3, #10000	@ 0x2710
 800324a:	429a      	cmp	r2, r3
 800324c:	bf28      	it	cs
 800324e:	461a      	movcs	r2, r3
 8003250:	f44f 737a 	mov.w	r3, #1000	@ 0x3e8
 8003254:	435a      	muls	r2, r3
 8003256:	2301      	movs	r3, #1
 8003258:	f8c9 3080 	str.w	r3, [r9, #128]	@ 0x80
 800325c:	2300      	movs	r3, #0
 800325e:	1889      	adds	r1, r1, r2
 8003260:	f140 0000 	adc.w	r0, r0, #0
 8003264:	e9c9 3121 	strd	r3, r1, [r9, #132]	@ 0x84
 8003268:	f109 018c 	add.w	r1, r9, #140	@ 0x8c
 800326c:	c10d      	stmia	r1!, {r0, r2, r3}
 800326e:	f899 0133 	ldrb.w	r0, [r9, #307]	@ 0x133
 8003272:	f8cd 811c 	str.w	r8, [sp, #284]	@ 0x11c
 8003276:	2800      	cmp	r0, #0
 8003278:	f47f aa22 	bne.w	80026c0 <smoltcp::iface::interface::Interface::poll+0x15a4>
 800327c:	2000      	movs	r0, #0
 800327e:	f8a9 011c 	strh.w	r0, [r9, #284]	@ 0x11c
 8003282:	9841      	ldr	r0, [sp, #260]	@ 0x104
 8003284:	9047      	str	r0, [sp, #284]	@ 0x11c
 8003286:	f7ff ba1b 	b.w	80026c0 <smoltcp::iface::interface::Interface::poll+0x15a4>
 800328a:	2001      	movs	r0, #1
 800328c:	f04f 0800 	mov.w	r8, #0
 8003290:	9045      	str	r0, [sp, #276]	@ 0x114
 8003292:	e63f      	b.n	8002f14 <smoltcp::iface::interface::Interface::poll+0x1df8>
 8003294:	e9d9 2322 	ldrd	r2, r3, [r9, #136]	@ 0x88
 8003298:	1a8a      	subs	r2, r1, r2
 800329a:	eb70 0203 	sbcs.w	r2, r0, r3
 800329e:	dbe6      	blt.n	800326e <smoltcp::iface::interface::Interface::poll+0x2152>
 80032a0:	e9d9 2324 	ldrd	r2, r3, [r9, #144]	@ 0x90
 80032a4:	005e      	lsls	r6, r3, #1
 80032a6:	1889      	adds	r1, r1, r2
 80032a8:	4158      	adcs	r0, r3
 80032aa:	2301      	movs	r3, #1
 80032ac:	f8c9 3080 	str.w	r3, [r9, #128]	@ 0x80
 80032b0:	2300      	movs	r3, #0
 80032b2:	e9c9 3121 	strd	r3, r1, [r9, #132]	@ 0x84
 80032b6:	f109 018c 	add.w	r1, r9, #140	@ 0x8c
 80032ba:	ea46 76d2 	orr.w	r6, r6, r2, lsr #31
 80032be:	0052      	lsls	r2, r2, #1
 80032c0:	c145      	stmia	r1!, {r0, r2, r6}
 80032c2:	e7d4      	b.n	800326e <smoltcp::iface::interface::Interface::poll+0x2152>
 80032c4:	f24b 000c 	movw	r0, #45068	@ 0xb00c
 80032c8:	f24b 0238 	movw	r2, #45112	@ 0xb038
 80032cc:	f6c0 0000 	movt	r0, #2048	@ 0x800
 80032d0:	f6c0 0200 	movt	r2, #2048	@ 0x800
 80032d4:	212c      	movs	r1, #44	@ 0x2c
 80032d6:	f000 fb25 	bl	8003924 <core::panicking::panic>
 80032da:	f64a 4078 	movw	r0, #44152	@ 0xac78
 80032de:	f64a 42b0 	movw	r2, #44208	@ 0xacb0
 80032e2:	f6c0 0000 	movt	r0, #2048	@ 0x800
 80032e6:	f6c0 0200 	movt	r2, #2048	@ 0x800
 80032ea:	2171      	movs	r1, #113	@ 0x71
