
./working:     file format elf32-littlearm
./working
architecture: armv7e-m, flags 0x00000112:
EXEC_P, HAS_SYMS, D_PAGED
start address 0x080001f9

Program Header:
    LOAD off    0x00010000 vaddr 0x08000000 paddr 0x08000000 align 2**16
         filesz 0x000001f8 memsz 0x000001f8 flags r--
    LOAD off    0x000101f8 vaddr 0x080001f8 paddr 0x080001f8 align 2**16
         filesz 0x00009638 memsz 0x00009638 flags r-x
    LOAD off    0x00019830 vaddr 0x08009830 paddr 0x08009830 align 2**16
         filesz 0x00001918 memsz 0x00001918 flags r--
    LOAD off    0x00020000 vaddr 0x20000000 paddr 0x0800b148 align 2**16
         filesz 0x00000038 memsz 0x00000038 flags rw-
    LOAD off    0x00030038 vaddr 0x20000038 paddr 0x20000038 align 2**16
         filesz 0x00000000 memsz 0x0000043c flags rw-
   STACK off    0x00000000 vaddr 0x00000000 paddr 0x00000000 align 2**0
         filesz 0x00000000 memsz 0x00000000 flags rw-
private flags = 0x5000400: [Version5 EABI] [hard-float ABI]

Sections:
Idx Name          Size      VMA       LMA       File off  Algn
  0 .vector_table 000001f8  08000000  08000000  00010000  2**2
                  CONTENTS, ALLOC, LOAD, READONLY, DATA
  1 .text         00009638  080001f8  080001f8  000101f8  2**2
                  CONTENTS, ALLOC, LOAD, READONLY, CODE
  2 .rodata       00001918  08009830  08009830  00019830  2**3
                  CONTENTS, ALLOC, LOAD, READONLY, DATA
  3 .data         00000038  20000000  0800b148  00020000  2**2
                  CONTENTS, ALLOC, LOAD, DATA
  4 .gnu.sgstubs  00000000  0800b180  0800b180  00020040  2**5
                  CONTENTS, ALLOC, LOAD, READONLY, DATA
  5 .bss          0000003c  20000038  20000038  00030038  2**3
                  ALLOC
  6 .uninit       00000400  20000074  20000074  00030038  2**2
                  ALLOC
  7 .defmt        00000042  00000000  00000000  00030038  2**0
                  CONTENTS, READONLY
  8 .debug_loc    00024a28  00000000  00000000  0003007a  2**0
                  CONTENTS, READONLY, DEBUGGING, OCTETS
  9 .debug_abbrev 000015c0  00000000  00000000  00054aa2  2**0
                  CONTENTS, READONLY, DEBUGGING, OCTETS
 10 .debug_info   0006fa6a  00000000  00000000  00056062  2**0
                  CONTENTS, READONLY, DEBUGGING, OCTETS
 11 .debug_aranges 00001608  00000000  00000000  000c5acc  2**0
                  CONTENTS, READONLY, DEBUGGING, OCTETS
 12 .debug_ranges 0000a9d0  00000000  00000000  000c70d4  2**0
                  CONTENTS, READONLY, DEBUGGING, OCTETS
 13 .debug_str    0006ae3a  00000000  00000000  000d1aa4  2**0
                  CONTENTS, READONLY, DEBUGGING, OCTETS
 14 .comment      0000008b  00000000  00000000  0013c8de  2**0
                  CONTENTS, READONLY
 15 .ARM.attributes 00000038  00000000  00000000  0013c969  2**0
                  CONTENTS, READONLY
 16 .debug_frame  00000ec8  00000000  00000000  0013c9a4  2**2
                  CONTENTS, READONLY, DEBUGGING, OCTETS
 17 .debug_line   000159aa  00000000  00000000  0013d86c  2**0
                  CONTENTS, READONLY, DEBUGGING, OCTETS
 18 .debug_pubnames 000002be  00000000  00000000  00153216  2**0
                  CONTENTS, READONLY, DEBUGGING, OCTETS
 19 .debug_pubtypes 00000047  00000000  00000000  001534d4  2**0
                  CONTENTS, READONLY, DEBUGGING, OCTETS
SYMBOL TABLE:
00000000 l    df *ABS*	00000000 ip.db5b21dddbb36540-cgu.3
08009810 l     F .text	00000018 HardFaultTrampoline
08000250 l     F .text	0000010c smoltcp::wire::arp::Repr::emit
08009890 l     O .rodata	00000010 .Lanon.8aa7df76f1befd364c3104ad4c2811fa.8
080036e2 l     F .text	00000032 core::slice::index::slice_index_fail
08009860 l     O .rodata	00000010 .Lanon.8aa7df76f1befd364c3104ad4c2811fa.5
08009840 l     O .rodata	00000010 .Lanon.8aa7df76f1befd364c3104ad4c2811fa.3
08009850 l     O .rodata	00000010 .Lanon.8aa7df76f1befd364c3104ad4c2811fa.4
08009830 l     O .rodata	00000010 .Lanon.8aa7df76f1befd364c3104ad4c2811fa.2
08009870 l     O .rodata	00000010 .Lanon.8aa7df76f1befd364c3104ad4c2811fa.6
08009880 l     O .rodata	00000010 .Lanon.8aa7df76f1befd364c3104ad4c2811fa.7
080098a0 l     O .rodata	00000010 .Lanon.8aa7df76f1befd364c3104ad4c2811fa.9
080037e0 l     F .text	00000028 core::panicking::panic_bounds_check
080098b0 l     O .rodata	00000010 .Lanon.8aa7df76f1befd364c3104ad4c2811fa.10
0800035c l     F .text	00000dc0 smoltcp::iface::interface::InterfaceInner::dispatch_ip
0800435a l     F .text	00000026 defmt::export::acquire_header_and_release
0800830a l     F .text	0000013e smoltcp::iface::route::Routes::lookup
0800af04 l     O .rodata	0000002c .Lanon.9cfaa6f313d9130c3bf3213837ff6d35.7
0800af30 l     O .rodata	00000010 .Lanon.9cfaa6f313d9130c3bf3213837ff6d35.8
08003808 l     F .text	0000000c core::panicking::panic
0800803e l     F .text	000002cc smoltcp::wire::ip::checksum::data
08007b7c l     F .text	0000017e smoltcp::wire::ipv4::Repr::emit
0800a9d8 l     O .rodata	00000010 .Lanon.ee555cc9a30366a9abf098ddf788bd84.41
080061a8 l     F .text	00000224 smoltcp::wire::tcp::TcpOption::emit
0800aa68 l     O .rodata	00000024 .Lanon.ee555cc9a30366a9abf098ddf788bd84.55
0800aa8c l     O .rodata	00000024 .Lanon.ee555cc9a30366a9abf098ddf788bd84.56
08004338 l     F .text	00000022 defmt::export::acquire_and_header
08004294 l     F .text	000000a4 defmt::impls::core_::net::<impl defmt::traits::Format for core::net::ip_addr::Ipv4Addr>::format
0800a410 l     O .rodata	00000036 .Lanon.8aa7df76f1befd364c3104ad4c2811fa.22
0800a448 l     O .rodata	00000010 .Lanon.8aa7df76f1befd364c3104ad4c2811fa.24
0800afb0 l     O .rodata	0000001d .Lanon.00a2111443151d169d68e8fc2cf30f9e.21
0800afd0 l     O .rodata	00000010 .Lanon.00a2111443151d169d68e8fc2cf30f9e.22
0800a8e4 l     O .rodata	00000010 .Lanon.dd1935691476038951f4dc0f5cac2ac5.15
0800a8f4 l     O .rodata	00000010 .Lanon.dd1935691476038951f4dc0f5cac2ac5.17
0800ad04 l     O .rodata	00000010 .Lanon.7ae0fc733917b56e83876efbea07ac2a.15
0800ad44 l     O .rodata	00000010 .Lanon.7ae0fc733917b56e83876efbea07ac2a.21
0800acc4 l     O .rodata	00000010 .Lanon.7ae0fc733917b56e83876efbea07ac2a.5
0800acf4 l     O .rodata	00000010 .Lanon.7ae0fc733917b56e83876efbea07ac2a.11
0800ace4 l     O .rodata	00000010 .Lanon.7ae0fc733917b56e83876efbea07ac2a.9
0800ae50 l     O .rodata	00000010 .Lanon.08d70b627e08cc39a48f4d9327c4d667.12
0800ae80 l     O .rodata	00000010 .Lanon.08d70b627e08cc39a48f4d9327c4d667.15
0800aa08 l     O .rodata	00000010 .Lanon.ee555cc9a30366a9abf098ddf788bd84.44
0800ae70 l     O .rodata	00000010 .Lanon.08d70b627e08cc39a48f4d9327c4d667.14
0800a9f8 l     O .rodata	00000010 .Lanon.ee555cc9a30366a9abf098ddf788bd84.43
0800ae90 l     O .rodata	00000010 .Lanon.08d70b627e08cc39a48f4d9327c4d667.19
0800aa38 l     O .rodata	00000010 .Lanon.ee555cc9a30366a9abf098ddf788bd84.47
0800aa28 l     O .rodata	00000010 .Lanon.ee555cc9a30366a9abf098ddf788bd84.46
0800aa48 l     O .rodata	00000010 .Lanon.ee555cc9a30366a9abf098ddf788bd84.48
0800aea0 l     O .rodata	00000010 .Lanon.08d70b627e08cc39a48f4d9327c4d667.29
08003ffc l     F .text	0000000e core::slice::copy_from_slice_impl::len_mismatch_fail
0800ae60 l     O .rodata	00000010 .Lanon.08d70b627e08cc39a48f4d9327c4d667.13
0800aab0 l     O .rodata	00000010 .Lanon.ee555cc9a30366a9abf098ddf788bd84.58
0800abd8 l     O .rodata	00000010 .Lanon.e728c747789d4d3550167230b35740f6.91
0800abb8 l     O .rodata	00000010 .Lanon.e728c747789d4d3550167230b35740f6.87
0800abc8 l     O .rodata	00000010 .Lanon.e728c747789d4d3550167230b35740f6.88
0800aa18 l     O .rodata	00000010 .Lanon.ee555cc9a30366a9abf098ddf788bd84.45
0800a9e8 l     O .rodata	00000010 .Lanon.ee555cc9a30366a9abf098ddf788bd84.42
0800ac08 l     O .rodata	00000010 .Lanon.e728c747789d4d3550167230b35740f6.96
0800ac28 l     O .rodata	00000010 .Lanon.e728c747789d4d3550167230b35740f6.98
0800abf8 l     O .rodata	00000010 .Lanon.e728c747789d4d3550167230b35740f6.95
0800ac18 l     O .rodata	00000010 .Lanon.e728c747789d4d3550167230b35740f6.97
0800af90 l     O .rodata	00000010 .Lanon.00a2111443151d169d68e8fc2cf30f9e.17
08005f52 l     F .text	00000086 core::ptr::drop_in_place<core::result::Result<stm32_eth::dma::tx::TxPacket,stm32_eth::dma::tx::TxError>>
0800a904 l     O .rodata	00000010 .Lanon.dd1935691476038951f4dc0f5cac2ac5.19
080036ce l     F .text	00000014 core::option::unwrap_failed
0800acd4 l     O .rodata	00000010 .Lanon.7ae0fc733917b56e83876efbea07ac2a.8
0800ad34 l     O .rodata	00000010 .Lanon.7ae0fc733917b56e83876efbea07ac2a.19
0800ad54 l     O .rodata	00000010 .Lanon.7ae0fc733917b56e83876efbea07ac2a.26
0800ad14 l     O .rodata	00000010 .Lanon.7ae0fc733917b56e83876efbea07ac2a.16
0800af50 l     O .rodata	00000010 .Lanon.00a2111443151d169d68e8fc2cf30f9e.5
0800abe8 l     O .rodata	00000010 .Lanon.e728c747789d4d3550167230b35740f6.92
0800111c l     F .text	000022c6 smoltcp::iface::interface::Interface::poll
080087ba l     F .text	00000012 stm32_eth::dma::rx::RxRing::demand_poll
08008448 l     F .text	00000372 smoltcp::iface::neighbor::Cache::fill
08007996 l     F .text	000001b6 smoltcp::iface::interface::ipv4::<impl smoltcp::iface::interface::InterfaceInner>::icmpv4_reply
08007e2e l     F .text	00000092 smoltcp::socket::udp::Socket::accepts
08007ec0 l     F .text	0000017e smoltcp::socket::udp::Socket::process
08006124 l     F .text	00000084 <core::slice::iter::IterMut<T> as core::iter::traits::iterator::Iterator>::fold
0800648c l     F .text	0000121e smoltcp::socket::tcp::Socket::process
080076aa l     F .text	00000096 smoltcp::socket::tcp::Socket::rst_reply
080063cc l     F .text	000000c0 smoltcp::socket::tcp::Socket::seq_to_transmit
0800ab70 l     O .rodata	00000038 .Lanon.ee555cc9a30366a9abf098ddf788bd84.70
0800aba8 l     O .rodata	00000010 .Lanon.ee555cc9a30366a9abf098ddf788bd84.71
080037c4 l     F .text	0000001c core::panicking::panic_fmt
0800aff0 l     O .rodata	00000041 .Lanon.86296f10aa77425962719a19169a9c1e.2
0800b034 l     O .rodata	00000010 .Lanon.86296f10aa77425962719a19169a9c1e.4
08004036 l     F .text	00000026 core::option::expect_failed
0800b044 l     O .rodata	00000042 .Lanon.86296f10aa77425962719a19169a9c1e.5
0800b088 l     O .rodata	00000010 .Lanon.86296f10aa77425962719a19169a9c1e.6
0800af60 l     O .rodata	00000010 .Lanon.00a2111443151d169d68e8fc2cf30f9e.7
0800a8b4 l     O .rodata	00000010 .Lanon.02e056d4c889a085f771c01290e74e2f.20
0800a8d4 l     O .rodata	00000010 .Lanon.02e056d4c889a085f771c01290e74e2f.23
0800a458 l     O .rodata	00000016 .Lanon.8aa7df76f1befd364c3104ad4c2811fa.25
0800a470 l     O .rodata	00000010 .Lanon.8aa7df76f1befd364c3104ad4c2811fa.26
0800a880 l     O .rodata	00000022 .Lanon.02e056d4c889a085f771c01290e74e2f.18
0800a8a4 l     O .rodata	00000010 .Lanon.02e056d4c889a085f771c01290e74e2f.19
0800a850 l     O .rodata	00000010 .Lanon.02e056d4c889a085f771c01290e74e2f.13
0800a8c4 l     O .rodata	00000010 .Lanon.02e056d4c889a085f771c01290e74e2f.22
0800a994 l     O .rodata	00000033 .Lanon.ee555cc9a30366a9abf098ddf788bd84.23
0800a9c8 l     O .rodata	00000010 .Lanon.ee555cc9a30366a9abf098ddf788bd84.25
0800a860 l     O .rodata	00000010 .Lanon.02e056d4c889a085f771c01290e74e2f.15
0800afa0 l     O .rodata	00000010 .Lanon.00a2111443151d169d68e8fc2cf30f9e.19
0800af70 l     O .rodata	00000010 .Lanon.00a2111443151d169d68e8fc2cf30f9e.14
0800ad24 l     O .rodata	00000010 .Lanon.7ae0fc733917b56e83876efbea07ac2a.17
0800adb4 l     O .rodata	00000010 .Lanon.321b12b0c8d62f4934ae814c6c7478a1.12
0800409a l     F .text	00000014 core::panicking::panic_const::panic_const_rem_by_zero
0800af80 l     O .rodata	00000010 .Lanon.00a2111443151d169d68e8fc2cf30f9e.16
0800a870 l     O .rodata	00000010 .Lanon.02e056d4c889a085f771c01290e74e2f.17
0800ad64 l     O .rodata	00000010 .Lanon.e649bb90f52bb047098cd49f541ed508.21
0800ad74 l     O .rodata	00000010 .Lanon.e649bb90f52bb047098cd49f541ed508.22
0800ad84 l     O .rodata	00000010 .Lanon.e649bb90f52bb047098cd49f541ed508.23
0800ad94 l     O .rodata	00000010 .Lanon.e649bb90f52bb047098cd49f541ed508.24
0800aca4 l     O .rodata	00000010 .Lanon.ee56ee3d56b2a23f692cb60d33ec53f4.8
0800ab40 l     O .rodata	00000010 .Lanon.ee555cc9a30366a9abf098ddf788bd84.67
0800a924 l     O .rodata	00000010 .Lanon.ee555cc9a30366a9abf098ddf788bd84.2
0800ab20 l     O .rodata	00000010 .Lanon.ee555cc9a30366a9abf098ddf788bd84.65
0800ab30 l     O .rodata	00000010 .Lanon.ee555cc9a30366a9abf098ddf788bd84.66
0800aa58 l     O .rodata	00000010 .Lanon.ee555cc9a30366a9abf098ddf788bd84.54
080033e2 l     F .text	0000010c core::fmt::write
080034f0 l     F .text	0000019c core::fmt::Formatter::pad_integral
0800368c l     F .text	00000042 core::fmt::Formatter::pad_integral::write_prefix
0800a548 l     O .rodata	0000002b .Lanon.dc388a968c23fa524085dd94a83f5751.251
08003714 l     F .text	0000002c core::slice::index::slice_index_fail::do_panic::runtime
08003740 l     F .text	0000002c core::slice::index::slice_index_fail::do_panic::runtime
08003798 l     F .text	0000002c core::slice::index::slice_index_fail::do_panic::runtime
0800376c l     F .text	0000002c core::slice::index::slice_index_fail::do_panic::runtime
08003efa l     F .text	00000102 core::fmt::num::imp::<impl core::fmt::Display for u32>::fmt
08005fd8 l     F .text	00000088 __rustc::rust_begin_unwind
08003814 l     F .text	00000014 <&T as core::fmt::Display>::fmt
08003828 l     F .text	00000652 core::fmt::Formatter::pad
08003e7a l     F .text	00000014 core::panicking::panic_const::panic_const_div_by_zero
0800a573 l     O .rodata	00000019 .Lanon.dc388a968c23fa524085dd94a83f5751.271
08003e8e l     F .text	00000010 <&T as core::fmt::Debug>::fmt
08003e9e l     F .text	0000005c core::fmt::num::imp::<impl core::fmt::Display for u8>::fmt
0800a480 l     O .rodata	000000c8 .Lanon.dc388a968c23fa524085dd94a83f5751.14
0800400a l     F .text	0000002c core::slice::copy_from_slice_impl::len_mismatch_fail::do_panic::runtime
0800405c l     F .text	0000003e core::result::unwrap_failed
0800a58c l     O .rodata	00000039 .Lanon.dc388a968c23fa524085dd94a83f5751.273
080040ae l     F .text	000000ce <core::net::ip_addr::Ipv4Addr as core::fmt::Display>::fmt
0800a5cc l     O .rodata	00000018 .Lanon.dc388a968c23fa524085dd94a83f5751.363
0800a5e4 l     O .rodata	00000010 .Lanon.dc388a968c23fa524085dd94a83f5751.365
0800a808 l     O .rodata	0000002b .Lanon.02e056d4c889a085f771c01290e74e2f.8
0800a5f4 l     O .rodata	00000010 .Lanon.dc388a968c23fa524085dd94a83f5751.366
0800a604 l     O .rodata	00000010 .Lanon.dc388a968c23fa524085dd94a83f5751.369
0800417c l     F .text	0000001a <core::fmt::Error as core::fmt::Debug>::fmt
0800a5c5 l     O .rodata	00000005 .Lanon.dc388a968c23fa524085dd94a83f5751.303
08004196 l     F .text	00000032 <core::net::display_buffer::DisplayBuffer<_> as core::fmt::Write>::write_str
080041c8 l     F .text	000000a8 core::fmt::Write::write_char
08004270 l     F .text	00000018 core::fmt::Write::write_fmt
08004380 l     F .text	00000010 <defmt::export::FmtWrite as core::fmt::Write>::write_str
08004390 l     F .text	00000088 core::fmt::Write::write_char
08004418 l     F .text	00000018 core::fmt::Write::write_fmt
0800a624 l     O .rodata	00000018 .Lanon.ea5d5760b73fa5b90415fc99172c09b2.1
08004430 l     F .text	00000082 defmt_rtt::channel::Channel::blocking_write
080044b2 l     F .text	0000005c defmt_rtt::channel::Channel::nonblocking_write
20000040 l     O .bss	00000034 .L_MergedGlobals
0800a63d l     O .rodata	0000001e .Lanon.1d905ed0c947f0695d8369569f054732.0
0800a65c l     O .rodata	00000010 .Lanon.1d905ed0c947f0695d8369569f054732.2
0800a66c l     O .rodata	00000010 .Lanon.1d905ed0c947f0695d8369569f054732.4
08004980 l     F .text	000015b8 ip::__cortex_m_rt_main
0800b0d0 l     O .rodata	00000010 .Lanon.4bc4785c9ada05daa616a70a22937c0f.6
0800afe0 l     O .rodata	00000010 .Lanon.00a2111443151d169d68e8fc2cf30f9e.24
0800a7f8 l     O .rodata	00000010 .Lanon.02e056d4c889a085f771c01290e74e2f.7
0800a834 l     O .rodata	00000010 .Lanon.02e056d4c889a085f771c01290e74e2f.9
08007b4c l     F .text	0000002e <smoltcp::wire::ip::Address as core::fmt::Display>::fmt
0800acb4 l     O .rodata	00000010 .Lanon.ee56ee3d56b2a23f692cb60d33ec53f4.14
0800a6a0 l     O .rodata	00000150 .Lanon.02e056d4c889a085f771c01290e74e2f.5
0800a7f0 l     O .rodata	00000006 .Lanon.02e056d4c889a085f771c01290e74e2f.6
080098c0 l     O .rodata	00000023 .Lanon.8aa7df76f1befd364c3104ad4c2811fa.11
0800a34c l     O .rodata	00000010 .Lanon.8aa7df76f1befd364c3104ad4c2811fa.13
0800a398 l     O .rodata	00000027 .Lanon.8aa7df76f1befd364c3104ad4c2811fa.16
0800a3c0 l     O .rodata	00000010 .Lanon.8aa7df76f1befd364c3104ad4c2811fa.17
0800a35c l     O .rodata	00000029 .Lanon.8aa7df76f1befd364c3104ad4c2811fa.14
0800a3d0 l     O .rodata	00000010 .Lanon.8aa7df76f1befd364c3104ad4c2811fa.18
0800a3f0 l     O .rodata	00000010 .Lanon.8aa7df76f1befd364c3104ad4c2811fa.20
0800a400 l     O .rodata	00000010 .Lanon.8aa7df76f1befd364c3104ad4c2811fa.21
0800adfc l     O .rodata	00000010 .Lanon.321b12b0c8d62f4934ae814c6c7478a1.17
0800b0e0 l     O .rodata	00000027 .Lanon.4bc4785c9ada05daa616a70a22937c0f.10
0800b108 l     O .rodata	00000010 .Lanon.4bc4785c9ada05daa616a70a22937c0f.11
0800b098 l     O .rodata	00000028 .Lanon.4bc4785c9ada05daa616a70a22937c0f.3
0800b118 l     O .rodata	00000010 .Lanon.4bc4785c9ada05daa616a70a22937c0f.12
0800b128 l     O .rodata	00000010 .Lanon.4bc4785c9ada05daa616a70a22937c0f.13
0800b138 l     O .rodata	00000010 .Lanon.4bc4785c9ada05daa616a70a22937c0f.14
0800a388 l     O .rodata	00000010 .Lanon.8aa7df76f1befd364c3104ad4c2811fa.15
0800b0c0 l     O .rodata	00000010 .Lanon.4bc4785c9ada05daa616a70a22937c0f.5
0800a3e0 l     O .rodata	00000010 .Lanon.8aa7df76f1befd364c3104ad4c2811fa.19
0800a67c l     O .rodata	00000010 .Lanon.02e056d4c889a085f771c01290e74e2f.2
0800a68c l     O .rodata	00000010 .Lanon.02e056d4c889a085f771c01290e74e2f.3
08005f38 l     F .text	0000001a <stm32_eth::mac::WrongClock as core::fmt::Debug>::fmt
0800a844 l     O .rodata	0000000a .Lanon.02e056d4c889a085f771c01290e74e2f.10
20000038 l     O .bss	00000001 panic_probe::imp::panic::PANICKED
0800a914 l     O .rodata	00000010 .Lanon.6fd57bafcc6bbd1a0f0c6a4a6d894bad.0
0800a63c l     O .rodata	00000001 .Lanon.ea5d5760b73fa5b90415fc99172c09b2.2
08006060 l     F .text	00000018 panic_probe::hard_fault
08006078 l     F .text	000000ac <&T as core::fmt::Display>::fmt
0800a614 l     O .rodata	0000000c .Lanon.dc388a968c23fa524085dd94a83f5751.408
0800a620 l     O .rodata	00000002 .Lanon.dc388a968c23fa524085dd94a83f5751.409
0800ab50 l     O .rodata	00000010 .Lanon.ee555cc9a30366a9abf098ddf788bd84.68
0800ab60 l     O .rodata	00000010 .Lanon.ee555cc9a30366a9abf098ddf788bd84.69
0800aad0 l     O .rodata	00000010 .Lanon.ee555cc9a30366a9abf098ddf788bd84.60
0800ab00 l     O .rodata	00000010 .Lanon.ee555cc9a30366a9abf098ddf788bd84.63
0800a984 l     O .rodata	00000010 .Lanon.ee555cc9a30366a9abf098ddf788bd84.6
0800a974 l     O .rodata	00000010 .Lanon.ee555cc9a30366a9abf098ddf788bd84.4
0800aaf0 l     O .rodata	00000010 .Lanon.ee555cc9a30366a9abf098ddf788bd84.62
0800ab10 l     O .rodata	00000010 .Lanon.ee555cc9a30366a9abf098ddf788bd84.64
0800aac0 l     O .rodata	00000010 .Lanon.ee555cc9a30366a9abf098ddf788bd84.59
0800aae0 l     O .rodata	00000010 .Lanon.ee555cc9a30366a9abf098ddf788bd84.61
0800ac38 l     O .rodata	00000010 .Lanon.c1140054cd359bfdcd454e5b7dad9548.29
08007d5e l     F .text	00000066 defmt::export::fmt
08007d30 l     F .text	0000002e defmt::export::fmt
0800ac58 l     O .rodata	00000001 .Lanon.c1140054cd359bfdcd454e5b7dad9548.32
08007cfa l     F .text	00000036 defmt::export::fmt
08007948 l     F .text	0000004e smoltcp::socket::tcp::Socket::immediate_ack_to_transmit
08007740 l     F .text	00000208 smoltcp::socket::tcp::Socket::ack_reply
0800ac48 l     O .rodata	00000010 .Lanon.c1140054cd359bfdcd454e5b7dad9548.31
0800ac94 l     O .rodata	00000010 .Lanon.c1140054cd359bfdcd454e5b7dad9548.36
0800adc4 l     O .rodata	00000025 .Lanon.321b12b0c8d62f4934ae814c6c7478a1.14
0800adec l     O .rodata	00000010 .Lanon.321b12b0c8d62f4934ae814c6c7478a1.15
0800ada4 l     O .rodata	00000010 .Lanon.321b12b0c8d62f4934ae814c6c7478a1.11
0800ac59 l     O .rodata	00000028 .Lanon.c1140054cd359bfdcd454e5b7dad9548.33
0800ac84 l     O .rodata	00000010 .Lanon.c1140054cd359bfdcd454e5b7dad9548.35
0800af40 l     O .rodata	00000010 .Lanon.d4b94c958ea1f8000f4d53dc8b85c559.8
08007dc4 l     F .text	0000006a smoltcp::storage::ring_buffer::RingBuffer<T>::enqueue_many_with
0800ae40 l     O .rodata	00000010 .Lanon.c1510acb27196742b5d924b6a5d99da6.17
0800aeb0 l     O .rodata	00000023 .Lanon.f0ac2cabe1edd51d584ebf3fae05aeec.16
0800aed4 l     O .rodata	00000010 .Lanon.f0ac2cabe1edd51d584ebf3fae05aeec.18
0800aee4 l     O .rodata	00000010 .Lanon.9cfaa6f313d9130c3bf3213837ff6d35.4
0800ae0c l     O .rodata	00000022 .Lanon.321b12b0c8d62f4934ae814c6c7478a1.20
0800ae30 l     O .rodata	00000010 .Lanon.321b12b0c8d62f4934ae814c6c7478a1.22
0800aef4 l     O .rodata	00000010 .Lanon.9cfaa6f313d9130c3bf3213837ff6d35.6
20000000 l     O .data	00000006 defmt_rtt::handle::NAME
20000074 l     O .uninit	00000400 defmt_rtt::handle::BUFFER
20000040 l     O .bss	00000001 defmt_rtt::CS_RESTORE
20000041 l     O .bss	00000001 defmt_rtt::TAKEN
20000042 l     O .bss	00000001 defmt_rtt::ENCODER
20000043 l     O .bss	00000001 defmt_rtt::ENCODER
20000044 l     O .bss	00000001 defmt_rtt::ENCODER
20000045 l     O .bss	00000001 cortex_m::peripheral::TAKEN
20000048 l     O .bss	00000008 ip::TIME
20000050 l     O .bss	0000000c stm32_eth::dma::EthernetDMA::rx_waker::WAKER
2000005c l     O .bss	0000000c stm32_eth::dma::EthernetDMA::tx_waker::WAKER
20000068 l     O .bss	0000000c stm32_eth::ptp::EthernetPTP::waker::WAKER
00000000 l    df *ABS*	00000000 lib.f2c86790-cgu.0
00000000 l    df *ABS*	00000000 compiler_builtins.e1cc8e2a576cb2af-cgu.189
080087f0 l     F .text	000000ae .hidden __aeabi_memclr8
00000000 l    df *ABS*	00000000 compiler_builtins.e1cc8e2a576cb2af-cgu.250
0800889e l     F .text	0000009c .hidden __aeabi_memcpy4
00000000 l    df *ABS*	00000000 compiler_builtins.e1cc8e2a576cb2af-cgu.012
0800893a l     F .text	000002e6 .hidden compiler_builtins::mem::memcpy
08008c20 l     F .text	00000618 .hidden compiler_builtins::mem::memmove
00000000 l    df *ABS*	00000000 compiler_builtins.e1cc8e2a576cb2af-cgu.275
08009238 l     F .text	0000000c .hidden __aeabi_memmove8
00000000 l    df *ABS*	00000000 compiler_builtins.e1cc8e2a576cb2af-cgu.279
08009244 l     F .text	000000ae .hidden __aeabi_memclr4
00000000 l    df *ABS*	00000000 compiler_builtins.e1cc8e2a576cb2af-cgu.288
080092f2 l     F .text	0000000c .hidden __aeabi_memcpy
00000000 l    df *ABS*	00000000 compiler_builtins.e1cc8e2a576cb2af-cgu.320
080092fe l     F .text	0000009c .hidden __aeabi_memcpy8
00000000 l    df *ABS*	00000000 compiler_builtins.e1cc8e2a576cb2af-cgu.373
0800939a l     F .text	000000d0 .hidden __aeabi_memclr
00000000 l    df *ABS*	00000000 compiler_builtins.e1cc8e2a576cb2af-cgu.413
00000000 l    df *ABS*	00000000 compiler_builtins.e1cc8e2a576cb2af-cgu.362
08009480 l     F .text	00000030 .hidden __udivmoddi4
00000000 l    df *ABS*	00000000 compiler_builtins.e1cc8e2a576cb2af-cgu.017
080094b0 l     F .text	00000360 .hidden compiler_builtins::int::specialized_div_rem::u64_div_rem
08000004 g     O .vector_table	00000004 __RESET_VECTOR
080001f8 g     F .text	0000003e Reset
08000008 g     O .vector_table	00000038 __EXCEPTIONS
08004288 g     F .text	00000000 DefaultHandler
08000040 g     O .vector_table	000001b8 __INTERRUPTS
0800450e g     F .text	0000009e _defmt_acquire
080045ac g     F .text	000000f0 _defmt_release
0800428e g     F .text	00000006 __defmt_default_timestamp
08009828 g     F .text	00000000 HardFault
0800428e g     F .text	00000000 __pre_init
08004978 g     F .text	00000008 main
00000022 g     O .defmt	00000001 {"package":"smoltcp","tag":"defmt_debug","data":"Enable the `proto-ipv4-fragmentation` feature for fragmentation support.","disambiguator":"5448626954131158173","crate_name":"smoltcp"}
00000024 g     O .defmt	00000001 {"package":"smoltcp","tag":"defmt_debug","data":"address {} not in neighbor cache, sending ARP request","disambiguator":"12066069798907769471","crate_name":"smoltcp"}
00000007 g     O .defmt	00000001 {"package":"defmt","tag":"defmt_prim","data":"{=__internal_FormatSequence}","disambiguator":"8408127155438382822","crate_name":"defmt"}
0800469c g     F .text	0000019c _defmt_write
0000002f g     O .defmt	00000001 {"package":"stm32-eth","tag":"defmt_error","data":"EthRxToken: RX would block","disambiguator":"7442772949220635545","crate_name":"stm32_eth"}
0000002a g     O .defmt	00000001 {"package":"stm32-eth","tag":"defmt_debug","data":"Failed to receive packet: {}","disambiguator":"11700474013454779557","crate_name":"stm32_eth"}
00000041 g     O .defmt	00000001 {"package":"stm32-eth","tag":"defmt_derived","data":"Truncated|DmaError|WouldBlock","disambiguator":"12700258740049707074","crate_name":"stm32_eth"}
00000026 g     O .defmt	00000001 {"package":"smoltcp","tag":"defmt_debug","data":"arp: non-unicast source address","disambiguator":"1901301005436061336","crate_name":"smoltcp"}
00000028 g     O .defmt	00000001 {"package":"smoltcp","tag":"defmt_debug","data":"arp: unknown operation code","disambiguator":"12440323745247841462","crate_name":"smoltcp"}
00000029 g     O .defmt	00000001 {"package":"smoltcp","tag":"defmt_debug","data":"non-unicast or unspecified source address","disambiguator":"6766392025179650790","crate_name":"smoltcp"}
00000027 g     O .defmt	00000001 {"package":"smoltcp","tag":"defmt_debug","data":"arp: source IP address not in same network as us","disambiguator":"8412082944703312747","crate_name":"smoltcp"}
00000023 g     O .defmt	00000001 {"package":"smoltcp","tag":"defmt_debug","data":"Failed to send response: {:?}","disambiguator":"11552764603065337685","crate_name":"smoltcp"}
0000003e g     O .defmt	00000001 {"package":"smoltcp","tag":"defmt_derived","data":"NoRoute|NeighborPending","disambiguator":"17160438304021938019","crate_name":"smoltcp"}
0000000a g     O .defmt	00000001 {"package":"smoltcp","tag":"defmt_debug","data":"{}:{}:{}:{}: parsed window scaling factor >14, setting to 14","disambiguator":"8158328147869412070","crate_name":"smoltcp"}
0000003f g     O .defmt	00000001 {"package":"smoltcp","tag":"defmt_write","data":"{:?}","disambiguator":"10833894435547768834","crate_name":"smoltcp"}
00000004 g     O .defmt	00000001 {"package":"defmt","tag":"defmt_prim","data":"{=u16}","disambiguator":"8239863257445217352","crate_name":"defmt"}
00000009 g     O .defmt	00000001 {"package":"smoltcp","tag":"defmt_debug","data":"sACK with >3 blocks, truncating to 3","disambiguator":"15703149373311970542","crate_name":"smoltcp"}
00000019 g     O .defmt	00000001 {"package":"smoltcp","tag":"defmt_debug","data":"timeout exceeded","disambiguator":"2000748738221331933","crate_name":"smoltcp"}
00000025 g     O .defmt	00000001 {"package":"smoltcp","tag":"defmt_debug","data":"failed to transmit IP: device exhausted","disambiguator":"9389076079625704121","crate_name":"smoltcp"}
00000015 g     O .defmt	00000001 {"package":"smoltcp","tag":"defmt_debug","data":"retransmitting at t+{}","disambiguator":"10495559254336700149","crate_name":"smoltcp"}
00000040 g     O .defmt	00000001 {"package":"smoltcp","tag":"defmt_write","data":"{}.{:03}s","disambiguator":"5292232958402097832","crate_name":"smoltcp"}
00000005 g     O .defmt	00000001 {"package":"defmt","tag":"defmt_prim","data":"{=u64}","disambiguator":"2959124217660265969","crate_name":"defmt"}
0800946c  w    F .text	00000014 __aeabi_uldivmod
080087e6 g     F .text	00000006 __primask_r
080087cc g     F .text	00000004 __cpsid
080087d0 g     F .text	00000004 __cpsie
08004288 g     F .text	00000006 DefaultHandler_
0800428e g     F .text	00000006 DefaultPreInit
08009828 g     F .text	00000006 HardFault_
00000032 g     O .defmt	00000001 {"package":"defmt","tag":"defmt_write","data":"{}.{}.{}.{}","disambiguator":"14742771906021295210","crate_name":"defmt"}
00000002 g     O .defmt	00000001 {"package":"defmt","tag":"defmt_prim","data":"{=u8}","disambiguator":"16912398427198947700","crate_name":"defmt"}
0800428e g     F .text	00000000 _defmt_timestamp
20000008 g     O .data	00000030 _SEGGER_RTT
08004838 g     F .text	0000010e ETH
08004946 g     F .text	00000032 SysTick
080087d4 g     F .text	0000000c __delay
080087e0 g     F .text	00000006 __dsb
0000002b g     O .defmt	00000001 {"package":"stm32-eth","tag":"defmt_info","data":"Enabling ethernet...","disambiguator":"10404236363425019797","crate_name":"ip"}
0000002c g     O .defmt	00000001 {"package":"stm32-eth","tag":"defmt_info","data":"Listening at {}:80...","disambiguator":"3686426055769507929","crate_name":"ip"}
0000002d g     O .defmt	00000001 {"package":"stm32-eth","tag":"defmt_info","data":"Transmitted hello! Closing socket...","disambiguator":"11635372039424199218","crate_name":"ip"}
0000002e g     O .defmt	00000001 {"package":"panic-probe","tag":"defmt_error","data":"{}","disambiguator":"3281125884690968605","crate_name":"panic_probe"}
00000001 g     O .defmt	00000001 {"package":"defmt","tag":"defmt_prim","data":"{=__internal_Display}","disambiguator":"14158116662542268607","crate_name":"defmt"}
080087ec g     F .text	00000004 __udf
0000001d g     O .defmt	00000001 {"package":"smoltcp","tag":"defmt_debug","data":"unacceptable RST|ACK in response to initial SYN","disambiguator":"12010015513314917541","crate_name":"smoltcp"}
0000001e g     O .defmt	00000001 {"package":"smoltcp","tag":"defmt_debug","data":"unacceptable SYN|ACK in response to initial SYN","disambiguator":"2348323649613492752","crate_name":"smoltcp"}
0000000e g     O .defmt	00000001 {"package":"smoltcp","tag":"defmt_debug","data":"expecting a SYN|ACK, received an ACK with the right ack_number, ignoring.","disambiguator":"2859068138203652258","crate_name":"smoltcp"}
0000000d g     O .defmt	00000001 {"package":"smoltcp","tag":"defmt_debug","data":"expecting a SYN|ACK","disambiguator":"6334425642103298512","crate_name":"smoltcp"}
00000011 g     O .defmt	00000001 {"package":"smoltcp","tag":"defmt_debug","data":"non-zero-length segment with zero receive window, will only send an ACK","disambiguator":"6676005152151262999","crate_name":"smoltcp"}
0000001b g     O .defmt	00000001 {"package":"smoltcp","tag":"defmt_debug","data":"unacceptable ACK in response to SYN|ACK","disambiguator":"3989064690652622681","crate_name":"smoltcp"}
0000001c g     O .defmt	00000001 {"package":"smoltcp","tag":"defmt_debug","data":"unacceptable RST (expecting RST|ACK) in response to initial SYN","disambiguator":"12592444965224528503","crate_name":"smoltcp"}
00000012 g     O .defmt	00000001 {"package":"smoltcp","tag":"defmt_debug","data":"received a keep-alive or window probe packet, will send an ACK","disambiguator":"5323319599099390235","crate_name":"smoltcp"}
00000010 g     O .defmt	00000001 {"package":"smoltcp","tag":"defmt_debug","data":"expecting an ACK","disambiguator":"3625140730523199000","crate_name":"smoltcp"}
00000016 g     O .defmt	00000001 {"package":"smoltcp","tag":"defmt_debug","data":"segment not in receive window ({}..{} not intersecting {}..{}), will send challenge ACK","disambiguator":"15410474912840077765","crate_name":"smoltcp"}
0000000f g     O .defmt	00000001 {"package":"smoltcp","tag":"defmt_debug","data":"expecting a SYN|ACK, received an ACK with the wrong ack_number, sending RST.","disambiguator":"11067998957997480673","crate_name":"smoltcp"}
00000021 g     O .defmt	00000001 {"package":"smoltcp","tag":"defmt_debug","data":"zero-length segment not inside zero-length window, will send an ACK.","disambiguator":"17620149882924763407","crate_name":"smoltcp"}
0000001a g     O .defmt	00000001 {"package":"smoltcp","tag":"defmt_debug","data":"unacceptable ACK ({} not in {}...{})","disambiguator":"1850591223312697649","crate_name":"smoltcp"}
00000020 g     O .defmt	00000001 {"package":"smoltcp","tag":"defmt_debug","data":"zero-length segment not inside window, will send an ACK.","disambiguator":"3646786452687534024","crate_name":"smoltcp"}
0000001f g     O .defmt	00000001 {"package":"smoltcp","tag":"defmt_debug","data":"unexpected packet {}","disambiguator":"12823780021606470319","crate_name":"smoltcp"}
0000003c g     O .defmt	00000001 {"package":"smoltcp","tag":"defmt_write","data":"TCP src={} dst={}","disambiguator":"1030315939857595793","crate_name":"smoltcp"}
00000037 g     O .defmt	00000001 {"package":"smoltcp","tag":"defmt_write","data":" psh","disambiguator":"9481317621797126725","crate_name":"smoltcp"}
00000038 g     O .defmt	00000001 {"package":"smoltcp","tag":"defmt_write","data":" rst","disambiguator":"10013211076911544330","crate_name":"smoltcp"}
0000003a g     O .defmt	00000001 {"package":"smoltcp","tag":"defmt_write","data":" syn","disambiguator":"10838285941484427392","crate_name":"smoltcp"}
00000034 g     O .defmt	00000001 {"package":"smoltcp","tag":"defmt_write","data":" fin","disambiguator":"17565740076167230561","crate_name":"smoltcp"}
00000039 g     O .defmt	00000001 {"package":"smoltcp","tag":"defmt_write","data":" seq={}","disambiguator":"4537005165886293247","crate_name":"smoltcp"}
0000003d g     O .defmt	00000001 {"package":"smoltcp","tag":"defmt_write","data":"{}","disambiguator":"5146805914163525621","crate_name":"smoltcp"}
00000008 g     O .defmt	00000001 {"package":"defmt","tag":"defmt_prim","data":"{=u32}","disambiguator":"11041816430350983556","crate_name":"defmt"}
00000033 g     O .defmt	00000001 {"package":"smoltcp","tag":"defmt_write","data":" ack={}","disambiguator":"3786093232229792722","crate_name":"smoltcp"}
0000003b g     O .defmt	00000001 {"package":"smoltcp","tag":"defmt_write","data":" win={}","disambiguator":"3473245040867372688","crate_name":"smoltcp"}
00000035 g     O .defmt	00000001 {"package":"smoltcp","tag":"defmt_write","data":" len={}","disambiguator":"9057084416632356930","crate_name":"smoltcp"}
00000006 g     O .defmt	00000001 {"package":"defmt","tag":"defmt_prim","data":"{=usize}","disambiguator":"8559056741933462175","crate_name":"defmt"}
00000036 g     O .defmt	00000001 {"package":"smoltcp","tag":"defmt_write","data":" mss={}","disambiguator":"10911176379477047732","crate_name":"smoltcp"}
0000000c g     O .defmt	00000001 {"package":"smoltcp","tag":"defmt_debug","data":"duplicate ACK ({} not in {}...{})","disambiguator":"12380727397643179295","crate_name":"smoltcp"}
00000013 g     O .defmt	00000001 {"package":"smoltcp","tag":"defmt_debug","data":"received duplicate ACK for seq {} (duplicate nr {}{})","disambiguator":"5695652426937161345","crate_name":"smoltcp"}
00000018 g     O .defmt	00000001 {"package":"smoltcp","tag":"defmt_debug","data":"started fast retransmit","disambiguator":"3241634950913198545","crate_name":"smoltcp"}
00000014 g     O .defmt	00000001 {"package":"smoltcp","tag":"defmt_debug","data":"reset duplicate ACK count","disambiguator":"8376999530309766497","crate_name":"smoltcp"}
0000000b g     O .defmt	00000001 {"package":"smoltcp","tag":"defmt_debug","data":"assembler: too many holes to add {} octets at offset {}","disambiguator":"11422860642586057134","crate_name":"smoltcp"}
00000017 g     O .defmt	00000001 {"package":"smoltcp","tag":"defmt_debug","data":"sending sACK option with current assembler ranges","disambiguator":"17647954063314049668","crate_name":"smoltcp"}
00000003 g     O .defmt	00000001 {"package":"defmt","tag":"defmt_prim","data":"{=str}","disambiguator":"11239111700719193807","crate_name":"defmt"}
08004288 g     F .text	00000000 NonMaskableInt
08004288 g     F .text	00000000 MemoryManagement
08004288 g     F .text	00000000 BusFault
08004288 g     F .text	00000000 UsageFault
08004288 g     F .text	00000000 SVCall
08004288 g     F .text	00000000 DebugMonitor
08004288 g     F .text	00000000 PendSV
00000030 g     O .defmt	00000001 _defmt_encoding_ = rzcobs
00000031 g     O .defmt	00000001 _defmt_version_ = 4
08004288 g     F .text	00000000 WWDG
08004288 g     F .text	00000000 PVD
08004288 g     F .text	00000000 TAMP_STAMP
08004288 g     F .text	00000000 RTC_WKUP
08004288 g     F .text	00000000 FLASH
08004288 g     F .text	00000000 RCC
08004288 g     F .text	00000000 EXTI0
08004288 g     F .text	00000000 EXTI1
08004288 g     F .text	00000000 EXTI2
08004288 g     F .text	00000000 EXTI3
08004288 g     F .text	00000000 EXTI4
08004288 g     F .text	00000000 DMA1_STREAM0
08004288 g     F .text	00000000 DMA1_STREAM1
08004288 g     F .text	00000000 DMA1_STREAM2
08004288 g     F .text	00000000 DMA1_STREAM3
08004288 g     F .text	00000000 DMA1_STREAM4
08004288 g     F .text	00000000 DMA1_STREAM5
08004288 g     F .text	00000000 DMA1_STREAM6
08004288 g     F .text	00000000 ADC
08004288 g     F .text	00000000 CAN1_TX
08004288 g     F .text	00000000 CAN1_RX0
08004288 g     F .text	00000000 CAN1_RX1
08004288 g     F .text	00000000 CAN1_SCE
08004288 g     F .text	00000000 EXTI9_5
08004288 g     F .text	00000000 TIM1_BRK_TIM9
08004288 g     F .text	00000000 TIM1_UP_TIM10
08004288 g     F .text	00000000 TIM1_TRG_COM_TIM11
08004288 g     F .text	00000000 TIM1_CC
08004288 g     F .text	00000000 TIM2
08004288 g     F .text	00000000 TIM3
08004288 g     F .text	00000000 TIM4
08004288 g     F .text	00000000 I2C1_EV
08004288 g     F .text	00000000 I2C1_ER
08004288 g     F .text	00000000 I2C2_EV
08004288 g     F .text	00000000 I2C2_ER
08004288 g     F .text	00000000 SPI1
08004288 g     F .text	00000000 SPI2
08004288 g     F .text	00000000 USART1
08004288 g     F .text	00000000 USART2
08004288 g     F .text	00000000 USART3
08004288 g     F .text	00000000 EXTI15_10
08004288 g     F .text	00000000 RTC_ALARM
08004288 g     F .text	00000000 OTG_FS_WKUP
08004288 g     F .text	00000000 TIM8_BRK_TIM12
08004288 g     F .text	00000000 TIM8_UP_TIM13
08004288 g     F .text	00000000 TIM8_TRG_COM_TIM14
08004288 g     F .text	00000000 TIM8_CC
08004288 g     F .text	00000000 DMA1_STREAM7
08004288 g     F .text	00000000 FMC
08004288 g     F .text	00000000 SDMMC1
08004288 g     F .text	00000000 TIM5
08004288 g     F .text	00000000 SPI3
08004288 g     F .text	00000000 UART4
08004288 g     F .text	00000000 UART5
08004288 g     F .text	00000000 TIM6_DAC
08004288 g     F .text	00000000 TIM7
08004288 g     F .text	00000000 DMA2_STREAM0
08004288 g     F .text	00000000 DMA2_STREAM1
08004288 g     F .text	00000000 DMA2_STREAM2
08004288 g     F .text	00000000 DMA2_STREAM3
08004288 g     F .text	00000000 DMA2_STREAM4
08004288 g     F .text	00000000 ETH_WKUP
08004288 g     F .text	00000000 CAN2_TX
08004288 g     F .text	00000000 CAN2_RX0
08004288 g     F .text	00000000 CAN2_RX1
08004288 g     F .text	00000000 CAN2_SCE
08004288 g     F .text	00000000 OTG_FS
08004288 g     F .text	00000000 DMA2_STREAM5
08004288 g     F .text	00000000 DMA2_STREAM6
08004288 g     F .text	00000000 DMA2_STREAM7
08004288 g     F .text	00000000 USART6
08004288 g     F .text	00000000 I2C3_EV
08004288 g     F .text	00000000 I2C3_ER
08004288 g     F .text	00000000 OTG_HS_EP1_OUT
08004288 g     F .text	00000000 OTG_HS_EP1_IN
08004288 g     F .text	00000000 OTG_HS_WKUP
08004288 g     F .text	00000000 OTG_HS
08004288 g     F .text	00000000 DCMI
08004288 g     F .text	00000000 CRYP
08004288 g     F .text	00000000 HASH_RNG
08004288 g     F .text	00000000 FPU
08004288 g     F .text	00000000 UART7
08004288 g     F .text	00000000 UART8
08004288 g     F .text	00000000 SPI4
08004288 g     F .text	00000000 SPI5
08004288 g     F .text	00000000 SPI6
08004288 g     F .text	00000000 SAI1
08004288 g     F .text	00000000 LTDC
08004288 g     F .text	00000000 LTDC_ER
08004288 g     F .text	00000000 DMA2D
08004288 g     F .text	00000000 SAI2
08004288 g     F .text	00000000 QUADSPI
08004288 g     F .text	00000000 LP_TIMER1
08004288 g     F .text	00000000 HDMI_CEC
08004288 g     F .text	00000000 I2C4_EV
08004288 g     F .text	00000000 I2C4_ER
08004288 g     F .text	00000000 SPDIFRX
08004288 g     F .text	00000000 DSIHOST
08004288 g     F .text	00000000 DFSDM1_FLT0
08004288 g     F .text	00000000 DFSDM1_FLT1
08004288 g     F .text	00000000 DFSDM1_FLT2
08004288 g     F .text	00000000 DFSDM1_FLT3
08004288 g     F .text	00000000 SDMMC2
08004288 g     F .text	00000000 CAN3_TX
08004288 g     F .text	00000000 CAN3_RX0
08004288 g     F .text	00000000 CAN3_RX1
08004288 g     F .text	00000000 CAN3_SCE
08004288 g     F .text	00000000 JPEG
08004288 g     F .text	00000000 MDIOS
20000038 g       .bss	00000000 __sbss
20000074 g       .bss	00000000 __ebss
20000000 g       .data	00000000 __sdata
20000038 g       .data	00000000 __edata
0800b148 g       *ABS*	00000000 __sidata
20000046 g     O .bss	00000001 DEVICE_PERIPHERALS
20008000 g       *ABS*	00000000 _stack_start
080001f8 g       .vector_table	00000000 _stext
20000474 g       .uninit	00000000 __sheap
08000008 g       .vector_table	00000000 __reset_vector
08000040 g       .vector_table	00000000 __eexceptions
00000042 g       .defmt	00000000 __DEFMT_MARKER_END
20000474 g       .uninit	00000000 __euninit
08000000 g       .vector_table	00000000 __vector_table
080001f8 g       .text	00000000 __stext
08009830 g       .text	00000000 __etext
08009830 g       .rodata	00000000 __srodata
0800b148 g       .rodata	00000000 __erodata
0800b180 g       .gnu.sgstubs	00000000 __veneer_base
0800b180 g       .gnu.sgstubs	00000000 __veneer_limit
20000074 g       .uninit	00000000 __suninit
00000009 g       .defmt	00000000 __DEFMT_MARKER_TRACE_START
00000009 g       .defmt	00000000 __DEFMT_MARKER_TRACE_END
00000009 g       .defmt	00000000 __DEFMT_MARKER_DEBUG_START
0000002b g       .defmt	00000000 __DEFMT_MARKER_DEBUG_END
0000002b g       .defmt	00000000 __DEFMT_MARKER_INFO_START
0000002e g       .defmt	00000000 __DEFMT_MARKER_INFO_END
0000002e g       .defmt	00000000 __DEFMT_MARKER_WARN_START
0000002e g       .defmt	00000000 __DEFMT_MARKER_WARN_END
0000002e g       .defmt	00000000 __DEFMT_MARKER_ERROR_START
00000030 g       .defmt	00000000 __DEFMT_MARKER_ERROR_END



Disassembly of section .text:

080001f8 <Reset>:
 80001f8:	f004 f849 	bl	800428e <DefaultPreInit>
 80001fc:	480e      	ldr	r0, [pc, #56]	@ (8000238 <Reset+0x40>)
 80001fe:	490f      	ldr	r1, [pc, #60]	@ (800023c <Reset+0x44>)
 8000200:	2200      	movs	r2, #0
 8000202:	4281      	cmp	r1, r0
 8000204:	d001      	beq.n	800020a <Reset+0x12>
 8000206:	c004      	stmia	r0!, {r2}
 8000208:	e7fb      	b.n	8000202 <Reset+0xa>
 800020a:	480d      	ldr	r0, [pc, #52]	@ (8000240 <Reset+0x48>)
 800020c:	490d      	ldr	r1, [pc, #52]	@ (8000244 <Reset+0x4c>)
 800020e:	4a0e      	ldr	r2, [pc, #56]	@ (8000248 <Reset+0x50>)
 8000210:	4281      	cmp	r1, r0
 8000212:	d002      	beq.n	800021a <Reset+0x22>
 8000214:	ca08      	ldmia	r2!, {r3}
 8000216:	c008      	stmia	r0!, {r3}
 8000218:	e7fa      	b.n	8000210 <Reset+0x18>
 800021a:	480c      	ldr	r0, [pc, #48]	@ (800024c <Reset+0x54>)
 800021c:	f44f 0170 	mov.w	r1, #15728640	@ 0xf00000
 8000220:	6802      	ldr	r2, [r0, #0]
 8000222:	ea42 0201 	orr.w	r2, r2, r1
 8000226:	6002      	str	r2, [r0, #0]
 8000228:	f3bf 8f4f 	dsb	sy
 800022c:	f3bf 8f6f 	isb	sy
 8000230:	f004 fba2 	bl	8004978 <main>
 8000234:	de00      	udf	#0
 8000236:	0000      	movs	r0, r0
 8000238:	20000038 	.word	0x20000038
 800023c:	20000074 	.word	0x20000074
 8000240:	20000000 	.word	0x20000000
 8000244:	20000038 	.word	0x20000038
 8000248:	0800b148 	.word	0x0800b148
 800024c:	e000ed88 	.word	0xe000ed88

08000250 <smoltcp::wire::arp::Repr::emit>:
 8000250:	b5b0      	push	{r4, r5, r7, lr}
 8000252:	af02      	add	r7, sp, #8
 8000254:	2a01      	cmp	r2, #1
 8000256:	d949      	bls.n	80002ec <smoltcp::wire::arp::Repr::emit+0x9c>
 8000258:	f8d0 e00a 	ldr.w	lr, [r0, #10]
 800025c:	f44f 7580 	mov.w	r5, #256	@ 0x100
 8000260:	f8d0 c014 	ldr.w	ip, [r0, #20]
 8000264:	2a03      	cmp	r2, #3
 8000266:	8843      	ldrh	r3, [r0, #2]
 8000268:	8804      	ldrh	r4, [r0, #0]
 800026a:	800d      	strh	r5, [r1, #0]
 800026c:	d946      	bls.n	80002fc <smoltcp::wire::arp::Repr::emit+0xac>
 800026e:	2508      	movs	r5, #8
 8000270:	2a04      	cmp	r2, #4
 8000272:	804d      	strh	r5, [r1, #2]
 8000274:	d062      	beq.n	800033c <smoltcp::wire::arp::Repr::emit+0xec>
 8000276:	2506      	movs	r5, #6
 8000278:	2a05      	cmp	r2, #5
 800027a:	710d      	strb	r5, [r1, #4]
 800027c:	d966      	bls.n	800034c <smoltcp::wire::arp::Repr::emit+0xfc>
 800027e:	2504      	movs	r5, #4
 8000280:	2a07      	cmp	r2, #7
 8000282:	714d      	strb	r5, [r1, #5]
 8000284:	d942      	bls.n	800030c <smoltcp::wire::arp::Repr::emit+0xbc>
 8000286:	b324      	cbz	r4, 80002d2 <smoltcp::wire::arp::Repr::emit+0x82>
 8000288:	2c01      	cmp	r4, #1
 800028a:	bf08      	it	eq
 800028c:	2302      	moveq	r3, #2
 800028e:	ba5b      	rev16	r3, r3
 8000290:	2a0d      	cmp	r2, #13
 8000292:	80cb      	strh	r3, [r1, #6]
 8000294:	d922      	bls.n	80002dc <smoltcp::wire::arp::Repr::emit+0x8c>
 8000296:	1d03      	adds	r3, r0, #4
 8000298:	2a11      	cmp	r2, #17
 800029a:	681c      	ldr	r4, [r3, #0]
 800029c:	889b      	ldrh	r3, [r3, #4]
 800029e:	818b      	strh	r3, [r1, #12]
 80002a0:	608c      	str	r4, [r1, #8]
 80002a2:	d93b      	bls.n	800031c <smoltcp::wire::arp::Repr::emit+0xcc>
 80002a4:	2a17      	cmp	r2, #23
 80002a6:	f8c1 e00e 	str.w	lr, [r1, #14]
 80002aa:	d93f      	bls.n	800032c <smoltcp::wire::arp::Repr::emit+0xdc>
 80002ac:	300e      	adds	r0, #14
 80002ae:	2a1b      	cmp	r2, #27
 80002b0:	6803      	ldr	r3, [r0, #0]
 80002b2:	8880      	ldrh	r0, [r0, #4]
 80002b4:	82c8      	strh	r0, [r1, #22]
 80002b6:	f8c1 3012 	str.w	r3, [r1, #18]
 80002ba:	bf84      	itt	hi
 80002bc:	f8c1 c018 	strhi.w	ip, [r1, #24]
 80002c0:	bdb0      	pophi	{r4, r5, r7, pc}
 80002c2:	f649 0390 	movw	r3, #39056	@ 0x9890
 80002c6:	2018      	movs	r0, #24
 80002c8:	f6c0 0300 	movt	r3, #2048	@ 0x800
 80002cc:	211c      	movs	r1, #28
 80002ce:	f003 fa08 	bl	80036e2 <core::slice::index::slice_index_fail>
 80002d2:	2301      	movs	r3, #1
 80002d4:	ba5b      	rev16	r3, r3
 80002d6:	2a0d      	cmp	r2, #13
 80002d8:	80cb      	strh	r3, [r1, #6]
 80002da:	d8dc      	bhi.n	8000296 <smoltcp::wire::arp::Repr::emit+0x46>
 80002dc:	f649 0360 	movw	r3, #39008	@ 0x9860
 80002e0:	2008      	movs	r0, #8
 80002e2:	f6c0 0300 	movt	r3, #2048	@ 0x800
 80002e6:	210e      	movs	r1, #14
 80002e8:	f003 f9fb 	bl	80036e2 <core::slice::index::slice_index_fail>
 80002ec:	f649 0340 	movw	r3, #38976	@ 0x9840
 80002f0:	2000      	movs	r0, #0
 80002f2:	f6c0 0300 	movt	r3, #2048	@ 0x800
 80002f6:	2102      	movs	r1, #2
 80002f8:	f003 f9f3 	bl	80036e2 <core::slice::index::slice_index_fail>
 80002fc:	f649 0350 	movw	r3, #38992	@ 0x9850
 8000300:	2002      	movs	r0, #2
 8000302:	f6c0 0300 	movt	r3, #2048	@ 0x800
 8000306:	2104      	movs	r1, #4
 8000308:	f003 f9eb 	bl	80036e2 <core::slice::index::slice_index_fail>
 800030c:	f649 0330 	movw	r3, #38960	@ 0x9830
 8000310:	2006      	movs	r0, #6
 8000312:	f6c0 0300 	movt	r3, #2048	@ 0x800
 8000316:	2108      	movs	r1, #8
 8000318:	f003 f9e3 	bl	80036e2 <core::slice::index::slice_index_fail>
 800031c:	f649 0370 	movw	r3, #39024	@ 0x9870
 8000320:	200e      	movs	r0, #14
 8000322:	f6c0 0300 	movt	r3, #2048	@ 0x800
 8000326:	2112      	movs	r1, #18
 8000328:	f003 f9db 	bl	80036e2 <core::slice::index::slice_index_fail>
 800032c:	f649 0380 	movw	r3, #39040	@ 0x9880
 8000330:	2012      	movs	r0, #18
 8000332:	f6c0 0300 	movt	r3, #2048	@ 0x800
 8000336:	2118      	movs	r1, #24
 8000338:	f003 f9d3 	bl	80036e2 <core::slice::index::slice_index_fail>
 800033c:	f649 02a0 	movw	r2, #39072	@ 0x98a0
 8000340:	2004      	movs	r0, #4
 8000342:	f6c0 0200 	movt	r2, #2048	@ 0x800
 8000346:	2104      	movs	r1, #4
 8000348:	f003 fa4a 	bl	80037e0 <core::panicking::panic_bounds_check>
 800034c:	f649 02b0 	movw	r2, #39088	@ 0x98b0
 8000350:	2005      	movs	r0, #5
 8000352:	f6c0 0200 	movt	r2, #2048	@ 0x800
 8000356:	2105      	movs	r1, #5
 8000358:	f003 fa42 	bl	80037e0 <core::panicking::panic_bounds_check>

0800035c <smoltcp::iface::interface::InterfaceInner::dispatch_ip>:
 800035c:	b5f0      	push	{r4, r5, r6, r7, lr}
 800035e:	af03      	add	r7, sp, #12
 8000360:	e92d 0f00 	stmdb	sp!, {r8, r9, sl, fp}
 8000364:	b0b1      	sub	sp, #196	@ 0xc4
 8000366:	f8d3 8058 	ldr.w	r8, [r3, #88]	@ 0x58
 800036a:	f1b8 0f00 	cmp.w	r8, #0
 800036e:	f000 856e 	beq.w	8000e4e <smoltcp::iface::interface::InterfaceInner::dispatch_ip+0xaf2>
 8000372:	920b      	str	r2, [sp, #44]	@ 0x2c
 8000374:	f118 0601 	adds.w	r6, r8, #1
 8000378:	6d5a      	ldr	r2, [r3, #84]	@ 0x54
 800037a:	920f      	str	r2, [sp, #60]	@ 0x3c
 800037c:	6dda      	ldr	r2, [r3, #92]	@ 0x5c
 800037e:	9211      	str	r2, [sp, #68]	@ 0x44
 8000380:	f893 2062 	ldrb.w	r2, [r3, #98]	@ 0x62
 8000384:	9208      	str	r2, [sp, #32]
 8000386:	f893 2061 	ldrb.w	r2, [r3, #97]	@ 0x61
 800038a:	920d      	str	r2, [sp, #52]	@ 0x34
 800038c:	f893 2060 	ldrb.w	r2, [r3, #96]	@ 0x60
 8000390:	920c      	str	r2, [sp, #48]	@ 0x30
 8000392:	6802      	ldr	r2, [r0, #0]
 8000394:	68c4      	ldr	r4, [r0, #12]
 8000396:	920a      	str	r2, [sp, #40]	@ 0x28
 8000398:	6842      	ldr	r2, [r0, #4]
 800039a:	9209      	str	r2, [sp, #36]	@ 0x24
 800039c:	6882      	ldr	r2, [r0, #8]
 800039e:	920e      	str	r2, [sp, #56]	@ 0x38
 80003a0:	d044      	beq.n	800042c <smoltcp::iface::interface::InterfaceInner::dispatch_ip+0xd0>
 80003a2:	f8d0 90f0 	ldr.w	r9, [r0, #240]	@ 0xf0
 80003a6:	9410      	str	r4, [sp, #64]	@ 0x40
 80003a8:	f1b9 0f00 	cmp.w	r9, #0
 80003ac:	eb09 0a89 	add.w	sl, r9, r9, lsl #2
 80003b0:	d028      	beq.n	8000404 <smoltcp::iface::interface::InterfaceInner::dispatch_ip+0xa8>
 80003b2:	eb00 060a 	add.w	r6, r0, sl
 80003b6:	f100 05f4 	add.w	r5, r0, #244	@ 0xf4
 80003ba:	f106 0ef4 	add.w	lr, r6, #244	@ 0xf4
 80003be:	f04f 3cff 	mov.w	ip, #4294967295	@ 0xffffffff
 80003c2:	e00e      	b.n	80003e2 <smoltcp::iface::interface::InterfaceInner::dispatch_ip+0x86>
 80003c4:	2600      	movs	r6, #0
 80003c6:	f004 041f 	and.w	r4, r4, #31
 80003ca:	ea06 060b 	and.w	r6, r6, fp
 80003ce:	fa2c f404 	lsr.w	r4, ip, r4
 80003d2:	ba24      	rev	r4, r4
 80003d4:	4334      	orrs	r4, r6
 80003d6:	45a0      	cmp	r8, r4
 80003d8:	f000 80e9 	beq.w	80005ae <smoltcp::iface::interface::InterfaceInner::dispatch_ip+0x252>
 80003dc:	3505      	adds	r5, #5
 80003de:	4575      	cmp	r5, lr
 80003e0:	d010      	beq.n	8000404 <smoltcp::iface::interface::InterfaceInner::dispatch_ip+0xa8>
 80003e2:	792c      	ldrb	r4, [r5, #4]
 80003e4:	f8d5 b000 	ldr.w	fp, [r5]
 80003e8:	2c00      	cmp	r4, #0
 80003ea:	d0eb      	beq.n	80003c4 <smoltcp::iface::interface::InterfaceInner::dispatch_ip+0x68>
 80003ec:	f1a4 061f 	sub.w	r6, r4, #31
 80003f0:	b2f6      	uxtb	r6, r6
 80003f2:	2e02      	cmp	r6, #2
 80003f4:	d3f2      	bcc.n	80003dc <smoltcp::iface::interface::InterfaceInner::dispatch_ip+0x80>
 80003f6:	4266      	negs	r6, r4
 80003f8:	f006 061f 	and.w	r6, r6, #31
 80003fc:	fa0c f606 	lsl.w	r6, ip, r6
 8000400:	ba36      	rev	r6, r6
 8000402:	e7e0      	b.n	80003c6 <smoltcp::iface::interface::InterfaceInner::dispatch_ip+0x6a>
 8000404:	f008 06f0 	and.w	r6, r8, #240	@ 0xf0
 8000408:	2ee0      	cmp	r6, #224	@ 0xe0
 800040a:	d12d      	bne.n	8000468 <smoltcp::iface::interface::InterfaceInner::dispatch_ip+0x10c>
 800040c:	f3c8 2a06 	ubfx	sl, r8, #8, #7
 8000410:	ea4f 6c18 	mov.w	ip, r8, lsr #24
 8000414:	ea4f 4b18 	mov.w	fp, r8, lsr #16
 8000418:	f04f 0901 	mov.w	r9, #1
 800041c:	2500      	movs	r5, #0
 800041e:	265e      	movs	r6, #94	@ 0x5e
 8000420:	9c10      	ldr	r4, [sp, #64]	@ 0x40
 8000422:	680a      	ldr	r2, [r1, #0]
 8000424:	2a02      	cmp	r2, #2
 8000426:	f000 80d1 	beq.w	80005cc <smoltcp::iface::interface::InterfaceInner::dispatch_ip+0x270>
 800042a:	e00d      	b.n	8000448 <smoltcp::iface::interface::InterfaceInner::dispatch_ip+0xec>
 800042c:	f04f 0cff 	mov.w	ip, #255	@ 0xff
 8000430:	f04f 0bff 	mov.w	fp, #255	@ 0xff
 8000434:	f04f 0aff 	mov.w	sl, #255	@ 0xff
 8000438:	26ff      	movs	r6, #255	@ 0xff
 800043a:	25ff      	movs	r5, #255	@ 0xff
 800043c:	f04f 09ff 	mov.w	r9, #255	@ 0xff
 8000440:	680a      	ldr	r2, [r1, #0]
 8000442:	2a02      	cmp	r2, #2
 8000444:	f000 80c2 	beq.w	80005cc <smoltcp::iface::interface::InterfaceInner::dispatch_ip+0x270>
 8000448:	9607      	str	r6, [sp, #28]
 800044a:	f1a4 020e 	sub.w	r2, r4, #14
 800044e:	9e11      	ldr	r6, [sp, #68]	@ 0x44
 8000450:	f106 0e14 	add.w	lr, r6, #20
 8000454:	4596      	cmp	lr, r2
 8000456:	d927      	bls.n	80004a8 <smoltcp::iface::interface::InterfaceInner::dispatch_ip+0x14c>
 8000458:	f240 0022 	movw	r0, #34	@ 0x22
 800045c:	f2c0 0000 	movt	r0, #0
 8000460:	f003 ff7b 	bl	800435a <defmt::export::acquire_header_and_release>
 8000464:	f000 bc0c 	b.w	8000c80 <smoltcp::iface::interface::InterfaceInner::dispatch_ip+0x924>
 8000468:	e9d0 2b04 	ldrd	r2, fp, [r0, #16]
 800046c:	f100 04f4 	add.w	r4, r0, #244	@ 0xf4
 8000470:	f04f 3cff 	mov.w	ip, #4294967295	@ 0xffffffff
 8000474:	9207      	str	r2, [sp, #28]
 8000476:	e00e      	b.n	8000496 <smoltcp::iface::interface::InterfaceInner::dispatch_ip+0x13a>
 8000478:	4276      	negs	r6, r6
 800047a:	f006 061f 	and.w	r6, r6, #31
 800047e:	fa0c f606 	lsl.w	r6, ip, r6
 8000482:	ba36      	rev	r6, r6
 8000484:	6825      	ldr	r5, [r4, #0]
 8000486:	3405      	adds	r4, #5
 8000488:	f1aa 0a05 	sub.w	sl, sl, #5
 800048c:	ea85 0508 	eor.w	r5, r5, r8
 8000490:	422e      	tst	r6, r5
 8000492:	f000 80b8 	beq.w	8000606 <smoltcp::iface::interface::InterfaceInner::dispatch_ip+0x2aa>
 8000496:	f1ba 0f00 	cmp.w	sl, #0
 800049a:	f000 809c 	beq.w	80005d6 <smoltcp::iface::interface::InterfaceInner::dispatch_ip+0x27a>
 800049e:	7926      	ldrb	r6, [r4, #4]
 80004a0:	2e00      	cmp	r6, #0
 80004a2:	d1e9      	bne.n	8000478 <smoltcp::iface::interface::InterfaceInner::dispatch_ip+0x11c>
 80004a4:	2600      	movs	r6, #0
 80004a6:	e7ed      	b.n	8000484 <smoltcp::iface::interface::InterfaceInner::dispatch_ip+0x128>
 80004a8:	9505      	str	r5, [sp, #20]
 80004aa:	688d      	ldr	r5, [r1, #8]
 80004ac:	e9d5 1601 	ldrd	r1, r6, [r5, #4]
 80004b0:	428e      	cmp	r6, r1
 80004b2:	f080 85da 	bcs.w	800106a <smoltcp::iface::interface::InterfaceInner::dispatch_ip+0xd0e>
 80004b6:	f44f 62c6 	mov.w	r2, #1584	@ 0x630
 80004ba:	e9cd ba02 	strd	fp, sl, [sp, #8]
 80004be:	4372      	muls	r2, r6
 80004c0:	f8d5 a000 	ldr.w	sl, [r5]
 80004c4:	f8cd c010 	str.w	ip, [sp, #16]
 80004c8:	9410      	str	r4, [sp, #64]	@ 0x40
 80004ca:	f85a 2002 	ldr.w	r2, [sl, r2]
 80004ce:	2a00      	cmp	r2, #0
 80004d0:	f100 85d2 	bmi.w	8001078 <smoltcp::iface::interface::InterfaceInner::dispatch_ip+0xd1c>
 80004d4:	9a11      	ldr	r2, [sp, #68]	@ 0x44
 80004d6:	9606      	str	r6, [sp, #24]
 80004d8:	f102 0b22 	add.w	fp, r2, #34	@ 0x22
 80004dc:	1c72      	adds	r2, r6, #1
 80004de:	fbb2 fcf1 	udiv	ip, r2, r1
 80004e2:	fb0c 2111 	mls	r1, ip, r1, r2
 80004e6:	60a9      	str	r1, [r5, #8]
 80004e8:	f240 51f3 	movw	r1, #1523	@ 0x5f3
 80004ec:	458b      	cmp	fp, r1
 80004ee:	f080 84b9 	bcs.w	8000e64 <smoltcp::iface::interface::InterfaceInner::dispatch_ip+0xb08>
 80004f2:	46dc      	mov	ip, fp
 80004f4:	f1bb 0f0b 	cmp.w	fp, #11
 80004f8:	f240 84bf 	bls.w	8000e7a <smoltcp::iface::interface::InterfaceInner::dispatch_ip+0xb1e>
 80004fc:	9e06      	ldr	r6, [sp, #24]
 80004fe:	f44f 62c6 	mov.w	r2, #1584	@ 0x630
 8000502:	f500 71b4 	add.w	r1, r0, #360	@ 0x168
 8000506:	46ab      	mov	fp, r5
 8000508:	f1bc 0f0d 	cmp.w	ip, #13
 800050c:	fb06 a202 	mla	r2, r6, r2, sl
 8000510:	f102 0538 	add.w	r5, r2, #56	@ 0x38
 8000514:	680a      	ldr	r2, [r1, #0]
 8000516:	8889      	ldrh	r1, [r1, #4]
 8000518:	8169      	strh	r1, [r5, #10]
 800051a:	9904      	ldr	r1, [sp, #16]
 800051c:	7169      	strb	r1, [r5, #5]
 800051e:	9902      	ldr	r1, [sp, #8]
 8000520:	7129      	strb	r1, [r5, #4]
 8000522:	9903      	ldr	r1, [sp, #12]
 8000524:	70e9      	strb	r1, [r5, #3]
 8000526:	9907      	ldr	r1, [sp, #28]
 8000528:	70a9      	strb	r1, [r5, #2]
 800052a:	9905      	ldr	r1, [sp, #20]
 800052c:	f8c5 2006 	str.w	r2, [r5, #6]
 8000530:	7069      	strb	r1, [r5, #1]
 8000532:	f885 9000 	strb.w	r9, [r5]
 8000536:	f240 84a9 	bls.w	8000e8c <smoltcp::iface::interface::InterfaceInner::dispatch_ip+0xb30>
 800053a:	f8dd 9044 	ldr.w	r9, [sp, #68]	@ 0x44
 800053e:	2108      	movs	r1, #8
 8000540:	9c0d      	ldr	r4, [sp, #52]	@ 0x34
 8000542:	f1be 0f00 	cmp.w	lr, #0
 8000546:	81a9      	strh	r1, [r5, #12]
 8000548:	f000 85a1 	beq.w	800108e <smoltcp::iface::interface::InterfaceInner::dispatch_ip+0xd32>
 800054c:	7a00      	ldrb	r0, [r0, #8]
 800054e:	f105 010e 	add.w	r1, r5, #14
 8000552:	2245      	movs	r2, #69	@ 0x45
 8000554:	f1be 0f01 	cmp.w	lr, #1
 8000558:	700a      	strb	r2, [r1, #0]
 800055a:	f000 85a0 	beq.w	800109e <smoltcp::iface::interface::InterfaceInner::dispatch_ip+0xd42>
 800055e:	2200      	movs	r2, #0
 8000560:	f1be 0f03 	cmp.w	lr, #3
 8000564:	73ea      	strb	r2, [r5, #15]
 8000566:	f240 849a 	bls.w	8000e9e <smoltcp::iface::interface::InterfaceInner::dispatch_ip+0xb42>
 800056a:	fa9e f28e 	rev.w	r2, lr
 800056e:	f1be 0f05 	cmp.w	lr, #5
 8000572:	ea4f 4212 	mov.w	r2, r2, lsr #16
 8000576:	822a      	strh	r2, [r5, #16]
 8000578:	f240 849a 	bls.w	8000eb0 <smoltcp::iface::interface::InterfaceInner::dispatch_ip+0xb54>
 800057c:	2200      	movs	r2, #0
 800057e:	f1be 0f07 	cmp.w	lr, #7
 8000582:	826a      	strh	r2, [r5, #18]
 8000584:	f240 849d 	bls.w	8000ec2 <smoltcp::iface::interface::InterfaceInner::dispatch_ip+0xb66>
 8000588:	2240      	movs	r2, #64	@ 0x40
 800058a:	f1be 0f08 	cmp.w	lr, #8
 800058e:	82aa      	strh	r2, [r5, #20]
 8000590:	f000 858d 	beq.w	80010ae <smoltcp::iface::interface::InterfaceInner::dispatch_ip+0xd52>
 8000594:	9a0c      	ldr	r2, [sp, #48]	@ 0x30
 8000596:	75aa      	strb	r2, [r5, #22]
 8000598:	e8df f004 	tbb	[pc, r4]
 800059c:	07979797 	.word	0x07979797
 80005a0:	8e929088 	.word	0x8e929088
 80005a4:	86948c96 	.word	0x86948c96
 80005a8:	008a      	.short	0x008a
 80005aa:	2406      	movs	r4, #6
 80005ac:	e08d      	b.n	80006ca <smoltcp::iface::interface::InterfaceInner::dispatch_ip+0x36e>
 80005ae:	f04f 0cff 	mov.w	ip, #255	@ 0xff
 80005b2:	f04f 0bff 	mov.w	fp, #255	@ 0xff
 80005b6:	f04f 0aff 	mov.w	sl, #255	@ 0xff
 80005ba:	26ff      	movs	r6, #255	@ 0xff
 80005bc:	25ff      	movs	r5, #255	@ 0xff
 80005be:	f04f 09ff 	mov.w	r9, #255	@ 0xff
 80005c2:	9c10      	ldr	r4, [sp, #64]	@ 0x40
 80005c4:	680a      	ldr	r2, [r1, #0]
 80005c6:	2a02      	cmp	r2, #2
 80005c8:	f47f af3e 	bne.w	8000448 <smoltcp::iface::interface::InterfaceInner::dispatch_ip+0xec>
 80005cc:	4648      	mov	r0, r9
 80005ce:	b031      	add	sp, #196	@ 0xc4
 80005d0:	e8bd 0f00 	ldmia.w	sp!, {r8, r9, sl, fp}
 80005d4:	bdf0      	pop	{r4, r5, r6, r7, pc}
 80005d6:	f500 7680 	add.w	r6, r0, #256	@ 0x100
 80005da:	4682      	mov	sl, r0
 80005dc:	a813      	add	r0, sp, #76	@ 0x4c
 80005de:	e9cd 2b00 	strd	r2, fp, [sp]
 80005e2:	460d      	mov	r5, r1
 80005e4:	4631      	mov	r1, r6
 80005e6:	4642      	mov	r2, r8
 80005e8:	461c      	mov	r4, r3
 80005ea:	f007 fe8e 	bl	800830a <smoltcp::iface::route::Routes::lookup>
 80005ee:	f89d 004c 	ldrb.w	r0, [sp, #76]	@ 0x4c
 80005f2:	4629      	mov	r1, r5
 80005f4:	4623      	mov	r3, r4
 80005f6:	b948      	cbnz	r0, 800060c <smoltcp::iface::interface::InterfaceInner::dispatch_ip+0x2b0>
 80005f8:	f04f 0900 	mov.w	r9, #0
 80005fc:	4648      	mov	r0, r9
 80005fe:	b031      	add	sp, #196	@ 0xc4
 8000600:	e8bd 0f00 	ldmia.w	sp!, {r8, r9, sl, fp}
 8000604:	bdf0      	pop	{r4, r5, r6, r7, pc}
 8000606:	4682      	mov	sl, r0
 8000608:	f8cd 804d 	str.w	r8, [sp, #77]	@ 0x4d
 800060c:	f89d 0050 	ldrb.w	r0, [sp, #80]	@ 0x50
 8000610:	f8bd 604e 	ldrh.w	r6, [sp, #78]	@ 0x4e
 8000614:	f89d e04d 	ldrb.w	lr, [sp, #77]	@ 0x4d
 8000618:	ea46 4200 	orr.w	r2, r6, r0, lsl #16
 800061c:	ea4e 2602 	orr.w	r6, lr, r2, lsl #8
 8000620:	1c70      	adds	r0, r6, #1
 8000622:	d006      	beq.n	8000632 <smoltcp::iface::interface::InterfaceInner::dispatch_ip+0x2d6>
 8000624:	f00e 00f0 	and.w	r0, lr, #240	@ 0xf0
 8000628:	28e0      	cmp	r0, #224	@ 0xe0
 800062a:	bf18      	it	ne
 800062c:	ea52 000e 	orrsne.w	r0, r2, lr
 8000630:	d10a      	bne.n	8000648 <smoltcp::iface::interface::InterfaceInner::dispatch_ip+0x2ec>
 8000632:	f64a 7004 	movw	r0, #44804	@ 0xaf04
 8000636:	f64a 7230 	movw	r2, #44848	@ 0xaf30
 800063a:	f6c0 0000 	movt	r0, #2048	@ 0x800
 800063e:	f6c0 0200 	movt	r2, #2048	@ 0x800
 8000642:	212c      	movs	r1, #44	@ 0x2c
 8000644:	f003 f8e0 	bl	8003808 <core::panicking::panic>
 8000648:	f8da 40e0 	ldr.w	r4, [sl, #224]	@ 0xe0
 800064c:	4650      	mov	r0, sl
 800064e:	e9cd 2b05 	strd	r2, fp, [sp, #20]
 8000652:	eba4 0484 	sub.w	r4, r4, r4, lsl #2
 8000656:	ea4f 0ac4 	mov.w	sl, r4, lsl #3
 800065a:	2400      	movs	r4, #0
 800065c:	eb1a 0b04 	adds.w	fp, sl, r4
 8000660:	f000 832f 	beq.w	8000cc2 <smoltcp::iface::interface::InterfaceInner::dispatch_ip+0x966>
 8000664:	1905      	adds	r5, r0, r4
 8000666:	f8d5 c020 	ldr.w	ip, [r5, #32]
 800066a:	45b4      	cmp	ip, r6
 800066c:	f000 82d2 	beq.w	8000c14 <smoltcp::iface::interface::InterfaceInner::dispatch_ip+0x8b8>
 8000670:	f11b 0218 	adds.w	r2, fp, #24
 8000674:	f000 8325 	beq.w	8000cc2 <smoltcp::iface::interface::InterfaceInner::dispatch_ip+0x966>
 8000678:	6baa      	ldr	r2, [r5, #56]	@ 0x38
 800067a:	42b2      	cmp	r2, r6
 800067c:	f000 82cc 	beq.w	8000c18 <smoltcp::iface::interface::InterfaceInner::dispatch_ip+0x8bc>
 8000680:	f11b 0230 	adds.w	r2, fp, #48	@ 0x30
 8000684:	f000 831d 	beq.w	8000cc2 <smoltcp::iface::interface::InterfaceInner::dispatch_ip+0x966>
 8000688:	6d2a      	ldr	r2, [r5, #80]	@ 0x50
 800068a:	42b2      	cmp	r2, r6
 800068c:	f000 82ff 	beq.w	8000c8e <smoltcp::iface::interface::InterfaceInner::dispatch_ip+0x932>
 8000690:	f11b 0248 	adds.w	r2, fp, #72	@ 0x48
 8000694:	f000 8315 	beq.w	8000cc2 <smoltcp::iface::interface::InterfaceInner::dispatch_ip+0x966>
 8000698:	6eaa      	ldr	r2, [r5, #104]	@ 0x68
 800069a:	3460      	adds	r4, #96	@ 0x60
 800069c:	42b2      	cmp	r2, r6
 800069e:	d1dd      	bne.n	800065c <smoltcp::iface::interface::InterfaceInner::dispatch_ip+0x300>
 80006a0:	1902      	adds	r2, r0, r4
 80006a2:	f102 0508 	add.w	r5, r2, #8
 80006a6:	e2f3      	b.n	8000c90 <smoltcp::iface::interface::InterfaceInner::dispatch_ip+0x934>
 80006a8:	243c      	movs	r4, #60	@ 0x3c
 80006aa:	e00e      	b.n	80006ca <smoltcp::iface::interface::InterfaceInner::dispatch_ip+0x36e>
 80006ac:	2411      	movs	r4, #17
 80006ae:	e00c      	b.n	80006ca <smoltcp::iface::interface::InterfaceInner::dispatch_ip+0x36e>
 80006b0:	9c08      	ldr	r4, [sp, #32]
 80006b2:	e00a      	b.n	80006ca <smoltcp::iface::interface::InterfaceInner::dispatch_ip+0x36e>
 80006b4:	243a      	movs	r4, #58	@ 0x3a
 80006b6:	e008      	b.n	80006ca <smoltcp::iface::interface::InterfaceInner::dispatch_ip+0x36e>
 80006b8:	2432      	movs	r4, #50	@ 0x32
 80006ba:	e006      	b.n	80006ca <smoltcp::iface::interface::InterfaceInner::dispatch_ip+0x36e>
 80006bc:	242b      	movs	r4, #43	@ 0x2b
 80006be:	e004      	b.n	80006ca <smoltcp::iface::interface::InterfaceInner::dispatch_ip+0x36e>
 80006c0:	242c      	movs	r4, #44	@ 0x2c
 80006c2:	e002      	b.n	80006ca <smoltcp::iface::interface::InterfaceInner::dispatch_ip+0x36e>
 80006c4:	243b      	movs	r4, #59	@ 0x3b
 80006c6:	e000      	b.n	80006ca <smoltcp::iface::interface::InterfaceInner::dispatch_ip+0x36e>
 80006c8:	2433      	movs	r4, #51	@ 0x33
 80006ca:	f1be 0f09 	cmp.w	lr, #9
 80006ce:	f240 84f6 	bls.w	80010be <smoltcp::iface::interface::InterfaceInner::dispatch_ip+0xd62>
 80006d2:	f1be 0f0f 	cmp.w	lr, #15
 80006d6:	75ec      	strb	r4, [r5, #23]
 80006d8:	f240 83fc 	bls.w	8000ed4 <smoltcp::iface::interface::InterfaceInner::dispatch_ip+0xb78>
 80006dc:	9a0f      	ldr	r2, [sp, #60]	@ 0x3c
 80006de:	f119 0f14 	cmn.w	r9, #20
 80006e2:	f8c5 201a 	str.w	r2, [r5, #26]
 80006e6:	f080 83fe 	bcs.w	8000ee6 <smoltcp::iface::interface::InterfaceInner::dispatch_ip+0xb8a>
 80006ea:	f010 0ffd 	tst.w	r0, #253	@ 0xfd
 80006ee:	f8cd c034 	str.w	ip, [sp, #52]	@ 0x34
 80006f2:	f8c5 801e 	str.w	r8, [r5, #30]
 80006f6:	d10b      	bne.n	8000710 <smoltcp::iface::interface::InterfaceInner::dispatch_ip+0x3b4>
 80006f8:	2000      	movs	r0, #0
 80006fa:	461c      	mov	r4, r3
 80006fc:	8328      	strh	r0, [r5, #24]
 80006fe:	4608      	mov	r0, r1
 8000700:	2114      	movs	r1, #20
 8000702:	f007 fc9c 	bl	800803e <smoltcp::wire::ip::checksum::data>
 8000706:	43c0      	mvns	r0, r0
 8000708:	4623      	mov	r3, r4
 800070a:	ba00      	rev	r0, r0
 800070c:	0c00      	lsrs	r0, r0, #16
 800070e:	e000      	b.n	8000712 <smoltcp::iface::interface::InterfaceInner::dispatch_ip+0x3b6>
 8000710:	2000      	movs	r0, #0
 8000712:	8328      	strh	r0, [r5, #24]
 8000714:	f105 0a22 	add.w	sl, r5, #34	@ 0x22
 8000718:	6818      	ldr	r0, [r3, #0]
 800071a:	3802      	subs	r0, #2
 800071c:	bf38      	it	cc
 800071e:	2002      	movcc	r0, #2
 8000720:	2800      	cmp	r0, #0
 8000722:	d071      	beq.n	8000808 <smoltcp::iface::interface::InterfaceInner::dispatch_ip+0x4ac>
 8000724:	2801      	cmp	r0, #1
 8000726:	f040 8081 	bne.w	800082c <smoltcp::iface::interface::InterfaceInner::dispatch_ip+0x4d0>
 800072a:	f1b9 0f01 	cmp.w	r9, #1
 800072e:	f240 83ec 	bls.w	8000f0a <smoltcp::iface::interface::InterfaceInner::dispatch_ip+0xbae>
 8000732:	e9d3 1201 	ldrd	r1, r2, [r3, #4]
 8000736:	f1b9 0f03 	cmp.w	r9, #3
 800073a:	89d8      	ldrh	r0, [r3, #14]
 800073c:	899b      	ldrh	r3, [r3, #12]
 800073e:	ba1b      	rev	r3, r3
 8000740:	ea4f 4313 	mov.w	r3, r3, lsr #16
 8000744:	f8aa 3000 	strh.w	r3, [sl]
 8000748:	f240 83f1 	bls.w	8000f2e <smoltcp::iface::interface::InterfaceInner::dispatch_ip+0xbd2>
 800074c:	ba40      	rev16	r0, r0
 800074e:	f1b9 0f05 	cmp.w	r9, #5
 8000752:	84a8      	strh	r0, [r5, #36]	@ 0x24
 8000754:	f240 83fd 	bls.w	8000f52 <smoltcp::iface::interface::InterfaceInner::dispatch_ip+0xbf6>
 8000758:	f102 0008 	add.w	r0, r2, #8
 800075c:	ba03      	rev	r3, r0
 800075e:	b286      	uxth	r6, r0
 8000760:	b290      	uxth	r0, r2
 8000762:	0c1b      	lsrs	r3, r3, #16
 8000764:	84eb      	strh	r3, [r5, #38]	@ 0x26
 8000766:	f64f 73f7 	movw	r3, #65527	@ 0xfff7
 800076a:	4298      	cmp	r0, r3
 800076c:	f200 83c4 	bhi.w	8000ef8 <smoltcp::iface::interface::InterfaceInner::dispatch_ip+0xb9c>
 8000770:	45b1      	cmp	r9, r6
 8000772:	f0c0 83c1 	bcc.w	8000ef8 <smoltcp::iface::interface::InterfaceInner::dispatch_ip+0xb9c>
 8000776:	f1a6 0008 	sub.w	r0, r6, #8
 800077a:	4290      	cmp	r0, r2
 800077c:	f040 840d 	bne.w	8000f9a <smoltcp::iface::interface::InterfaceInner::dispatch_ip+0xc3e>
 8000780:	980e      	ldr	r0, [sp, #56]	@ 0x38
 8000782:	0a04      	lsrs	r4, r0, #8
 8000784:	f105 002a 	add.w	r0, r5, #42	@ 0x2a
 8000788:	f008 fdb3 	bl	80092f2 <__aeabi_memcpy>
 800078c:	f014 0ffd 	tst.w	r4, #253	@ 0xfd
 8000790:	f040 80f5 	bne.w	800097e <smoltcp::iface::interface::InterfaceInner::dispatch_ip+0x622>
 8000794:	f1b9 0f07 	cmp.w	r9, #7
 8000798:	f240 8407 	bls.w	8000faa <smoltcp::iface::interface::InterfaceInner::dispatch_ip+0xc4e>
 800079c:	2000      	movs	r0, #0
 800079e:	f64f 79ff 	movw	r9, #65535	@ 0xffff
 80007a2:	8528      	strh	r0, [r5, #40]	@ 0x28
 80007a4:	fa98 f088 	rev.w	r0, r8
 80007a8:	0c01      	lsrs	r1, r0, #16
 80007aa:	fa11 f080 	uxtah	r0, r1, r0
 80007ae:	0c01      	lsrs	r1, r0, #16
 80007b0:	fa11 f080 	uxtah	r0, r1, r0
 80007b4:	990f      	ldr	r1, [sp, #60]	@ 0x3c
 80007b6:	eb00 4010 	add.w	r0, r0, r0, lsr #16
 80007ba:	ba09      	rev	r1, r1
 80007bc:	b280      	uxth	r0, r0
 80007be:	0c0a      	lsrs	r2, r1, #16
 80007c0:	fa12 f181 	uxtah	r1, r2, r1
 80007c4:	0c0a      	lsrs	r2, r1, #16
 80007c6:	fa12 f181 	uxtah	r1, r2, r1
 80007ca:	eb01 4111 	add.w	r1, r1, r1, lsr #16
 80007ce:	fa10 f081 	uxtah	r0, r0, r1
 80007d2:	4430      	add	r0, r6
 80007d4:	3011      	adds	r0, #17
 80007d6:	0c01      	lsrs	r1, r0, #16
 80007d8:	fa11 f080 	uxtah	r0, r1, r0
 80007dc:	4631      	mov	r1, r6
 80007de:	eb00 4010 	add.w	r0, r0, r0, lsr #16
 80007e2:	b284      	uxth	r4, r0
 80007e4:	4650      	mov	r0, sl
 80007e6:	f007 fc2a 	bl	800803e <smoltcp::wire::ip::checksum::data>
 80007ea:	fa14 f080 	uxtah	r0, r4, r0
 80007ee:	0c01      	lsrs	r1, r0, #16
 80007f0:	fa11 f080 	uxtah	r0, r1, r0
 80007f4:	eb00 4010 	add.w	r0, r0, r0, lsr #16
 80007f8:	43c1      	mvns	r1, r0
 80007fa:	b280      	uxth	r0, r0
 80007fc:	ba09      	rev	r1, r1
 80007fe:	4548      	cmp	r0, r9
 8000800:	bf18      	it	ne
 8000802:	0c08      	lsrne	r0, r1, #16
 8000804:	8528      	strh	r0, [r5, #40]	@ 0x28
 8000806:	e20b      	b.n	8000c20 <smoltcp::iface::interface::InterfaceInner::dispatch_ip+0x8c4>
 8000808:	f1b9 0f02 	cmp.w	r9, #2
 800080c:	f0c0 8465 	bcc.w	80010da <smoltcp::iface::interface::InterfaceInner::dispatch_ip+0xd7e>
 8000810:	980e      	ldr	r0, [sp, #56]	@ 0x38
 8000812:	ea4f 6810 	mov.w	r8, r0, lsr #24
 8000816:	7918      	ldrb	r0, [r3, #4]
 8000818:	e8df f010 	tbh	[pc, r0, lsl #1]
 800081c:	01070004 	.word	0x01070004
 8000820:	00df00b8 	.word	0x00df00b8
 8000824:	e9d3 1003 	ldrd	r1, r0, [r3, #12]
 8000828:	2608      	movs	r6, #8
 800082a:	e101      	b.n	8000a30 <smoltcp::iface::interface::InterfaceInner::dispatch_ip+0x6d4>
 800082c:	a813      	add	r0, sp, #76	@ 0x4c
 800082e:	4619      	mov	r1, r3
 8000830:	2254      	movs	r2, #84	@ 0x54
 8000832:	f008 f834 	bl	800889e <__aeabi_memcpy4>
 8000836:	980a      	ldr	r0, [sp, #40]	@ 0x28
 8000838:	b380      	cbz	r0, 800089c <smoltcp::iface::interface::InterfaceInner::dispatch_ip+0x540>
 800083a:	f8bd 0084 	ldrh.w	r0, [sp, #132]	@ 0x84
 800083e:	2318      	movs	r3, #24
 8000840:	f89d 2094 	ldrb.w	r2, [sp, #148]	@ 0x94
 8000844:	f89d 109c 	ldrb.w	r1, [sp, #156]	@ 0x9c
 8000848:	2800      	cmp	r0, #0
 800084a:	f8dd c054 	ldr.w	ip, [sp, #84]	@ 0x54
 800084e:	f8dd e060 	ldr.w	lr, [sp, #96]	@ 0x60
 8000852:	9e1b      	ldr	r6, [sp, #108]	@ 0x6c
 8000854:	9c1e      	ldr	r4, [sp, #120]	@ 0x78
 8000856:	bf08      	it	eq
 8000858:	2314      	moveq	r3, #20
 800085a:	f362 0300 	bfi	r3, r2, #0, #1
 800085e:	f362 0341 	bfi	r3, r2, #1, #1
 8000862:	2c00      	cmp	r4, #0
 8000864:	eb03 0041 	add.w	r0, r3, r1, lsl #1
 8000868:	eb0e 010c 	add.w	r1, lr, ip
 800086c:	4431      	add	r1, r6
 800086e:	bf18      	it	ne
 8000870:	300a      	addne	r0, #10
 8000872:	2300      	movs	r3, #0
 8000874:	eb00 02c1 	add.w	r2, r0, r1, lsl #3
 8000878:	ebb3 0fc1 	cmp.w	r3, r1, lsl #3
 800087c:	bf18      	it	ne
 800087e:	1c90      	addne	r0, r2, #2
 8000880:	9910      	ldr	r1, [sp, #64]	@ 0x40
 8000882:	3003      	adds	r0, #3
 8000884:	f020 0003 	bic.w	r0, r0, #3
 8000888:	1a08      	subs	r0, r1, r0
 800088a:	9909      	ldr	r1, [sp, #36]	@ 0x24
 800088c:	3814      	subs	r0, #20
 800088e:	4348      	muls	r0, r1
 8000890:	f8bd 109a 	ldrh.w	r1, [sp, #154]	@ 0x9a
 8000894:	4288      	cmp	r0, r1
 8000896:	bf38      	it	cc
 8000898:	f8ad 009a 	strhcc.w	r0, [sp, #154]	@ 0x9a
 800089c:	f1b9 0f01 	cmp.w	r9, #1
 80008a0:	f240 833c 	bls.w	8000f1c <smoltcp::iface::interface::InterfaceInner::dispatch_ip+0xbc0>
 80008a4:	f8bd 0096 	ldrh.w	r0, [sp, #150]	@ 0x96
 80008a8:	f1b9 0f03 	cmp.w	r9, #3
 80008ac:	ba00      	rev	r0, r0
 80008ae:	ea4f 4010 	mov.w	r0, r0, lsr #16
 80008b2:	f8aa 0000 	strh.w	r0, [sl]
 80008b6:	f240 8343 	bls.w	8000f40 <smoltcp::iface::interface::InterfaceInner::dispatch_ip+0xbe4>
 80008ba:	f8bd 0098 	ldrh.w	r0, [sp, #152]	@ 0x98
 80008be:	f1b9 0f07 	cmp.w	r9, #7
 80008c2:	ba00      	rev	r0, r0
 80008c4:	ea4f 4010 	mov.w	r0, r0, lsr #16
 80008c8:	84a8      	strh	r0, [r5, #36]	@ 0x24
 80008ca:	f240 834b 	bls.w	8000f64 <smoltcp::iface::interface::InterfaceInner::dispatch_ip+0xc08>
 80008ce:	9e13      	ldr	r6, [sp, #76]	@ 0x4c
 80008d0:	f1b9 0f0b 	cmp.w	r9, #11
 80008d4:	9824      	ldr	r0, [sp, #144]	@ 0x90
 80008d6:	ba00      	rev	r0, r0
 80008d8:	f8c5 0026 	str.w	r0, [r5, #38]	@ 0x26
 80008dc:	f240 834b 	bls.w	8000f76 <smoltcp::iface::interface::InterfaceInner::dispatch_ip+0xc1a>
 80008e0:	2e00      	cmp	r6, #0
 80008e2:	4631      	mov	r1, r6
 80008e4:	f8cd a030 	str.w	sl, [sp, #48]	@ 0x30
 80008e8:	f8cd b040 	str.w	fp, [sp, #64]	@ 0x40
 80008ec:	9814      	ldr	r0, [sp, #80]	@ 0x50
 80008ee:	bf18      	it	ne
 80008f0:	ba01      	revne	r1, r0
 80008f2:	f1b9 0f0f 	cmp.w	r9, #15
 80008f6:	f8c5 102a 	str.w	r1, [r5, #42]	@ 0x2a
 80008fa:	f240 8345 	bls.w	8000f88 <smoltcp::iface::interface::InterfaceInner::dispatch_ip+0xc2c>
 80008fe:	f8bd 109a 	ldrh.w	r1, [sp, #154]	@ 0x9a
 8000902:	980e      	ldr	r0, [sp, #56]	@ 0x38
 8000904:	ba09      	rev	r1, r1
 8000906:	f89d a09c 	ldrb.w	sl, [sp, #156]	@ 0x9c
 800090a:	9c15      	ldr	r4, [sp, #84]	@ 0x54
 800090c:	ea4f 4c10 	mov.w	ip, r0, lsr #16
 8000910:	f8bd 0084 	ldrh.w	r0, [sp, #132]	@ 0x84
 8000914:	0c09      	lsrs	r1, r1, #16
 8000916:	9a18      	ldr	r2, [sp, #96]	@ 0x60
 8000918:	9b1b      	ldr	r3, [sp, #108]	@ 0x6c
 800091a:	2800      	cmp	r0, #0
 800091c:	f8dd 9078 	ldr.w	r9, [sp, #120]	@ 0x78
 8000920:	f89d b094 	ldrb.w	fp, [sp, #148]	@ 0x94
 8000924:	8629      	strh	r1, [r5, #48]	@ 0x30
 8000926:	f04f 0118 	mov.w	r1, #24
 800092a:	bf08      	it	eq
 800092c:	2114      	moveq	r1, #20
 800092e:	f1b9 0f00 	cmp.w	r9, #0
 8000932:	f36b 0100 	bfi	r1, fp, #0, #1
 8000936:	f36b 0141 	bfi	r1, fp, #1, #1
 800093a:	eb01 014a 	add.w	r1, r1, sl, lsl #1
 800093e:	bf18      	it	ne
 8000940:	310a      	addne	r1, #10
 8000942:	e9cd 2409 	strd	r2, r4, [sp, #36]	@ 0x24
 8000946:	4422      	add	r2, r4
 8000948:	9308      	str	r3, [sp, #32]
 800094a:	441a      	add	r2, r3
 800094c:	2400      	movs	r4, #0
 800094e:	eb01 03c2 	add.w	r3, r1, r2, lsl #3
 8000952:	ebb4 0fc2 	cmp.w	r4, r2, lsl #3
 8000956:	bf18      	it	ne
 8000958:	1c99      	addne	r1, r3, #2
 800095a:	220c      	movs	r2, #12
 800095c:	eb02 0181 	add.w	r1, r2, r1, lsl #2
 8000960:	f001 02f0 	and.w	r2, r1, #240	@ 0xf0
 8000964:	a913      	add	r1, sp, #76	@ 0x4c
 8000966:	f101 0408 	add.w	r4, r1, #8
 800096a:	f89d 109d 	ldrb.w	r1, [sp, #157]	@ 0x9d
 800096e:	e8df f001 	tbb	[pc, r1]
 8000972:	038d      	.short	0x038d
 8000974:	00858b88 	.word	0x00858b88
 8000978:	f502 6200 	add.w	r2, r2, #2048	@ 0x800
 800097c:	e086      	b.n	8000a8c <smoltcp::iface::interface::InterfaceInner::dispatch_ip+0x730>
 800097e:	f1b9 0f07 	cmp.w	r9, #7
 8000982:	f240 8312 	bls.w	8000faa <smoltcp::iface::interface::InterfaceInner::dispatch_ip+0xc4e>
 8000986:	2000      	movs	r0, #0
 8000988:	8528      	strh	r0, [r5, #40]	@ 0x28
 800098a:	e149      	b.n	8000c20 <smoltcp::iface::interface::InterfaceInner::dispatch_ip+0x8c4>
 800098c:	7959      	ldrb	r1, [r3, #5]
 800098e:	2003      	movs	r0, #3
 8000990:	f885 0022 	strb.w	r0, [r5, #34]	@ 0x22
 8000994:	e9d3 0602 	ldrd	r0, r6, [r3, #8]
 8000998:	2910      	cmp	r1, #16
 800099a:	799a      	ldrb	r2, [r3, #6]
 800099c:	9010      	str	r0, [sp, #64]	@ 0x40
 800099e:	bf38      	it	cc
 80009a0:	460a      	movcc	r2, r1
 80009a2:	f1b9 0f08 	cmp.w	r9, #8
 80009a6:	f885 2023 	strb.w	r2, [r5, #35]	@ 0x23
 80009aa:	f0c0 8310 	bcc.w	8000fce <smoltcp::iface::interface::InterfaceInner::dispatch_ip+0xc72>
 80009ae:	f103 0010 	add.w	r0, r3, #16
 80009b2:	f1a9 0408 	sub.w	r4, r9, #8
 80009b6:	9b0e      	ldr	r3, [sp, #56]	@ 0x38
 80009b8:	f105 012a 	add.w	r1, r5, #42	@ 0x2a
 80009bc:	4622      	mov	r2, r4
 80009be:	f007 f8dd 	bl	8007b7c <smoltcp::wire::ipv4::Repr::emit>
 80009c2:	2c14      	cmp	r4, #20
 80009c4:	f0c0 832f 	bcc.w	8001026 <smoltcp::iface::interface::InterfaceInner::dispatch_ip+0xcca>
 80009c8:	f1a9 021c 	sub.w	r2, r9, #28
 80009cc:	42b2      	cmp	r2, r6
 80009ce:	f040 833c 	bne.w	800104a <smoltcp::iface::interface::InterfaceInner::dispatch_ip+0xcee>
 80009d2:	f105 003e 	add.w	r0, r5, #62	@ 0x3e
 80009d6:	9910      	ldr	r1, [sp, #64]	@ 0x40
 80009d8:	e040      	b.n	8000a5c <smoltcp::iface::interface::InterfaceInner::dispatch_ip+0x700>
 80009da:	7959      	ldrb	r1, [r3, #5]
 80009dc:	200b      	movs	r0, #11
 80009de:	f885 0022 	strb.w	r0, [r5, #34]	@ 0x22
 80009e2:	e9d3 0402 	ldrd	r0, r4, [r3, #8]
 80009e6:	2902      	cmp	r1, #2
 80009e8:	799a      	ldrb	r2, [r3, #6]
 80009ea:	9010      	str	r0, [sp, #64]	@ 0x40
 80009ec:	bf38      	it	cc
 80009ee:	460a      	movcc	r2, r1
 80009f0:	f1b9 0f08 	cmp.w	r9, #8
 80009f4:	f885 2023 	strb.w	r2, [r5, #35]	@ 0x23
 80009f8:	f0c0 82e9 	bcc.w	8000fce <smoltcp::iface::interface::InterfaceInner::dispatch_ip+0xc72>
 80009fc:	f103 0010 	add.w	r0, r3, #16
 8000a00:	f1a9 0608 	sub.w	r6, r9, #8
 8000a04:	9b0e      	ldr	r3, [sp, #56]	@ 0x38
 8000a06:	f105 012a 	add.w	r1, r5, #42	@ 0x2a
 8000a0a:	4632      	mov	r2, r6
 8000a0c:	f007 f8b6 	bl	8007b7c <smoltcp::wire::ipv4::Repr::emit>
 8000a10:	2e14      	cmp	r6, #20
 8000a12:	f0c0 8311 	bcc.w	8001038 <smoltcp::iface::interface::InterfaceInner::dispatch_ip+0xcdc>
 8000a16:	f1a9 001c 	sub.w	r0, r9, #28
 8000a1a:	42a0      	cmp	r0, r4
 8000a1c:	f040 831e 	bne.w	800105c <smoltcp::iface::interface::InterfaceInner::dispatch_ip+0xd00>
 8000a20:	f105 003e 	add.w	r0, r5, #62	@ 0x3e
 8000a24:	9910      	ldr	r1, [sp, #64]	@ 0x40
 8000a26:	4622      	mov	r2, r4
 8000a28:	e018      	b.n	8000a5c <smoltcp::iface::interface::InterfaceInner::dispatch_ip+0x700>
 8000a2a:	e9d3 1003 	ldrd	r1, r0, [r3, #12]
 8000a2e:	2600      	movs	r6, #0
 8000a30:	891a      	ldrh	r2, [r3, #8]
 8000a32:	88db      	ldrh	r3, [r3, #6]
 8000a34:	f1b9 0f05 	cmp.w	r9, #5
 8000a38:	846e      	strh	r6, [r5, #34]	@ 0x22
 8000a3a:	f240 82d1 	bls.w	8000fe0 <smoltcp::iface::interface::InterfaceInner::dispatch_ip+0xc84>
 8000a3e:	ba5b      	rev16	r3, r3
 8000a40:	f1b9 0f07 	cmp.w	r9, #7
 8000a44:	84eb      	strh	r3, [r5, #38]	@ 0x26
 8000a46:	f240 82d4 	bls.w	8000ff2 <smoltcp::iface::interface::InterfaceInner::dispatch_ip+0xc96>
 8000a4a:	ba52      	rev16	r2, r2
 8000a4c:	852a      	strh	r2, [r5, #40]	@ 0x28
 8000a4e:	f1a9 0208 	sub.w	r2, r9, #8
 8000a52:	4290      	cmp	r0, r2
 8000a54:	bf38      	it	cc
 8000a56:	4602      	movcc	r2, r0
 8000a58:	f105 002a 	add.w	r0, r5, #42	@ 0x2a
 8000a5c:	f008 fc49 	bl	80092f2 <__aeabi_memcpy>
 8000a60:	2000      	movs	r0, #0
 8000a62:	f018 0ffd 	tst.w	r8, #253	@ 0xfd
 8000a66:	d107      	bne.n	8000a78 <smoltcp::iface::interface::InterfaceInner::dispatch_ip+0x71c>
 8000a68:	84a8      	strh	r0, [r5, #36]	@ 0x24
 8000a6a:	4650      	mov	r0, sl
 8000a6c:	4649      	mov	r1, r9
 8000a6e:	f007 fae6 	bl	800803e <smoltcp::wire::ip::checksum::data>
 8000a72:	43c0      	mvns	r0, r0
 8000a74:	ba00      	rev	r0, r0
 8000a76:	0c00      	lsrs	r0, r0, #16
 8000a78:	84a8      	strh	r0, [r5, #36]	@ 0x24
 8000a7a:	e0d1      	b.n	8000c20 <smoltcp::iface::interface::InterfaceInner::dispatch_ip+0x8c4>
 8000a7c:	f502 6280 	add.w	r2, r2, #1024	@ 0x400
 8000a80:	e004      	b.n	8000a8c <smoltcp::iface::interface::InterfaceInner::dispatch_ip+0x730>
 8000a82:	f502 7200 	add.w	r2, r2, #512	@ 0x200
 8000a86:	e001      	b.n	8000a8c <smoltcp::iface::interface::InterfaceInner::dispatch_ip+0x730>
 8000a88:	f502 7280 	add.w	r2, r2, #256	@ 0x100
 8000a8c:	4611      	mov	r1, r2
 8000a8e:	2e00      	cmp	r6, #0
 8000a90:	bf18      	it	ne
 8000a92:	f501 5180 	addne.w	r1, r1, #4096	@ 0x1000
 8000a96:	85e9      	strh	r1, [r5, #46]	@ 0x2e
 8000a98:	213c      	movs	r1, #60	@ 0x3c
 8000a9a:	ea01 0192 	and.w	r1, r1, r2, lsr #2
 8000a9e:	b2d2      	uxtb	r2, r2
 8000aa0:	2a50      	cmp	r2, #80	@ 0x50
 8000aa2:	bf24      	itt	cs
 8000aa4:	9a11      	ldrcs	r2, [sp, #68]	@ 0x44
 8000aa6:	428a      	cmpcs	r2, r1
 8000aa8:	d207      	bcs.n	8000aba <smoltcp::iface::interface::InterfaceInner::dispatch_ip+0x75e>
 8000aaa:	9a11      	ldr	r2, [sp, #68]	@ 0x44
 8000aac:	f64a 13d8 	movw	r3, #43480	@ 0xa9d8
 8000ab0:	f6c0 0300 	movt	r3, #2048	@ 0x800
 8000ab4:	2014      	movs	r0, #20
 8000ab6:	f002 fe14 	bl	80036e2 <core::slice::index::slice_index_fail>
 8000aba:	f105 0336 	add.w	r3, r5, #54	@ 0x36
 8000abe:	f1a1 0214 	sub.w	r2, r1, #20
 8000ac2:	f8cd c038 	str.w	ip, [sp, #56]	@ 0x38
 8000ac6:	b1d0      	cbz	r0, 8000afe <smoltcp::iface::interface::InterfaceInner::dispatch_ip+0x7a2>
 8000ac8:	f8bd 0086 	ldrh.w	r0, [sp, #134]	@ 0x86
 8000acc:	2104      	movs	r1, #4
 8000ace:	f8ad 00a4 	strh.w	r0, [sp, #164]	@ 0xa4
 8000ad2:	a828      	add	r0, sp, #160	@ 0xa0
 8000ad4:	9128      	str	r1, [sp, #160]	@ 0xa0
 8000ad6:	4619      	mov	r1, r3
 8000ad8:	f005 fb66 	bl	80061a8 <smoltcp::wire::tcp::TcpOption::emit>
 8000adc:	4603      	mov	r3, r0
 8000ade:	460a      	mov	r2, r1
 8000ae0:	f1bb 0f00 	cmp.w	fp, #0
 8000ae4:	d10e      	bne.n	8000b04 <smoltcp::iface::interface::InterfaceInner::dispatch_ip+0x7a8>
 8000ae6:	f8dd b040 	ldr.w	fp, [sp, #64]	@ 0x40
 8000aea:	f1ba 0f00 	cmp.w	sl, #0
 8000aee:	d01a      	beq.n	8000b26 <smoltcp::iface::interface::InterfaceInner::dispatch_ip+0x7ca>
 8000af0:	f64a 2468 	movw	r4, #43624	@ 0xaa68
 8000af4:	f8dd a030 	ldr.w	sl, [sp, #48]	@ 0x30
 8000af8:	f6c0 0400 	movt	r4, #2048	@ 0x800
 8000afc:	e01d      	b.n	8000b3a <smoltcp::iface::interface::InterfaceInner::dispatch_ip+0x7de>
 8000afe:	f1bb 0f00 	cmp.w	fp, #0
 8000b02:	d0f0      	beq.n	8000ae6 <smoltcp::iface::interface::InterfaceInner::dispatch_ip+0x78a>
 8000b04:	f89d 0095 	ldrb.w	r0, [sp, #149]	@ 0x95
 8000b08:	2105      	movs	r1, #5
 8000b0a:	f88d 00a4 	strb.w	r0, [sp, #164]	@ 0xa4
 8000b0e:	a828      	add	r0, sp, #160	@ 0xa0
 8000b10:	9128      	str	r1, [sp, #160]	@ 0xa0
 8000b12:	4619      	mov	r1, r3
 8000b14:	f005 fb48 	bl	80061a8 <smoltcp::wire::tcp::TcpOption::emit>
 8000b18:	4603      	mov	r3, r0
 8000b1a:	460a      	mov	r2, r1
 8000b1c:	f8dd b040 	ldr.w	fp, [sp, #64]	@ 0x40
 8000b20:	f1ba 0f00 	cmp.w	sl, #0
 8000b24:	d1e4      	bne.n	8000af0 <smoltcp::iface::interface::InterfaceInner::dispatch_ip+0x794>
 8000b26:	f8dd a030 	ldr.w	sl, [sp, #48]	@ 0x30
 8000b2a:	b166      	cbz	r6, 8000b46 <smoltcp::iface::interface::InterfaceInner::dispatch_ip+0x7ea>
 8000b2c:	980a      	ldr	r0, [sp, #40]	@ 0x28
 8000b2e:	2800      	cmp	r0, #0
 8000b30:	bf04      	itt	eq
 8000b32:	9809      	ldreq	r0, [sp, #36]	@ 0x24
 8000b34:	2800      	cmpeq	r0, #0
 8000b36:	f000 8185 	beq.w	8000e44 <smoltcp::iface::interface::InterfaceInner::dispatch_ip+0xae8>
 8000b3a:	4620      	mov	r0, r4
 8000b3c:	4619      	mov	r1, r3
 8000b3e:	f005 fb33 	bl	80061a8 <smoltcp::wire::tcp::TcpOption::emit>
 8000b42:	4603      	mov	r3, r0
 8000b44:	460a      	mov	r2, r1
 8000b46:	f1b9 0f00 	cmp.w	r9, #0
 8000b4a:	d00b      	beq.n	8000b64 <smoltcp::iface::interface::InterfaceInner::dispatch_ip+0x808>
 8000b4c:	e9dd 011f 	ldrd	r0, r1, [sp, #124]	@ 0x7c
 8000b50:	e9cd 0129 	strd	r0, r1, [sp, #164]	@ 0xa4
 8000b54:	2008      	movs	r0, #8
 8000b56:	9028      	str	r0, [sp, #160]	@ 0xa0
 8000b58:	a828      	add	r0, sp, #160	@ 0xa0
 8000b5a:	4619      	mov	r1, r3
 8000b5c:	f005 fb24 	bl	80061a8 <smoltcp::wire::tcp::TcpOption::emit>
 8000b60:	4603      	mov	r3, r0
 8000b62:	460a      	mov	r2, r1
 8000b64:	9c11      	ldr	r4, [sp, #68]	@ 0x44
 8000b66:	b132      	cbz	r2, 8000b76 <smoltcp::iface::interface::InterfaceInner::dispatch_ip+0x81a>
 8000b68:	f64a 208c 	movw	r0, #43660	@ 0xaa8c
 8000b6c:	4619      	mov	r1, r3
 8000b6e:	f6c0 0000 	movt	r0, #2048	@ 0x800
 8000b72:	f005 fb19 	bl	80061a8 <smoltcp::wire::tcp::TcpOption::emit>
 8000b76:	2c13      	cmp	r4, #19
 8000b78:	f240 8244 	bls.w	8001004 <smoltcp::iface::interface::InterfaceInner::dispatch_ip+0xca8>
 8000b7c:	8de8      	ldrh	r0, [r5, #46]	@ 0x2e
 8000b7e:	2100      	movs	r1, #0
 8000b80:	86a9      	strh	r1, [r5, #52]	@ 0x34
 8000b82:	213c      	movs	r1, #60	@ 0x3c
 8000b84:	ea01 0090 	and.w	r0, r1, r0, lsr #2
 8000b88:	4284      	cmp	r4, r0
 8000b8a:	f0c0 8244 	bcc.w	8001016 <smoltcp::iface::interface::InterfaceInner::dispatch_ip+0xcba>
 8000b8e:	9a23      	ldr	r2, [sp, #140]	@ 0x8c
 8000b90:	1a26      	subs	r6, r4, r0
 8000b92:	42b2      	cmp	r2, r6
 8000b94:	f200 8212 	bhi.w	8000fbc <smoltcp::iface::interface::InterfaceInner::dispatch_ip+0xc60>
 8000b98:	9922      	ldr	r1, [sp, #136]	@ 0x88
 8000b9a:	4450      	add	r0, sl
 8000b9c:	f008 fba9 	bl	80092f2 <__aeabi_memcpy>
 8000ba0:	980e      	ldr	r0, [sp, #56]	@ 0x38
 8000ba2:	f010 0ffd 	tst.w	r0, #253	@ 0xfd
 8000ba6:	d139      	bne.n	8000c1c <smoltcp::iface::interface::InterfaceInner::dispatch_ip+0x8c0>
 8000ba8:	2000      	movs	r0, #0
 8000baa:	8668      	strh	r0, [r5, #50]	@ 0x32
 8000bac:	fa98 f088 	rev.w	r0, r8
 8000bb0:	0c01      	lsrs	r1, r0, #16
 8000bb2:	fa11 f080 	uxtah	r0, r1, r0
 8000bb6:	0c01      	lsrs	r1, r0, #16
 8000bb8:	fa11 f080 	uxtah	r0, r1, r0
 8000bbc:	990f      	ldr	r1, [sp, #60]	@ 0x3c
 8000bbe:	eb00 4010 	add.w	r0, r0, r0, lsr #16
 8000bc2:	ba09      	rev	r1, r1
 8000bc4:	b280      	uxth	r0, r0
 8000bc6:	0c0a      	lsrs	r2, r1, #16
 8000bc8:	fa12 f181 	uxtah	r1, r2, r1
 8000bcc:	0c0a      	lsrs	r2, r1, #16
 8000bce:	fa12 f181 	uxtah	r1, r2, r1
 8000bd2:	eb01 4111 	add.w	r1, r1, r1, lsr #16
 8000bd6:	fa10 f081 	uxtah	r0, r0, r1
 8000bda:	1da1      	adds	r1, r4, #6
 8000bdc:	0c0a      	lsrs	r2, r1, #16
 8000bde:	fa12 f181 	uxtah	r1, r2, r1
 8000be2:	eb01 4111 	add.w	r1, r1, r1, lsr #16
 8000be6:	fa10 f081 	uxtah	r0, r0, r1
 8000bea:	0c01      	lsrs	r1, r0, #16
 8000bec:	fa11 f080 	uxtah	r0, r1, r0
 8000bf0:	4621      	mov	r1, r4
 8000bf2:	eb00 4010 	add.w	r0, r0, r0, lsr #16
 8000bf6:	b286      	uxth	r6, r0
 8000bf8:	4650      	mov	r0, sl
 8000bfa:	f007 fa20 	bl	800803e <smoltcp::wire::ip::checksum::data>
 8000bfe:	fa16 f080 	uxtah	r0, r6, r0
 8000c02:	0c01      	lsrs	r1, r0, #16
 8000c04:	fa11 f080 	uxtah	r0, r1, r0
 8000c08:	eb00 4010 	add.w	r0, r0, r0, lsr #16
 8000c0c:	43c0      	mvns	r0, r0
 8000c0e:	ba00      	rev	r0, r0
 8000c10:	0c00      	lsrs	r0, r0, #16
 8000c12:	e004      	b.n	8000c1e <smoltcp::iface::interface::InterfaceInner::dispatch_ip+0x8c2>
 8000c14:	3520      	adds	r5, #32
 8000c16:	e03b      	b.n	8000c90 <smoltcp::iface::interface::InterfaceInner::dispatch_ip+0x934>
 8000c18:	3538      	adds	r5, #56	@ 0x38
 8000c1a:	e039      	b.n	8000c90 <smoltcp::iface::interface::InterfaceInner::dispatch_ip+0x934>
 8000c1c:	2000      	movs	r0, #0
 8000c1e:	8668      	strh	r0, [r5, #50]	@ 0x32
 8000c20:	f8dd c02c 	ldr.w	ip, [sp, #44]	@ 0x2c
 8000c24:	f8db 1004 	ldr.w	r1, [fp, #4]
 8000c28:	9806      	ldr	r0, [sp, #24]
 8000c2a:	4288      	cmp	r0, r1
 8000c2c:	f080 824f 	bcs.w	80010ce <smoltcp::iface::interface::InterfaceInner::dispatch_ip+0xd72>
 8000c30:	f44f 61c6 	mov.w	r1, #1584	@ 0x630
 8000c34:	f8db 2000 	ldr.w	r2, [fp]
 8000c38:	fb00 2301 	mla	r3, r0, r1, r2
 8000c3c:	e9d3 650a 	ldrd	r6, r5, [r3, #40]	@ 0x28
 8000c40:	4341      	muls	r1, r0
 8000c42:	f640 70ff 	movw	r0, #4095	@ 0xfff
 8000c46:	685c      	ldr	r4, [r3, #4]
 8000c48:	ea24 0000 	bic.w	r0, r4, r0
 8000c4c:	9c0d      	ldr	r4, [sp, #52]	@ 0x34
 8000c4e:	4320      	orrs	r0, r4
 8000c50:	6058      	str	r0, [r3, #4]
 8000c52:	2001      	movs	r0, #1
 8000c54:	609e      	str	r6, [r3, #8]
 8000c56:	e9c3 0c08 	strd	r0, ip, [r3, #32]
 8000c5a:	60dd      	str	r5, [r3, #12]
 8000c5c:	f3bf 8f5f 	dmb	sy
 8000c60:	f893 0030 	ldrb.w	r0, [r3, #48]	@ 0x30
 8000c64:	2300      	movs	r3, #0
 8000c66:	f2cf 23d0 	movt	r3, #62160	@ 0xf2d0
 8000c6a:	ea43 5040 	orr.w	r0, r3, r0, lsl #21
 8000c6e:	5050      	str	r0, [r2, r1]
 8000c70:	f249 0004 	movw	r0, #36868	@ 0x9004
 8000c74:	f3bf 8f5f 	dmb	sy
 8000c78:	f2c4 0002 	movt	r0, #16386	@ 0x4002
 8000c7c:	2100      	movs	r1, #0
 8000c7e:	6001      	str	r1, [r0, #0]
 8000c80:	f04f 0902 	mov.w	r9, #2
 8000c84:	4648      	mov	r0, r9
 8000c86:	b031      	add	sp, #196	@ 0xc4
 8000c88:	e8bd 0f00 	ldmia.w	sp!, {r8, r9, sl, fp}
 8000c8c:	bdf0      	pop	{r4, r5, r6, r7, pc}
 8000c8e:	3550      	adds	r5, #80	@ 0x50
 8000c90:	e9d5 2602 	ldrd	r2, r6, [r5, #8]
 8000c94:	9c07      	ldr	r4, [sp, #28]
 8000c96:	1aa2      	subs	r2, r4, r2
 8000c98:	9a06      	ldr	r2, [sp, #24]
 8000c9a:	41b2      	sbcs	r2, r6
 8000c9c:	da11      	bge.n	8000cc2 <smoltcp::iface::interface::InterfaceInner::dispatch_ip+0x966>
 8000c9e:	7c6a      	ldrb	r2, [r5, #17]
 8000ca0:	f895 9010 	ldrb.w	r9, [r5, #16]
 8000ca4:	7cae      	ldrb	r6, [r5, #18]
 8000ca6:	f895 a013 	ldrb.w	sl, [r5, #19]
 8000caa:	f895 c015 	ldrb.w	ip, [r5, #21]
 8000cae:	f895 b014 	ldrb.w	fp, [r5, #20]
 8000cb2:	4615      	mov	r5, r2
 8000cb4:	9c10      	ldr	r4, [sp, #64]	@ 0x40
 8000cb6:	680a      	ldr	r2, [r1, #0]
 8000cb8:	2a02      	cmp	r2, #2
 8000cba:	f43f ac87 	beq.w	80005cc <smoltcp::iface::interface::InterfaceInner::dispatch_ip+0x270>
 8000cbe:	f7ff bbc3 	b.w	8000448 <smoltcp::iface::interface::InterfaceInner::dispatch_ip+0xec>
 8000cc2:	e9d0 233a 	ldrd	r2, r3, [r0, #232]	@ 0xe8
 8000cc6:	9e07      	ldr	r6, [sp, #28]
 8000cc8:	1ab2      	subs	r2, r6, r2
 8000cca:	9a06      	ldr	r2, [sp, #24]
 8000ccc:	419a      	sbcs	r2, r3
 8000cce:	f2c0 80b2 	blt.w	8000e36 <smoltcp::iface::interface::InterfaceInner::dispatch_ip+0xada>
 8000cd2:	4682      	mov	sl, r0
 8000cd4:	9805      	ldr	r0, [sp, #20]
 8000cd6:	f8ad 0049 	strh.w	r0, [sp, #73]	@ 0x49
 8000cda:	460c      	mov	r4, r1
 8000cdc:	f88d e048 	strb.w	lr, [sp, #72]	@ 0x48
 8000ce0:	0c00      	lsrs	r0, r0, #16
 8000ce2:	f88d 004b 	strb.w	r0, [sp, #75]	@ 0x4b
 8000ce6:	f240 0024 	movw	r0, #36	@ 0x24
 8000cea:	f2c0 0000 	movt	r0, #0
 8000cee:	f003 fb23 	bl	8004338 <defmt::export::acquire_and_header>
 8000cf2:	f240 0007 	movw	r0, #7
 8000cf6:	2102      	movs	r1, #2
 8000cf8:	f2c0 0000 	movt	r0, #0
 8000cfc:	f8ad 004c 	strh.w	r0, [sp, #76]	@ 0x4c
 8000d00:	a813      	add	r0, sp, #76	@ 0x4c
 8000d02:	f003 fccb 	bl	800469c <_defmt_write>
 8000d06:	a812      	add	r0, sp, #72	@ 0x48
 8000d08:	f003 fac4 	bl	8004294 <defmt::impls::core_::net::<impl defmt::traits::Format for core::net::ip_addr::Ipv4Addr>::format>
 8000d0c:	a813      	add	r0, sp, #76	@ 0x4c
 8000d0e:	2600      	movs	r6, #0
 8000d10:	2102      	movs	r1, #2
 8000d12:	f8ad 604c 	strh.w	r6, [sp, #76]	@ 0x4c
 8000d16:	f003 fcc1 	bl	800469c <_defmt_write>
 8000d1a:	f003 fc47 	bl	80045ac <_defmt_release>
 8000d1e:	f1b9 0f00 	cmp.w	r9, #0
 8000d22:	f43f ac69 	beq.w	80005f8 <smoltcp::iface::interface::InterfaceInner::dispatch_ip+0x29c>
 8000d26:	f8da 20f4 	ldr.w	r2, [sl, #244]	@ 0xf4
 8000d2a:	f04f 35ff 	mov.w	r5, #4294967295	@ 0xffffffff
 8000d2e:	9912      	ldr	r1, [sp, #72]	@ 0x48
 8000d30:	f8ad 604c 	strh.w	r6, [sp, #76]	@ 0x4c
 8000d34:	f8ba 616c 	ldrh.w	r6, [sl, #364]	@ 0x16c
 8000d38:	9118      	str	r1, [sp, #96]	@ 0x60
 8000d3a:	0e11      	lsrs	r1, r2, #24
 8000d3c:	f8da 3168 	ldr.w	r3, [sl, #360]	@ 0x168
 8000d40:	f8ad 6054 	strh.w	r6, [sp, #84]	@ 0x54
 8000d44:	f88d 1059 	strb.w	r1, [sp, #89]	@ 0x59
 8000d48:	0a11      	lsrs	r1, r2, #8
 8000d4a:	68a6      	ldr	r6, [r4, #8]
 8000d4c:	f8cd 505a 	str.w	r5, [sp, #90]	@ 0x5a
 8000d50:	f8ad 505e 	strh.w	r5, [sp, #94]	@ 0x5e
 8000d54:	9314      	str	r3, [sp, #80]	@ 0x50
 8000d56:	f88d 2056 	strb.w	r2, [sp, #86]	@ 0x56
 8000d5a:	f8ad 1057 	strh.w	r1, [sp, #87]	@ 0x57
 8000d5e:	e9d4 9800 	ldrd	r9, r8, [r4]
 8000d62:	e9d6 1401 	ldrd	r1, r4, [r6, #4]
 8000d66:	428c      	cmp	r4, r1
 8000d68:	f080 81bf 	bcs.w	80010ea <smoltcp::iface::interface::InterfaceInner::dispatch_ip+0xd8e>
 8000d6c:	f44f 6cc6 	mov.w	ip, #1584	@ 0x630
 8000d70:	6833      	ldr	r3, [r6, #0]
 8000d72:	fb04 f50c 	mul.w	r5, r4, ip
 8000d76:	595d      	ldr	r5, [r3, r5]
 8000d78:	2d00      	cmp	r5, #0
 8000d7a:	f100 81bd 	bmi.w	80010f8 <smoltcp::iface::interface::InterfaceInner::dispatch_ip+0xd9c>
 8000d7e:	1c65      	adds	r5, r4, #1
 8000d80:	f50a 70b4 	add.w	r0, sl, #360	@ 0x168
 8000d84:	fbb5 f2f1 	udiv	r2, r5, r1
 8000d88:	fb02 5111 	mls	r1, r2, r1, r5
 8000d8c:	fb04 320c 	mla	r2, r4, ip, r3
 8000d90:	60b1      	str	r1, [r6, #8]
 8000d92:	6801      	ldr	r1, [r0, #0]
 8000d94:	8880      	ldrh	r0, [r0, #4]
 8000d96:	f8a2 0042 	strh.w	r0, [r2, #66]	@ 0x42
 8000d9a:	f04f 30ff 	mov.w	r0, #4294967295	@ 0xffffffff
 8000d9e:	6390      	str	r0, [r2, #56]	@ 0x38
 8000da0:	8790      	strh	r0, [r2, #60]	@ 0x3c
 8000da2:	f44f 60c1 	mov.w	r0, #1544	@ 0x608
 8000da6:	f8c2 103e 	str.w	r1, [r2, #62]	@ 0x3e
 8000daa:	f102 0146 	add.w	r1, r2, #70	@ 0x46
 8000dae:	f8a2 0044 	strh.w	r0, [r2, #68]	@ 0x44
 8000db2:	a813      	add	r0, sp, #76	@ 0x4c
 8000db4:	221c      	movs	r2, #28
 8000db6:	f7ff fa4b 	bl	8000250 <smoltcp::wire::arp::Repr::emit>
 8000dba:	6871      	ldr	r1, [r6, #4]
 8000dbc:	428c      	cmp	r4, r1
 8000dbe:	f080 81a6 	bcs.w	800110e <smoltcp::iface::interface::InterfaceInner::dispatch_ip+0xdb2>
 8000dc2:	f44f 60c6 	mov.w	r0, #1584	@ 0x630
 8000dc6:	6831      	ldr	r1, [r6, #0]
 8000dc8:	fb04 1000 	mla	r0, r4, r0, r1
 8000dcc:	f1b9 0f00 	cmp.w	r9, #0
 8000dd0:	d006      	beq.n	8000de0 <smoltcp::iface::interface::InterfaceInner::dispatch_ip+0xa84>
 8000dd2:	2101      	movs	r1, #1
 8000dd4:	e9c0 1808 	strd	r1, r8, [r0, #32]
 8000dd8:	2100      	movs	r1, #0
 8000dda:	f2cf 21d0 	movt	r1, #62160	@ 0xf2d0
 8000dde:	e006      	b.n	8000dee <smoltcp::iface::interface::InterfaceInner::dispatch_ip+0xa92>
 8000de0:	2100      	movs	r1, #0
 8000de2:	6201      	str	r1, [r0, #32]
 8000de4:	2100      	movs	r1, #0
 8000de6:	f2cf 21d0 	movt	r1, #62160	@ 0xf2d0
 8000dea:	f101 417e 	add.w	r1, r1, #4261412864	@ 0xfe000000
 8000dee:	6842      	ldr	r2, [r0, #4]
 8000df0:	242a      	movs	r4, #42	@ 0x2a
 8000df2:	e9d0 360a 	ldrd	r3, r6, [r0, #40]	@ 0x28
 8000df6:	4655      	mov	r5, sl
 8000df8:	f364 020b 	bfi	r2, r4, #0, #12
 8000dfc:	6042      	str	r2, [r0, #4]
 8000dfe:	6083      	str	r3, [r0, #8]
 8000e00:	60c6      	str	r6, [r0, #12]
 8000e02:	f3bf 8f5f 	dmb	sy
 8000e06:	f890 2030 	ldrb.w	r2, [r0, #48]	@ 0x30
 8000e0a:	ea41 5142 	orr.w	r1, r1, r2, lsl #21
 8000e0e:	6001      	str	r1, [r0, #0]
 8000e10:	f249 0004 	movw	r0, #36868	@ 0x9004
 8000e14:	2100      	movs	r1, #0
 8000e16:	f2c4 0002 	movt	r0, #16386	@ 0x4002
 8000e1a:	f3bf 8f5f 	dmb	sy
 8000e1e:	6001      	str	r1, [r0, #0]
 8000e20:	f244 2240 	movw	r2, #16960	@ 0x4240
 8000e24:	e9da 0104 	ldrd	r0, r1, [sl, #16]
 8000e28:	f2c0 020f 	movt	r2, #15
 8000e2c:	1880      	adds	r0, r0, r2
 8000e2e:	f141 0100 	adc.w	r1, r1, #0
 8000e32:	e9c5 013a 	strd	r0, r1, [r5, #232]	@ 0xe8
 8000e36:	f04f 0901 	mov.w	r9, #1
 8000e3a:	4648      	mov	r0, r9
 8000e3c:	b031      	add	sp, #196	@ 0xc4
 8000e3e:	e8bd 0f00 	ldmia.w	sp!, {r8, r9, sl, fp}
 8000e42:	bdf0      	pop	{r4, r5, r6, r7, pc}
 8000e44:	9808      	ldr	r0, [sp, #32]
 8000e46:	2800      	cmp	r0, #0
 8000e48:	f43f ae7d 	beq.w	8000b46 <smoltcp::iface::interface::InterfaceInner::dispatch_ip+0x7ea>
 8000e4c:	e675      	b.n	8000b3a <smoltcp::iface::interface::InterfaceInner::dispatch_ip+0x7de>
 8000e4e:	f24a 4010 	movw	r0, #42000	@ 0xa410
 8000e52:	f24a 4248 	movw	r2, #42056	@ 0xa448
 8000e56:	f6c0 0000 	movt	r0, #2048	@ 0x800
 8000e5a:	f6c0 0200 	movt	r2, #2048	@ 0x800
 8000e5e:	2136      	movs	r1, #54	@ 0x36
 8000e60:	f002 fcd2 	bl	8003808 <core::panicking::panic>
 8000e64:	f64a 70b0 	movw	r0, #44976	@ 0xafb0
 8000e68:	f64a 72d0 	movw	r2, #45008	@ 0xafd0
 8000e6c:	f6c0 0000 	movt	r0, #2048	@ 0x800
 8000e70:	f6c0 0200 	movt	r2, #2048	@ 0x800
 8000e74:	211d      	movs	r1, #29
 8000e76:	f002 fcc7 	bl	8003808 <core::panicking::panic>
 8000e7a:	f64a 03e4 	movw	r3, #43236	@ 0xa8e4
 8000e7e:	2006      	movs	r0, #6
 8000e80:	f6c0 0300 	movt	r3, #2048	@ 0x800
 8000e84:	210c      	movs	r1, #12
 8000e86:	4662      	mov	r2, ip
 8000e88:	f002 fc2b 	bl	80036e2 <core::slice::index::slice_index_fail>
 8000e8c:	f64a 03f4 	movw	r3, #43252	@ 0xa8f4
 8000e90:	200c      	movs	r0, #12
 8000e92:	f6c0 0300 	movt	r3, #2048	@ 0x800
 8000e96:	210e      	movs	r1, #14
 8000e98:	4662      	mov	r2, ip
 8000e9a:	f002 fc22 	bl	80036e2 <core::slice::index::slice_index_fail>
 8000e9e:	f64a 5304 	movw	r3, #44292	@ 0xad04
 8000ea2:	2002      	movs	r0, #2
 8000ea4:	f6c0 0300 	movt	r3, #2048	@ 0x800
 8000ea8:	2104      	movs	r1, #4
 8000eaa:	4672      	mov	r2, lr
 8000eac:	f002 fc19 	bl	80036e2 <core::slice::index::slice_index_fail>
 8000eb0:	f64a 5344 	movw	r3, #44356	@ 0xad44
 8000eb4:	2004      	movs	r0, #4
 8000eb6:	f6c0 0300 	movt	r3, #2048	@ 0x800
 8000eba:	2106      	movs	r1, #6
 8000ebc:	4672      	mov	r2, lr
 8000ebe:	f002 fc10 	bl	80036e2 <core::slice::index::slice_index_fail>
 8000ec2:	f64a 43c4 	movw	r3, #44228	@ 0xacc4
 8000ec6:	2006      	movs	r0, #6
 8000ec8:	f6c0 0300 	movt	r3, #2048	@ 0x800
 8000ecc:	2108      	movs	r1, #8
 8000ece:	4672      	mov	r2, lr
 8000ed0:	f002 fc07 	bl	80036e2 <core::slice::index::slice_index_fail>
 8000ed4:	f64a 43f4 	movw	r3, #44276	@ 0xacf4
 8000ed8:	200c      	movs	r0, #12
 8000eda:	f6c0 0300 	movt	r3, #2048	@ 0x800
 8000ede:	2110      	movs	r1, #16
 8000ee0:	4672      	mov	r2, lr
 8000ee2:	f002 fbfe 	bl	80036e2 <core::slice::index::slice_index_fail>
 8000ee6:	f64a 43e4 	movw	r3, #44260	@ 0xace4
 8000eea:	2010      	movs	r0, #16
 8000eec:	f6c0 0300 	movt	r3, #2048	@ 0x800
 8000ef0:	2114      	movs	r1, #20
 8000ef2:	4672      	mov	r2, lr
 8000ef4:	f002 fbf5 	bl	80036e2 <core::slice::index::slice_index_fail>
 8000ef8:	f64a 6350 	movw	r3, #44624	@ 0xae50
 8000efc:	2008      	movs	r0, #8
 8000efe:	f6c0 0300 	movt	r3, #2048	@ 0x800
 8000f02:	4631      	mov	r1, r6
 8000f04:	464a      	mov	r2, r9
 8000f06:	f002 fbec 	bl	80036e2 <core::slice::index::slice_index_fail>
 8000f0a:	f64a 6380 	movw	r3, #44672	@ 0xae80
 8000f0e:	f6c0 0300 	movt	r3, #2048	@ 0x800
 8000f12:	2000      	movs	r0, #0
 8000f14:	2102      	movs	r1, #2
 8000f16:	464a      	mov	r2, r9
 8000f18:	f002 fbe3 	bl	80036e2 <core::slice::index::slice_index_fail>
 8000f1c:	f64a 2308 	movw	r3, #43528	@ 0xaa08
 8000f20:	f6c0 0300 	movt	r3, #2048	@ 0x800
 8000f24:	2000      	movs	r0, #0
 8000f26:	2102      	movs	r1, #2
 8000f28:	464a      	mov	r2, r9
 8000f2a:	f002 fbda 	bl	80036e2 <core::slice::index::slice_index_fail>
 8000f2e:	f64a 6370 	movw	r3, #44656	@ 0xae70
 8000f32:	f6c0 0300 	movt	r3, #2048	@ 0x800
 8000f36:	2002      	movs	r0, #2
 8000f38:	2104      	movs	r1, #4
 8000f3a:	464a      	mov	r2, r9
 8000f3c:	f002 fbd1 	bl	80036e2 <core::slice::index::slice_index_fail>
 8000f40:	f64a 13f8 	movw	r3, #43512	@ 0xa9f8
 8000f44:	f6c0 0300 	movt	r3, #2048	@ 0x800
 8000f48:	2002      	movs	r0, #2
 8000f4a:	2104      	movs	r1, #4
 8000f4c:	464a      	mov	r2, r9
 8000f4e:	f002 fbc8 	bl	80036e2 <core::slice::index::slice_index_fail>
 8000f52:	f64a 6390 	movw	r3, #44688	@ 0xae90
 8000f56:	f6c0 0300 	movt	r3, #2048	@ 0x800
 8000f5a:	2004      	movs	r0, #4
 8000f5c:	2106      	movs	r1, #6
 8000f5e:	464a      	mov	r2, r9
 8000f60:	f002 fbbf 	bl	80036e2 <core::slice::index::slice_index_fail>
 8000f64:	f64a 2338 	movw	r3, #43576	@ 0xaa38
 8000f68:	2004      	movs	r0, #4
 8000f6a:	f6c0 0300 	movt	r3, #2048	@ 0x800
 8000f6e:	2108      	movs	r1, #8
 8000f70:	464a      	mov	r2, r9
 8000f72:	f002 fbb6 	bl	80036e2 <core::slice::index::slice_index_fail>
 8000f76:	f64a 2328 	movw	r3, #43560	@ 0xaa28
 8000f7a:	2008      	movs	r0, #8
 8000f7c:	f6c0 0300 	movt	r3, #2048	@ 0x800
 8000f80:	210c      	movs	r1, #12
 8000f82:	464a      	mov	r2, r9
 8000f84:	f002 fbad 	bl	80036e2 <core::slice::index::slice_index_fail>
 8000f88:	9a11      	ldr	r2, [sp, #68]	@ 0x44
 8000f8a:	f64a 2348 	movw	r3, #43592	@ 0xaa48
 8000f8e:	f6c0 0300 	movt	r3, #2048	@ 0x800
 8000f92:	200e      	movs	r0, #14
 8000f94:	2110      	movs	r1, #16
 8000f96:	f002 fba4 	bl	80036e2 <core::slice::index::slice_index_fail>
 8000f9a:	f64a 63a0 	movw	r3, #44704	@ 0xaea0
 8000f9e:	4611      	mov	r1, r2
 8000fa0:	f6c0 0300 	movt	r3, #2048	@ 0x800
 8000fa4:	461a      	mov	r2, r3
 8000fa6:	f003 f829 	bl	8003ffc <core::slice::copy_from_slice_impl::len_mismatch_fail>
 8000faa:	f64a 6360 	movw	r3, #44640	@ 0xae60
 8000fae:	f6c0 0300 	movt	r3, #2048	@ 0x800
 8000fb2:	2006      	movs	r0, #6
 8000fb4:	2108      	movs	r1, #8
 8000fb6:	464a      	mov	r2, r9
 8000fb8:	f002 fb93 	bl	80036e2 <core::slice::index::slice_index_fail>
 8000fbc:	f64a 23b0 	movw	r3, #43696	@ 0xaab0
 8000fc0:	4611      	mov	r1, r2
 8000fc2:	f6c0 0300 	movt	r3, #2048	@ 0x800
 8000fc6:	2000      	movs	r0, #0
 8000fc8:	4632      	mov	r2, r6
 8000fca:	f002 fb8a 	bl	80036e2 <core::slice::index::slice_index_fail>
 8000fce:	f64a 33d8 	movw	r3, #43992	@ 0xabd8
 8000fd2:	2008      	movs	r0, #8
 8000fd4:	f6c0 0300 	movt	r3, #2048	@ 0x800
 8000fd8:	4649      	mov	r1, r9
 8000fda:	464a      	mov	r2, r9
 8000fdc:	f002 fb81 	bl	80036e2 <core::slice::index::slice_index_fail>
 8000fe0:	f64a 33b8 	movw	r3, #43960	@ 0xabb8
 8000fe4:	f6c0 0300 	movt	r3, #2048	@ 0x800
 8000fe8:	2004      	movs	r0, #4
 8000fea:	2106      	movs	r1, #6
 8000fec:	464a      	mov	r2, r9
 8000fee:	f002 fb78 	bl	80036e2 <core::slice::index::slice_index_fail>
 8000ff2:	f64a 33c8 	movw	r3, #43976	@ 0xabc8
 8000ff6:	f6c0 0300 	movt	r3, #2048	@ 0x800
 8000ffa:	2006      	movs	r0, #6
 8000ffc:	2108      	movs	r1, #8
 8000ffe:	464a      	mov	r2, r9
 8001000:	f002 fb6f 	bl	80036e2 <core::slice::index::slice_index_fail>
 8001004:	f64a 2318 	movw	r3, #43544	@ 0xaa18
 8001008:	2012      	movs	r0, #18
 800100a:	f6c0 0300 	movt	r3, #2048	@ 0x800
 800100e:	2114      	movs	r1, #20
 8001010:	4622      	mov	r2, r4
 8001012:	f002 fb66 	bl	80036e2 <core::slice::index::slice_index_fail>
 8001016:	f64a 13e8 	movw	r3, #43496	@ 0xa9e8
 800101a:	f6c0 0300 	movt	r3, #2048	@ 0x800
 800101e:	4621      	mov	r1, r4
 8001020:	4622      	mov	r2, r4
 8001022:	f002 fb5e 	bl	80036e2 <core::slice::index::slice_index_fail>
 8001026:	f64a 4308 	movw	r3, #44040	@ 0xac08
 800102a:	2014      	movs	r0, #20
 800102c:	f6c0 0300 	movt	r3, #2048	@ 0x800
 8001030:	4621      	mov	r1, r4
 8001032:	4622      	mov	r2, r4
 8001034:	f002 fb55 	bl	80036e2 <core::slice::index::slice_index_fail>
 8001038:	f64a 4328 	movw	r3, #44072	@ 0xac28
 800103c:	2014      	movs	r0, #20
 800103e:	f6c0 0300 	movt	r3, #2048	@ 0x800
 8001042:	4631      	mov	r1, r6
 8001044:	4632      	mov	r2, r6
 8001046:	f002 fb4c 	bl	80036e2 <core::slice::index::slice_index_fail>
 800104a:	f64a 33f8 	movw	r3, #44024	@ 0xabf8
 800104e:	4610      	mov	r0, r2
 8001050:	f6c0 0300 	movt	r3, #2048	@ 0x800
 8001054:	4631      	mov	r1, r6
 8001056:	461a      	mov	r2, r3
 8001058:	f002 ffd0 	bl	8003ffc <core::slice::copy_from_slice_impl::len_mismatch_fail>
 800105c:	f64a 4218 	movw	r2, #44056	@ 0xac18
 8001060:	4621      	mov	r1, r4
 8001062:	f6c0 0200 	movt	r2, #2048	@ 0x800
 8001066:	f002 ffc9 	bl	8003ffc <core::slice::copy_from_slice_impl::len_mismatch_fail>
 800106a:	f64a 7290 	movw	r2, #44944	@ 0xaf90
 800106e:	4630      	mov	r0, r6
 8001070:	f6c0 0200 	movt	r2, #2048	@ 0x800
 8001074:	f002 fbb4 	bl	80037e0 <core::panicking::panic_bounds_check>
 8001078:	2002      	movs	r0, #2
 800107a:	9013      	str	r0, [sp, #76]	@ 0x4c
 800107c:	a813      	add	r0, sp, #76	@ 0x4c
 800107e:	f004 ff68 	bl	8005f52 <core::ptr::drop_in_place<core::result::Result<stm32_eth::dma::tx::TxPacket,stm32_eth::dma::tx::TxError>>>
 8001082:	f64a 1004 	movw	r0, #43268	@ 0xa904
 8001086:	f6c0 0000 	movt	r0, #2048	@ 0x800
 800108a:	f002 fb20 	bl	80036ce <core::option::unwrap_failed>
 800108e:	f64a 42d4 	movw	r2, #44244	@ 0xacd4
 8001092:	2000      	movs	r0, #0
 8001094:	f6c0 0200 	movt	r2, #2048	@ 0x800
 8001098:	2100      	movs	r1, #0
 800109a:	f002 fba1 	bl	80037e0 <core::panicking::panic_bounds_check>
 800109e:	f64a 5234 	movw	r2, #44340	@ 0xad34
 80010a2:	2001      	movs	r0, #1
 80010a4:	f6c0 0200 	movt	r2, #2048	@ 0x800
 80010a8:	2101      	movs	r1, #1
 80010aa:	f002 fb99 	bl	80037e0 <core::panicking::panic_bounds_check>
 80010ae:	f64a 5254 	movw	r2, #44372	@ 0xad54
 80010b2:	2008      	movs	r0, #8
 80010b4:	f6c0 0200 	movt	r2, #2048	@ 0x800
 80010b8:	2108      	movs	r1, #8
 80010ba:	f002 fb91 	bl	80037e0 <core::panicking::panic_bounds_check>
 80010be:	f64a 5214 	movw	r2, #44308	@ 0xad14
 80010c2:	2009      	movs	r0, #9
 80010c4:	f6c0 0200 	movt	r2, #2048	@ 0x800
 80010c8:	2109      	movs	r1, #9
 80010ca:	f002 fb89 	bl	80037e0 <core::panicking::panic_bounds_check>
 80010ce:	f64a 7250 	movw	r2, #44880	@ 0xaf50
 80010d2:	f6c0 0200 	movt	r2, #2048	@ 0x800
 80010d6:	f002 fb83 	bl	80037e0 <core::panicking::panic_bounds_check>
 80010da:	f64a 32e8 	movw	r2, #44008	@ 0xabe8
 80010de:	2001      	movs	r0, #1
 80010e0:	f6c0 0200 	movt	r2, #2048	@ 0x800
 80010e4:	4649      	mov	r1, r9
 80010e6:	f002 fb7b 	bl	80037e0 <core::panicking::panic_bounds_check>
 80010ea:	f64a 7290 	movw	r2, #44944	@ 0xaf90
 80010ee:	4620      	mov	r0, r4
 80010f0:	f6c0 0200 	movt	r2, #2048	@ 0x800
 80010f4:	f002 fb74 	bl	80037e0 <core::panicking::panic_bounds_check>
 80010f8:	2002      	movs	r0, #2
 80010fa:	9028      	str	r0, [sp, #160]	@ 0xa0
 80010fc:	a828      	add	r0, sp, #160	@ 0xa0
 80010fe:	f004 ff28 	bl	8005f52 <core::ptr::drop_in_place<core::result::Result<stm32_eth::dma::tx::TxPacket,stm32_eth::dma::tx::TxError>>>
 8001102:	f64a 1004 	movw	r0, #43268	@ 0xa904
 8001106:	f6c0 0000 	movt	r0, #2048	@ 0x800
 800110a:	f002 fae0 	bl	80036ce <core::option::unwrap_failed>
 800110e:	f64a 7250 	movw	r2, #44880	@ 0xaf50
 8001112:	4620      	mov	r0, r4
 8001114:	f6c0 0200 	movt	r2, #2048	@ 0x800
 8001118:	f002 fb62 	bl	80037e0 <core::panicking::panic_bounds_check>

0800111c <smoltcp::iface::interface::Interface::poll>:
 800111c:	b5f0      	push	{r4, r5, r6, r7, lr}
 800111e:	af03      	add	r7, sp, #12
 8001120:	e92d 0f00 	stmdb	sp!, {r8, r9, sl, fp}
 8001124:	f5ad 7d5b 	sub.w	sp, sp, #876	@ 0x36c
 8001128:	aebc      	add	r6, sp, #752	@ 0x2f0
 800112a:	f500 78b8 	add.w	r8, r0, #368	@ 0x170
 800112e:	1c71      	adds	r1, r6, #1
 8001130:	913d      	str	r1, [sp, #244]	@ 0xf4
 8001132:	a98a      	add	r1, sp, #552	@ 0x228
 8001134:	e9c0 2304 	strd	r2, r3, [r0, #16]
 8001138:	f101 0510 	add.w	r5, r1, #16
 800113c:	9534      	str	r5, [sp, #208]	@ 0xd0
 800113e:	f106 0554 	add.w	r5, r6, #84	@ 0x54
 8001142:	9530      	str	r5, [sp, #192]	@ 0xc0
 8001144:	ada3      	add	r5, sp, #652	@ 0x28c
 8001146:	9048      	str	r0, [sp, #288]	@ 0x120
 8001148:	f105 0454 	add.w	r4, r5, #84	@ 0x54
 800114c:	942f      	str	r4, [sp, #188]	@ 0xbc
 800114e:	f101 040d 	add.w	r4, r1, #13
 8001152:	3124      	adds	r1, #36	@ 0x24
 8001154:	9131      	str	r1, [sp, #196]	@ 0xc4
 8001156:	a952      	add	r1, sp, #328	@ 0x148
 8001158:	3102      	adds	r1, #2
 800115a:	9138      	str	r1, [sp, #224]	@ 0xe0
 800115c:	f500 7180 	add.w	r1, r0, #256	@ 0x100
 8001160:	9133      	str	r1, [sp, #204]	@ 0xcc
 8001162:	f100 0120 	add.w	r1, r0, #32
 8001166:	913c      	str	r1, [sp, #240]	@ 0xf0
 8001168:	f100 01f4 	add.w	r1, r0, #244	@ 0xf4
 800116c:	9142      	str	r1, [sp, #264]	@ 0x108
 800116e:	f500 71b4 	add.w	r1, r0, #360	@ 0x168
 8001172:	a855      	add	r0, sp, #340	@ 0x154
 8001174:	9144      	str	r1, [sp, #272]	@ 0x110
 8001176:	f100 011c 	add.w	r1, r0, #28
 800117a:	9140      	str	r1, [sp, #256]	@ 0x100
 800117c:	f100 0113 	add.w	r1, r0, #19
 8001180:	3006      	adds	r0, #6
 8001182:	903e      	str	r0, [sp, #248]	@ 0xf8
 8001184:	f105 000f 	add.w	r0, r5, #15
 8001188:	9037      	str	r0, [sp, #220]	@ 0xdc
 800118a:	1ca8      	adds	r0, r5, #2
 800118c:	9036      	str	r0, [sp, #216]	@ 0xd8
 800118e:	f106 001c 	add.w	r0, r6, #28
 8001192:	903b      	str	r0, [sp, #236]	@ 0xec
 8001194:	f106 0013 	add.w	r0, r6, #19
 8001198:	903a      	str	r0, [sp, #232]	@ 0xe8
 800119a:	1db0      	adds	r0, r6, #6
 800119c:	9039      	str	r0, [sp, #228]	@ 0xe4
 800119e:	f8d7 9008 	ldr.w	r9, [r7, #8]
 80011a2:	9432      	str	r4, [sp, #200]	@ 0xc8
 80011a4:	f109 0a0c 	add.w	sl, r9, #12
 80011a8:	e9cd 2345 	strd	r2, r3, [sp, #276]	@ 0x114
 80011ac:	913f      	str	r1, [sp, #252]	@ 0xfc
 80011ae:	f8cd a104 	str.w	sl, [sp, #260]	@ 0x104
 80011b2:	f8cd 811c 	str.w	r8, [sp, #284]	@ 0x11c
 80011b6:	2000      	movs	r0, #0
 80011b8:	9043      	str	r0, [sp, #268]	@ 0x10c
 80011ba:	2000      	movs	r0, #0
 80011bc:	9035      	str	r0, [sp, #212]	@ 0xd4
 80011be:	e005      	b.n	80011cc <smoltcp::iface::interface::Interface::poll+0xb0>
 80011c0:	f240 002f 	movw	r0, #47	@ 0x2f
 80011c4:	f2c0 0000 	movt	r0, #0
 80011c8:	f003 f8c7 	bl	800435a <defmt::export::acquire_header_and_release>
 80011cc:	e9d9 1004 	ldrd	r1, r0, [r9, #16]
 80011d0:	4288      	cmp	r0, r1
 80011d2:	f082 806a 	bcs.w	80032aa <smoltcp::iface::interface::Interface::poll+0x218e>
 80011d6:	f44f 61c6 	mov.w	r1, #1584	@ 0x630
 80011da:	4348      	muls	r0, r1
 80011dc:	f8da 1000 	ldr.w	r1, [sl]
 80011e0:	5808      	ldr	r0, [r1, r0]
 80011e2:	2800      	cmp	r0, #0
 80011e4:	f101 81d8 	bmi.w	8002598 <smoltcp::iface::interface::Interface::poll+0x147c>
 80011e8:	f249 0014 	movw	r0, #36884	@ 0x9014
 80011ec:	f2c4 0002 	movt	r0, #16386	@ 0x4002
 80011f0:	6800      	ldr	r0, [r0, #0]
 80011f2:	f3c0 4042 	ubfx	r0, r0, #17, #3
 80011f6:	2807      	cmp	r0, #7
 80011f8:	d87c      	bhi.n	80012f4 <smoltcp::iface::interface::Interface::poll+0x1d8>
 80011fa:	2101      	movs	r1, #1
 80011fc:	fa01 f000 	lsl.w	r0, r1, r0
 8001200:	f010 0faa 	tst.w	r0, #170	@ 0xaa
 8001204:	bf08      	it	eq
 8001206:	f007 fad8 	bleq	80087ba <stm32_eth::dma::rx::RxRing::demand_poll>
 800120a:	e9d9 6501 	ldrd	r6, r5, [r9, #4]
 800120e:	42b5      	cmp	r5, r6
 8001210:	f082 8051 	bcs.w	80032b6 <smoltcp::iface::interface::Interface::poll+0x219a>
 8001214:	f44f 60c8 	mov.w	r0, #1600	@ 0x640
 8001218:	f8d9 b000 	ldr.w	fp, [r9]
 800121c:	4368      	muls	r0, r5
 800121e:	f85b 0000 	ldr.w	r0, [fp, r0]
 8001222:	2800      	cmp	r0, #0
 8001224:	f101 81b8 	bmi.w	8002598 <smoltcp::iface::interface::Interface::poll+0x147c>
 8001228:	f8d9 4018 	ldr.w	r4, [r9, #24]
 800122c:	f8cd a130 	str.w	sl, [sp, #304]	@ 0x130
 8001230:	1c60      	adds	r0, r4, #1
 8001232:	f8c9 0018 	str.w	r0, [r9, #24]
 8001236:	2000      	movs	r0, #0
 8001238:	9449      	str	r4, [sp, #292]	@ 0x124
 800123a:	904a      	str	r0, [sp, #296]	@ 0x128
 800123c:	a849      	add	r0, sp, #292	@ 0x124
 800123e:	9051      	str	r0, [sp, #324]	@ 0x144
 8001240:	68f8      	ldr	r0, [r7, #12]
 8001242:	9050      	str	r0, [sp, #320]	@ 0x140
 8001244:	f249 0014 	movw	r0, #36884	@ 0x9014
 8001248:	f2c4 0002 	movt	r0, #16386	@ 0x4002
 800124c:	6800      	ldr	r0, [r0, #0]
 800124e:	9948      	ldr	r1, [sp, #288]	@ 0x120
 8001250:	e9cd 884e 	strd	r8, r8, [sp, #312]	@ 0x138
 8001254:	f3c0 4042 	ubfx	r0, r0, #17, #3
 8001258:	914d      	str	r1, [sp, #308]	@ 0x134
 800125a:	2807      	cmp	r0, #7
 800125c:	d852      	bhi.n	8001304 <smoltcp::iface::interface::Interface::poll+0x1e8>
 800125e:	2101      	movs	r1, #1
 8001260:	fa01 f000 	lsl.w	r0, r1, r0
 8001264:	f010 0faa 	tst.w	r0, #170	@ 0xaa
 8001268:	bf08      	it	eq
 800126a:	f007 faa6 	bleq	80087ba <stm32_eth::dma::rx::RxRing::demand_poll>
 800126e:	f44f 60c8 	mov.w	r0, #1600	@ 0x640
 8001272:	fb05 b000 	mla	r0, r5, r0, fp
 8001276:	6801      	ldr	r1, [r0, #0]
 8001278:	2900      	cmp	r1, #0
 800127a:	d4a1      	bmi.n	80011c0 <smoltcp::iface::interface::Interface::poll+0xa4>
 800127c:	6801      	ldr	r1, [r0, #0]
 800127e:	f411 4100 	ands.w	r1, r1, #32768	@ 0x8000
 8001282:	d106      	bne.n	8001292 <smoltcp::iface::interface::Interface::poll+0x176>
 8001284:	6802      	ldr	r2, [r0, #0]
 8001286:	0592      	lsls	r2, r2, #22
 8001288:	bf44      	itt	mi
 800128a:	6802      	ldrmi	r2, [r0, #0]
 800128c:	ea5f 52c2 	movsmi.w	r2, r2, lsl #23
 8001290:	d43b      	bmi.n	800130a <smoltcp::iface::interface::Interface::poll+0x1ee>
 8001292:	6a02      	ldr	r2, [r0, #32]
 8001294:	2a00      	cmp	r2, #0
 8001296:	f001 879e 	beq.w	80031d6 <smoltcp::iface::interface::Interface::poll+0x20ba>
 800129a:	e9d0 2309 	ldrd	r2, r3, [r0, #36]	@ 0x24
 800129e:	2b00      	cmp	r3, #0
 80012a0:	6082      	str	r2, [r0, #8]
 80012a2:	f001 87a3 	beq.w	80031ec <smoltcp::iface::interface::Interface::poll+0x20d0>
 80012a6:	6ac2      	ldr	r2, [r0, #44]	@ 0x2c
 80012a8:	0bcc      	lsrs	r4, r1, #15
 80012aa:	60c2      	str	r2, [r0, #12]
 80012ac:	f04f 4200 	mov.w	r2, #2147483648	@ 0x80000000
 80012b0:	f3bf 8f5f 	dmb	sy
 80012b4:	6002      	str	r2, [r0, #0]
 80012b6:	2c02      	cmp	r4, #2
 80012b8:	f3bf 8f5f 	dmb	sy
 80012bc:	f43f af80 	beq.w	80011c0 <smoltcp::iface::interface::Interface::poll+0xa4>
 80012c0:	f240 002a 	movw	r0, #42	@ 0x2a
 80012c4:	f2c0 0000 	movt	r0, #0
 80012c8:	f003 f836 	bl	8004338 <defmt::export::acquire_and_header>
 80012cc:	f240 0041 	movw	r0, #65	@ 0x41
 80012d0:	adbc      	add	r5, sp, #752	@ 0x2f0
 80012d2:	f2c0 0000 	movt	r0, #0
 80012d6:	2102      	movs	r1, #2
 80012d8:	f8ad 02f0 	strh.w	r0, [sp, #752]	@ 0x2f0
 80012dc:	4628      	mov	r0, r5
 80012de:	f003 f9dd 	bl	800469c <_defmt_write>
 80012e2:	4628      	mov	r0, r5
 80012e4:	2101      	movs	r1, #1
 80012e6:	f88d 42f0 	strb.w	r4, [sp, #752]	@ 0x2f0
 80012ea:	f003 f9d7 	bl	800469c <_defmt_write>
 80012ee:	f003 f95d 	bl	80045ac <_defmt_release>
 80012f2:	e76b      	b.n	80011cc <smoltcp::iface::interface::Interface::poll+0xb0>
 80012f4:	f007 fa61 	bl	80087ba <stm32_eth::dma::rx::RxRing::demand_poll>
 80012f8:	e9d9 6501 	ldrd	r6, r5, [r9, #4]
 80012fc:	42b5      	cmp	r5, r6
 80012fe:	d389      	bcc.n	8001214 <smoltcp::iface::interface::Interface::poll+0xf8>
 8001300:	f001 bfd9 	b.w	80032b6 <smoltcp::iface::interface::Interface::poll+0x219a>
 8001304:	f007 fa59 	bl	80087ba <stm32_eth::dma::rx::RxRing::demand_poll>
 8001308:	e7b1      	b.n	800126e <smoltcp::iface::interface::Interface::poll+0x152>
 800130a:	f8d0 c000 	ldr.w	ip, [r0]
 800130e:	f8d0 e000 	ldr.w	lr, [r0]
 8001312:	2200      	movs	r2, #0
 8001314:	69c1      	ldr	r1, [r0, #28]
 8001316:	f8d0 a018 	ldr.w	sl, [r0, #24]
 800131a:	f02a 4300 	bic.w	r3, sl, #2147483648	@ 0x80000000
 800131e:	ea43 73c1 	orr.w	r3, r3, r1, lsl #31
 8001322:	f1d3 0900 	rsbs	r9, r3, #0
 8001326:	eb62 0851 	sbc.w	r8, r2, r1, lsr #1
 800132a:	f1ba 0f00 	cmp.w	sl, #0
 800132e:	bf5c      	itt	pl
 8001330:	4699      	movpl	r9, r3
 8001332:	ea4f 0851 	movpl.w	r8, r1, lsr #1
 8001336:	ea5f 610e 	movs.w	r1, lr, lsl #24
 800133a:	f8d7 a008 	ldr.w	sl, [r7, #8]
 800133e:	bf41      	itttt	mi
 8001340:	6801      	ldrmi	r1, [r0, #0]
 8001342:	ea5f 51c1 	movsmi.w	r1, r1, lsl #23
 8001346:	f04f 0b00 	movmi.w	fp, #0
 800134a:	f04f 0e01 	movmi.w	lr, #1
 800134e:	bf5c      	itt	pl
 8001350:	f04f 0e00 	movpl.w	lr, #0
 8001354:	f04f 0b00 	movpl.w	fp, #0
 8001358:	e9da 1201 	ldrd	r1, r2, [sl, #4]
 800135c:	3201      	adds	r2, #1
 800135e:	e9c0 b90f 	strd	fp, r9, [r0, #60]	@ 0x3c
 8001362:	fbb2 f3f6 	udiv	r3, r2, r6
 8001366:	428d      	cmp	r5, r1
 8001368:	fb03 2216 	mls	r2, r3, r6, r2
 800136c:	f04f 0301 	mov.w	r3, #1
 8001370:	f100 0630 	add.w	r6, r0, #48	@ 0x30
 8001374:	e886 4018 	stmia.w	r6, {r3, r4, lr}
 8001378:	f8c0 8044 	str.w	r8, [r0, #68]	@ 0x44
 800137c:	f8ca 2008 	str.w	r2, [sl, #8]
 8001380:	f081 87af 	bcs.w	80032e2 <smoltcp::iface::interface::Interface::poll+0x21c6>
 8001384:	f8dd 811c 	ldr.w	r8, [sp, #284]	@ 0x11c
 8001388:	f3cc 410d 	ubfx	r1, ip, #16, #14
 800138c:	f240 50f3 	movw	r0, #1523	@ 0x5f3
 8001390:	4281      	cmp	r1, r0
 8001392:	f081 8736 	bcs.w	8003202 <smoltcp::iface::interface::Interface::poll+0x20e6>
 8001396:	f44f 62c8 	mov.w	r2, #1600	@ 0x640
 800139a:	f8da 0000 	ldr.w	r0, [sl]
 800139e:	fb05 0602 	mla	r6, r5, r2, r0
 80013a2:	46d1      	mov	r9, sl
 80013a4:	b1e1      	cbz	r1, 80013e0 <smoltcp::iface::interface::Interface::poll+0x2c4>
 80013a6:	f106 0248 	add.w	r2, r6, #72	@ 0x48
 80013aa:	290e      	cmp	r1, #14
 80013ac:	4610      	mov	r0, r2
 80013ae:	bf38      	it	cc
 80013b0:	2000      	movcc	r0, #0
 80013b2:	f8dd a104 	ldr.w	sl, [sp, #260]	@ 0x104
 80013b6:	d315      	bcc.n	80013e4 <smoltcp::iface::interface::Interface::poll+0x2c8>
 80013b8:	68fb      	ldr	r3, [r7, #12]
 80013ba:	f8dd c124 	ldr.w	ip, [sp, #292]	@ 0x124
 80013be:	e9d3 b800 	ldrd	fp, r8, [r3]
 80013c2:	6813      	ldr	r3, [r2, #0]
 80013c4:	07dd      	lsls	r5, r3, #31
 80013c6:	d121      	bne.n	800140c <smoltcp::iface::interface::Interface::poll+0x2f0>
 80013c8:	9c44      	ldr	r4, [sp, #272]	@ 0x110
 80013ca:	8892      	ldrh	r2, [r2, #4]
 80013cc:	88a5      	ldrh	r5, [r4, #4]
 80013ce:	6824      	ldr	r4, [r4, #0]
 80013d0:	406a      	eors	r2, r5
 80013d2:	4063      	eors	r3, r4
 80013d4:	b292      	uxth	r2, r2
 80013d6:	431a      	orrs	r2, r3
 80013d8:	d018      	beq.n	800140c <smoltcp::iface::interface::Interface::poll+0x2f0>
 80013da:	f8dd 811c 	ldr.w	r8, [sp, #284]	@ 0x11c
 80013de:	e001      	b.n	80013e4 <smoltcp::iface::interface::Interface::poll+0x2c8>
 80013e0:	f8dd a104 	ldr.w	sl, [sp, #260]	@ 0x104
 80013e4:	6a30      	ldr	r0, [r6, #32]
 80013e6:	2800      	cmp	r0, #0
 80013e8:	f001 86f5 	beq.w	80031d6 <smoltcp::iface::interface::Interface::poll+0x20ba>
 80013ec:	e9d6 0109 	ldrd	r0, r1, [r6, #36]	@ 0x24
 80013f0:	2900      	cmp	r1, #0
 80013f2:	60b0      	str	r0, [r6, #8]
 80013f4:	f001 86fa 	beq.w	80031ec <smoltcp::iface::interface::Interface::poll+0x20d0>
 80013f8:	6af0      	ldr	r0, [r6, #44]	@ 0x2c
 80013fa:	60f0      	str	r0, [r6, #12]
 80013fc:	f04f 4000 	mov.w	r0, #2147483648	@ 0x80000000
 8001400:	f3bf 8f5f 	dmb	sy
 8001404:	6030      	str	r0, [r6, #0]
 8001406:	f3bf 8f5f 	dmb	sy
 800140a:	e6df      	b.n	80011cc <smoltcp::iface::interface::Interface::poll+0xb0>
 800140c:	f8b6 2054 	ldrh.w	r2, [r6, #84]	@ 0x54
 8001410:	ba12      	rev	r2, r2
 8001412:	0c12      	lsrs	r2, r2, #16
 8001414:	f5b2 6f00 	cmp.w	r2, #2048	@ 0x800
 8001418:	d078      	beq.n	800150c <smoltcp::iface::interface::Interface::poll+0x3f0>
 800141a:	f8dd 811c 	ldr.w	r8, [sp, #284]	@ 0x11c
 800141e:	f640 0006 	movw	r0, #2054	@ 0x806
 8001422:	4282      	cmp	r2, r0
 8001424:	d1de      	bne.n	80013e4 <smoltcp::iface::interface::Interface::poll+0x2c8>
 8001426:	f1a1 020e 	sub.w	r2, r1, #14
 800142a:	2a08      	cmp	r2, #8
 800142c:	d3da      	bcc.n	80013e4 <smoltcp::iface::interface::Interface::poll+0x2c8>
 800142e:	f896 005a 	ldrb.w	r0, [r6, #90]	@ 0x5a
 8001432:	f896 105b 	ldrb.w	r1, [r6, #91]	@ 0x5b
 8001436:	4408      	add	r0, r1
 8001438:	3004      	adds	r0, #4
 800143a:	ebb2 0f40 	cmp.w	r2, r0, lsl #1
 800143e:	d3d1      	bcc.n	80013e4 <smoltcp::iface::interface::Interface::poll+0x2c8>
 8001440:	f896 005a 	ldrb.w	r0, [r6, #90]	@ 0x5a
 8001444:	f896 105b 	ldrb.w	r1, [r6, #91]	@ 0x5b
 8001448:	180b      	adds	r3, r1, r0
 800144a:	3304      	adds	r3, #4
 800144c:	ebb2 0f43 	cmp.w	r2, r3, lsl #1
 8001450:	d3c8      	bcc.n	80013e4 <smoltcp::iface::interface::Interface::poll+0x2c8>
 8001452:	2904      	cmp	r1, #4
 8001454:	bf08      	it	eq
 8001456:	2806      	cmpeq	r0, #6
 8001458:	d1c4      	bne.n	80013e4 <smoltcp::iface::interface::Interface::poll+0x2c8>
 800145a:	f8b6 3056 	ldrh.w	r3, [r6, #86]	@ 0x56
 800145e:	f5b3 7f80 	cmp.w	r3, #256	@ 0x100
 8001462:	bf04      	itt	eq
 8001464:	f8b6 3058 	ldrheq.w	r3, [r6, #88]	@ 0x58
 8001468:	2b08      	cmpeq	r3, #8
 800146a:	d1bb      	bne.n	80013e4 <smoltcp::iface::interface::Interface::poll+0x2c8>
 800146c:	2a0d      	cmp	r2, #13
 800146e:	f241 8745 	bls.w	80032fc <smoltcp::iface::interface::Interface::poll+0x21e0>
 8001472:	310e      	adds	r1, #14
 8001474:	4291      	cmp	r1, r2
 8001476:	f201 8749 	bhi.w	800330c <smoltcp::iface::interface::Interface::poll+0x21f0>
 800147a:	180d      	adds	r5, r1, r0
 800147c:	4295      	cmp	r5, r2
 800147e:	f201 874c 	bhi.w	800331a <smoltcp::iface::interface::Interface::poll+0x21fe>
 8001482:	2a1b      	cmp	r2, #27
 8001484:	f241 8751 	bls.w	800332a <smoltcp::iface::interface::Interface::poll+0x220e>
 8001488:	9848      	ldr	r0, [sp, #288]	@ 0x120
 800148a:	4631      	mov	r1, r6
 800148c:	f896 2063 	ldrb.w	r2, [r6, #99]	@ 0x63
 8001490:	e9d0 ce04 	ldrd	ip, lr, [r0, #16]
 8001494:	f8d0 00f0 	ldr.w	r0, [r0, #240]	@ 0xf0
 8001498:	922c      	str	r2, [sp, #176]	@ 0xb0
 800149a:	f8d6 205f 	ldr.w	r2, [r6, #95]	@ 0x5f
 800149e:	9d42      	ldr	r5, [sp, #264]	@ 0x108
 80014a0:	eb00 0880 	add.w	r8, r0, r0, lsl #2
 80014a4:	922b      	str	r2, [sp, #172]	@ 0xac
 80014a6:	f896 205e 	ldrb.w	r2, [r6, #94]	@ 0x5e
 80014aa:	eb05 0308 	add.w	r3, r5, r8
 80014ae:	f8b6 b05c 	ldrh.w	fp, [r6, #92]	@ 0x5c
 80014b2:	6e76      	ldr	r6, [r6, #100]	@ 0x64
 80014b4:	f8d1 406e 	ldr.w	r4, [r1, #110]	@ 0x6e
 80014b8:	922d      	str	r2, [sp, #180]	@ 0xb4
 80014ba:	4642      	mov	r2, r8
 80014bc:	912e      	str	r1, [sp, #184]	@ 0xb8
 80014be:	2a00      	cmp	r2, #0
 80014c0:	f000 80a4 	beq.w	800160c <smoltcp::iface::interface::Interface::poll+0x4f0>
 80014c4:	4629      	mov	r1, r5
 80014c6:	f851 0b05 	ldr.w	r0, [r1], #5
 80014ca:	42a0      	cmp	r0, r4
 80014cc:	f000 80a3 	beq.w	8001616 <smoltcp::iface::interface::Interface::poll+0x4fa>
 80014d0:	4299      	cmp	r1, r3
 80014d2:	f000 809b 	beq.w	800160c <smoltcp::iface::interface::Interface::poll+0x4f0>
 80014d6:	f8d5 0005 	ldr.w	r0, [r5, #5]
 80014da:	42a0      	cmp	r0, r4
 80014dc:	f000 809b 	beq.w	8001616 <smoltcp::iface::interface::Interface::poll+0x4fa>
 80014e0:	f105 000a 	add.w	r0, r5, #10
 80014e4:	4298      	cmp	r0, r3
 80014e6:	f000 8091 	beq.w	800160c <smoltcp::iface::interface::Interface::poll+0x4f0>
 80014ea:	f8d5 000a 	ldr.w	r0, [r5, #10]
 80014ee:	42a0      	cmp	r0, r4
 80014f0:	f000 8091 	beq.w	8001616 <smoltcp::iface::interface::Interface::poll+0x4fa>
 80014f4:	f105 000f 	add.w	r0, r5, #15
 80014f8:	4298      	cmp	r0, r3
 80014fa:	f000 8087 	beq.w	800160c <smoltcp::iface::interface::Interface::poll+0x4f0>
 80014fe:	f8d5 000f 	ldr.w	r0, [r5, #15]
 8001502:	3a14      	subs	r2, #20
 8001504:	3514      	adds	r5, #20
 8001506:	42a0      	cmp	r0, r4
 8001508:	d1d9      	bne.n	80014be <smoltcp::iface::interface::Interface::poll+0x3a2>
 800150a:	e084      	b.n	8001616 <smoltcp::iface::interface::Interface::poll+0x4fa>
 800150c:	f1a1 050e 	sub.w	r5, r1, #14
 8001510:	2d14      	cmp	r5, #20
 8001512:	f4ff af62 	bcc.w	80013da <smoltcp::iface::interface::Interface::poll+0x2be>
 8001516:	f100 030e 	add.w	r3, r0, #14
 800151a:	213c      	movs	r1, #60	@ 0x3c
 800151c:	7818      	ldrb	r0, [r3, #0]
 800151e:	ea01 0280 	and.w	r2, r1, r0, lsl #2
 8001522:	4295      	cmp	r5, r2
 8001524:	f4ff af59 	bcc.w	80013da <smoltcp::iface::interface::Interface::poll+0x2be>
 8001528:	f8b6 1058 	ldrh.w	r1, [r6, #88]	@ 0x58
 800152c:	ba09      	rev	r1, r1
 800152e:	ebb2 4f11 	cmp.w	r2, r1, lsr #16
 8001532:	f63f af52 	bhi.w	80013da <smoltcp::iface::interface::Interface::poll+0x2be>
 8001536:	0c09      	lsrs	r1, r1, #16
 8001538:	428d      	cmp	r5, r1
 800153a:	f4ff af4e 	bcc.w	80013da <smoltcp::iface::interface::Interface::poll+0x2be>
 800153e:	f8b6 1058 	ldrh.w	r1, [r6, #88]	@ 0x58
 8001542:	ba09      	rev	r1, r1
 8001544:	ebb2 4f11 	cmp.w	r2, r1, lsr #16
 8001548:	f63f af47 	bhi.w	80013da <smoltcp::iface::interface::Interface::poll+0x2be>
 800154c:	0c0c      	lsrs	r4, r1, #16
 800154e:	42a5      	cmp	r5, r4
 8001550:	f4ff af43 	bcc.w	80013da <smoltcp::iface::interface::Interface::poll+0x2be>
 8001554:	f000 01f0 	and.w	r1, r0, #240	@ 0xf0
 8001558:	2940      	cmp	r1, #64	@ 0x40
 800155a:	f47f af3e 	bne.w	80013da <smoltcp::iface::interface::Interface::poll+0x2be>
 800155e:	f8b6 1052 	ldrh.w	r1, [r6, #82]	@ 0x52
 8001562:	912a      	str	r1, [sp, #168]	@ 0xa8
 8001564:	f8d6 104e 	ldr.w	r1, [r6, #78]	@ 0x4e
 8001568:	912b      	str	r1, [sp, #172]	@ 0xac
 800156a:	9948      	ldr	r1, [sp, #288]	@ 0x120
 800156c:	7a09      	ldrb	r1, [r1, #8]
 800156e:	2901      	cmp	r1, #1
 8001570:	d813      	bhi.n	800159a <smoltcp::iface::interface::Interface::poll+0x47e>
 8001572:	0080      	lsls	r0, r0, #2
 8001574:	e9cd 242d 	strd	r2, r4, [sp, #180]	@ 0xb4
 8001578:	b2c1      	uxtb	r1, r0
 800157a:	428d      	cmp	r5, r1
 800157c:	f0c1 86a3 	bcc.w	80032c6 <smoltcp::iface::interface::Interface::poll+0x21aa>
 8001580:	4618      	mov	r0, r3
 8001582:	4664      	mov	r4, ip
 8001584:	932c      	str	r3, [sp, #176]	@ 0xb0
 8001586:	f006 fd5a 	bl	800803e <smoltcp::wire::ip::checksum::data>
 800158a:	46a4      	mov	ip, r4
 800158c:	9b2c      	ldr	r3, [sp, #176]	@ 0xb0
 800158e:	e9dd 242d 	ldrd	r2, r4, [sp, #180]	@ 0xb4
 8001592:	43c0      	mvns	r0, r0
 8001594:	0400      	lsls	r0, r0, #16
 8001596:	f47f af20 	bne.w	80013da <smoltcp::iface::interface::Interface::poll+0x2be>
 800159a:	f8b6 005c 	ldrh.w	r0, [r6, #92]	@ 0x5c
 800159e:	f06f 01c0 	mvn.w	r1, #192	@ 0xc0
 80015a2:	4208      	tst	r0, r1
 80015a4:	f47f af19 	bne.w	80013da <smoltcp::iface::interface::Interface::poll+0x2be>
 80015a8:	942e      	str	r4, [sp, #184]	@ 0xb8
 80015aa:	f896 005f 	ldrb.w	r0, [r6, #95]	@ 0x5f
 80015ae:	f8d6 4066 	ldr.w	r4, [r6, #102]	@ 0x66
 80015b2:	f8d6 e062 	ldr.w	lr, [r6, #98]	@ 0x62
 80015b6:	283c      	cmp	r0, #60	@ 0x3c
 80015b8:	932c      	str	r3, [sp, #176]	@ 0xb0
 80015ba:	f04f 030c 	mov.w	r3, #12
 80015be:	f8cd b098 	str.w	fp, [sp, #152]	@ 0x98
 80015c2:	f200 8083 	bhi.w	80016cc <smoltcp::iface::interface::Interface::poll+0x5b0>
 80015c6:	e8df f000 	tbb	[pc, r0]
 80015ca:	1f1f      	.short	0x1f1f
 80015cc:	8181811f 	.word	0x8181811f
 80015d0:	8181817a 	.word	0x8181817a
 80015d4:	81818181 	.word	0x81818181
 80015d8:	7c818181 	.word	0x7c818181
 80015dc:	81818181 	.word	0x81818181
 80015e0:	81818181 	.word	0x81818181
 80015e4:	81818181 	.word	0x81818181
 80015e8:	81818181 	.word	0x81818181
 80015ec:	81818181 	.word	0x81818181
 80015f0:	81818181 	.word	0x81818181
 80015f4:	81767281 	.word	0x81767281
 80015f8:	81818181 	.word	0x81818181
 80015fc:	81818078 	.word	0x81818078
 8001600:	81818181 	.word	0x81818181
 8001604:	0074707e 	.word	0x0074707e
 8001608:	4603      	mov	r3, r0
 800160a:	e05f      	b.n	80016cc <smoltcp::iface::interface::Interface::poll+0x5b0>
 800160c:	9848      	ldr	r0, [sp, #288]	@ 0x120
 800160e:	f890 016e 	ldrb.w	r0, [r0, #366]	@ 0x16e
 8001612:	2801      	cmp	r0, #1
 8001614:	d118      	bne.n	8001648 <smoltcp::iface::interface::Interface::poll+0x52c>
 8001616:	f5bb 7f80 	cmp.w	fp, #256	@ 0x100
 800161a:	bf18      	it	ne
 800161c:	f5bb 7f00 	cmpne.w	fp, #512	@ 0x200
 8001620:	d10c      	bne.n	800163c <smoltcp::iface::interface::Interface::poll+0x520>
 8001622:	f006 00f0 	and.w	r0, r6, #240	@ 0xf0
 8001626:	28e0      	cmp	r0, #224	@ 0xe0
 8001628:	d003      	beq.n	8001632 <smoltcp::iface::interface::Interface::poll+0x516>
 800162a:	1c70      	adds	r0, r6, #1
 800162c:	4635      	mov	r5, r6
 800162e:	2801      	cmp	r0, #1
 8001630:	d80e      	bhi.n	8001650 <smoltcp::iface::interface::Interface::poll+0x534>
 8001632:	f240 0026 	movw	r0, #38	@ 0x26
 8001636:	f2c0 0000 	movt	r0, #0
 800163a:	e003      	b.n	8001644 <smoltcp::iface::interface::Interface::poll+0x528>
 800163c:	f240 0028 	movw	r0, #40	@ 0x28
 8001640:	f2c0 0000 	movt	r0, #0
 8001644:	f002 fe89 	bl	800435a <defmt::export::acquire_header_and_release>
 8001648:	f8dd 811c 	ldr.w	r8, [sp, #284]	@ 0x11c
 800164c:	9e2e      	ldr	r6, [sp, #184]	@ 0xb8
 800164e:	e6c9      	b.n	80013e4 <smoltcp::iface::interface::Interface::poll+0x2c8>
 8001650:	992c      	ldr	r1, [sp, #176]	@ 0xb0
 8001652:	9a2b      	ldr	r2, [sp, #172]	@ 0xac
 8001654:	982d      	ldr	r0, [sp, #180]	@ 0xb4
 8001656:	0209      	lsls	r1, r1, #8
 8001658:	ea41 6112 	orr.w	r1, r1, r2, lsr #24
 800165c:	ea40 2002 	orr.w	r0, r0, r2, lsl #8
 8001660:	43c9      	mvns	r1, r1
 8001662:	b289      	uxth	r1, r1
 8001664:	ea61 0000 	orn	r0, r1, r0
 8001668:	2800      	cmp	r0, #0
 800166a:	d0e2      	beq.n	8001632 <smoltcp::iface::interface::Interface::poll+0x516>
 800166c:	982d      	ldr	r0, [sp, #180]	@ 0xb4
 800166e:	f010 0001 	ands.w	r0, r0, #1
 8001672:	d1de      	bne.n	8001632 <smoltcp::iface::interface::Interface::poll+0x516>
 8001674:	9942      	ldr	r1, [sp, #264]	@ 0x108
 8001676:	e00f      	b.n	8001698 <smoltcp::iface::interface::Interface::poll+0x57c>
 8001678:	4250      	negs	r0, r2
 800167a:	f04f 32ff 	mov.w	r2, #4294967295	@ 0xffffffff
 800167e:	f000 001f 	and.w	r0, r0, #31
 8001682:	fa02 f000 	lsl.w	r0, r2, r0
 8001686:	ba02      	rev	r2, r0
 8001688:	6808      	ldr	r0, [r1, #0]
 800168a:	3105      	adds	r1, #5
 800168c:	f1a8 0805 	sub.w	r8, r8, #5
 8001690:	4068      	eors	r0, r5
 8001692:	4202      	tst	r2, r0
 8001694:	f000 80ee 	beq.w	8001874 <smoltcp::iface::interface::Interface::poll+0x758>
 8001698:	f1b8 0f00 	cmp.w	r8, #0
 800169c:	f000 80e5 	beq.w	800186a <smoltcp::iface::interface::Interface::poll+0x74e>
 80016a0:	790a      	ldrb	r2, [r1, #4]
 80016a2:	2a00      	cmp	r2, #0
 80016a4:	d1e8      	bne.n	8001678 <smoltcp::iface::interface::Interface::poll+0x55c>
 80016a6:	2200      	movs	r2, #0
 80016a8:	e7ee      	b.n	8001688 <smoltcp::iface::interface::Interface::poll+0x56c>
 80016aa:	230a      	movs	r3, #10
 80016ac:	e00e      	b.n	80016cc <smoltcp::iface::interface::Interface::poll+0x5b0>
 80016ae:	2305      	movs	r3, #5
 80016b0:	e00c      	b.n	80016cc <smoltcp::iface::interface::Interface::poll+0x5b0>
 80016b2:	230b      	movs	r3, #11
 80016b4:	e00a      	b.n	80016cc <smoltcp::iface::interface::Interface::poll+0x5b0>
 80016b6:	2306      	movs	r3, #6
 80016b8:	e008      	b.n	80016cc <smoltcp::iface::interface::Interface::poll+0x5b0>
 80016ba:	2307      	movs	r3, #7
 80016bc:	e006      	b.n	80016cc <smoltcp::iface::interface::Interface::poll+0x5b0>
 80016be:	2303      	movs	r3, #3
 80016c0:	e004      	b.n	80016cc <smoltcp::iface::interface::Interface::poll+0x5b0>
 80016c2:	2304      	movs	r3, #4
 80016c4:	e002      	b.n	80016cc <smoltcp::iface::interface::Interface::poll+0x5b0>
 80016c6:	2309      	movs	r3, #9
 80016c8:	e000      	b.n	80016cc <smoltcp::iface::interface::Interface::poll+0x5b0>
 80016ca:	2308      	movs	r3, #8
 80016cc:	992e      	ldr	r1, [sp, #184]	@ 0xb8
 80016ce:	922d      	str	r2, [sp, #180]	@ 0xb4
 80016d0:	1a8a      	subs	r2, r1, r2
 80016d2:	9928      	ldr	r1, [sp, #160]	@ 0xa0
 80016d4:	f896 b05e 	ldrb.w	fp, [r6, #94]	@ 0x5e
 80016d8:	f021 01ff 	bic.w	r1, r1, #255	@ 0xff
 80016dc:	962e      	str	r6, [sp, #184]	@ 0xb8
 80016de:	4401      	add	r1, r0
 80016e0:	f00e 00f0 	and.w	r0, lr, #240	@ 0xf0
 80016e4:	28e0      	cmp	r0, #224	@ 0xe0
 80016e6:	9429      	str	r4, [sp, #164]	@ 0xa4
 80016e8:	e9cd e127 	strd	lr, r1, [sp, #156]	@ 0x9c
 80016ec:	bf18      	it	ne
 80016ee:	f11e 0001 	addsne.w	r0, lr, #1
 80016f2:	d107      	bne.n	8001704 <smoltcp::iface::interface::Interface::poll+0x5e8>
 80016f4:	f240 0029 	movw	r0, #41	@ 0x29
 80016f8:	f2c0 0000 	movt	r0, #0
 80016fc:	f002 fe2d 	bl	800435a <defmt::export::acquire_header_and_release>
 8001700:	9e2e      	ldr	r6, [sp, #184]	@ 0xb8
 8001702:	e66a      	b.n	80013da <smoltcp::iface::interface::Interface::poll+0x2be>
 8001704:	f1be 0f00 	cmp.w	lr, #0
 8001708:	e9cd b222 	strd	fp, r2, [sp, #136]	@ 0x88
 800170c:	9325      	str	r3, [sp, #148]	@ 0x94
 800170e:	d101      	bne.n	8001714 <smoltcp::iface::interface::Interface::poll+0x5f8>
 8001710:	2601      	movs	r6, #1
 8001712:	e031      	b.n	8001778 <smoltcp::iface::interface::Interface::poll+0x65c>
 8001714:	9848      	ldr	r0, [sp, #288]	@ 0x120
 8001716:	46e3      	mov	fp, ip
 8001718:	f8d0 00f0 	ldr.w	r0, [r0, #240]	@ 0xf0
 800171c:	b338      	cbz	r0, 800176e <smoltcp::iface::interface::Interface::poll+0x652>
 800171e:	9942      	ldr	r1, [sp, #264]	@ 0x108
 8001720:	eb00 0080 	add.w	r0, r0, r0, lsl #2
 8001724:	eb01 0c00 	add.w	ip, r1, r0
 8001728:	e00f      	b.n	800174a <smoltcp::iface::interface::Interface::poll+0x62e>
 800172a:	2000      	movs	r0, #0
 800172c:	f04f 34ff 	mov.w	r4, #4294967295	@ 0xffffffff
 8001730:	f002 021f 	and.w	r2, r2, #31
 8001734:	4018      	ands	r0, r3
 8001736:	fa24 f202 	lsr.w	r2, r4, r2
 800173a:	ba12      	rev	r2, r2
 800173c:	4310      	orrs	r0, r2
 800173e:	4586      	cmp	lr, r0
 8001740:	f000 808b 	beq.w	800185a <smoltcp::iface::interface::Interface::poll+0x73e>
 8001744:	3105      	adds	r1, #5
 8001746:	4561      	cmp	r1, ip
 8001748:	d011      	beq.n	800176e <smoltcp::iface::interface::Interface::poll+0x652>
 800174a:	790a      	ldrb	r2, [r1, #4]
 800174c:	680b      	ldr	r3, [r1, #0]
 800174e:	2a00      	cmp	r2, #0
 8001750:	d0eb      	beq.n	800172a <smoltcp::iface::interface::Interface::poll+0x60e>
 8001752:	f1a2 001f 	sub.w	r0, r2, #31
 8001756:	b2c0      	uxtb	r0, r0
 8001758:	2802      	cmp	r0, #2
 800175a:	d3f3      	bcc.n	8001744 <smoltcp::iface::interface::Interface::poll+0x628>
 800175c:	4250      	negs	r0, r2
 800175e:	f04f 34ff 	mov.w	r4, #4294967295	@ 0xffffffff
 8001762:	f000 001f 	and.w	r0, r0, #31
 8001766:	fa04 f000 	lsl.w	r0, r4, r0
 800176a:	ba00      	rev	r0, r0
 800176c:	e7e0      	b.n	8001730 <smoltcp::iface::interface::Interface::poll+0x614>
 800176e:	fabe f08e 	clz	r0, lr
 8001772:	9c29      	ldr	r4, [sp, #164]	@ 0xa4
 8001774:	46dc      	mov	ip, fp
 8001776:	0946      	lsrs	r6, r0, #5
 8001778:	e9dd 202d 	ldrd	r2, r0, [sp, #180]	@ 0xb4
 800177c:	f8b0 0058 	ldrh.w	r0, [r0, #88]	@ 0x58
 8001780:	ba00      	rev	r0, r0
 8001782:	0c01      	lsrs	r1, r0, #16
 8001784:	ebb2 4f10 	cmp.w	r2, r0, lsr #16
 8001788:	f201 85de 	bhi.w	8003348 <smoltcp::iface::interface::Interface::poll+0x222c>
 800178c:	428d      	cmp	r5, r1
 800178e:	f0c1 85db 	bcc.w	8003348 <smoltcp::iface::interface::Interface::poll+0x222c>
 8001792:	9848      	ldr	r0, [sp, #288]	@ 0x120
 8001794:	9b42      	ldr	r3, [sp, #264]	@ 0x108
 8001796:	e9cd 6c20 	strd	r6, ip, [sp, #128]	@ 0x80
 800179a:	f8d0 e0f0 	ldr.w	lr, [r0, #240]	@ 0xf0
 800179e:	982c      	ldr	r0, [sp, #176]	@ 0xb0
 80017a0:	1885      	adds	r5, r0, r2
 80017a2:	1a88      	subs	r0, r1, r2
 80017a4:	eb0e 028e 	add.w	r2, lr, lr, lsl #2
 80017a8:	902d      	str	r0, [sp, #180]	@ 0xb4
 80017aa:	1899      	adds	r1, r3, r2
 80017ac:	9524      	str	r5, [sp, #144]	@ 0x90
 80017ae:	952c      	str	r5, [sp, #176]	@ 0xb0
 80017b0:	b302      	cbz	r2, 80017f4 <smoltcp::iface::interface::Interface::poll+0x6d8>
 80017b2:	4618      	mov	r0, r3
 80017b4:	f850 5b05 	ldr.w	r5, [r0], #5
 80017b8:	42a5      	cmp	r5, r4
 80017ba:	f000 814d 	beq.w	8001a58 <smoltcp::iface::interface::Interface::poll+0x93c>
 80017be:	4288      	cmp	r0, r1
 80017c0:	d018      	beq.n	80017f4 <smoltcp::iface::interface::Interface::poll+0x6d8>
 80017c2:	f8d3 0005 	ldr.w	r0, [r3, #5]
 80017c6:	42a0      	cmp	r0, r4
 80017c8:	f000 8146 	beq.w	8001a58 <smoltcp::iface::interface::Interface::poll+0x93c>
 80017cc:	f103 000a 	add.w	r0, r3, #10
 80017d0:	4288      	cmp	r0, r1
 80017d2:	d00f      	beq.n	80017f4 <smoltcp::iface::interface::Interface::poll+0x6d8>
 80017d4:	f8d3 000a 	ldr.w	r0, [r3, #10]
 80017d8:	42a0      	cmp	r0, r4
 80017da:	f000 813d 	beq.w	8001a58 <smoltcp::iface::interface::Interface::poll+0x93c>
 80017de:	f103 000f 	add.w	r0, r3, #15
 80017e2:	4288      	cmp	r0, r1
 80017e4:	d006      	beq.n	80017f4 <smoltcp::iface::interface::Interface::poll+0x6d8>
 80017e6:	f8d3 000f 	ldr.w	r0, [r3, #15]
 80017ea:	3a14      	subs	r2, #20
 80017ec:	3314      	adds	r3, #20
 80017ee:	42a0      	cmp	r0, r4
 80017f0:	d1de      	bne.n	80017b0 <smoltcp::iface::interface::Interface::poll+0x694>
 80017f2:	e131      	b.n	8001a58 <smoltcp::iface::interface::Interface::poll+0x93c>
 80017f4:	f114 0c01 	adds.w	ip, r4, #1
 80017f8:	f000 8137 	beq.w	8001a6a <smoltcp::iface::interface::Interface::poll+0x94e>
 80017fc:	9a29      	ldr	r2, [sp, #164]	@ 0xa4
 80017fe:	20e0      	movs	r0, #224	@ 0xe0
 8001800:	f2c0 1000 	movt	r0, #256	@ 0x100
 8001804:	4282      	cmp	r2, r0
 8001806:	f000 8130 	beq.w	8001a6a <smoltcp::iface::interface::Interface::poll+0x94e>
 800180a:	f04f 34ff 	mov.w	r4, #4294967295	@ 0xffffffff
 800180e:	f1be 0f00 	cmp.w	lr, #0
 8001812:	f000 80d0 	beq.w	80019b6 <smoltcp::iface::interface::Interface::poll+0x89a>
 8001816:	9b42      	ldr	r3, [sp, #264]	@ 0x108
 8001818:	e00f      	b.n	800183a <smoltcp::iface::interface::Interface::poll+0x71e>
 800181a:	2000      	movs	r0, #0
 800181c:	4010      	ands	r0, r2
 800181e:	f005 021f 	and.w	r2, r5, #31
 8001822:	fa24 f202 	lsr.w	r2, r4, r2
 8001826:	ba12      	rev	r2, r2
 8001828:	4310      	orrs	r0, r2
 800182a:	9a29      	ldr	r2, [sp, #164]	@ 0xa4
 800182c:	4282      	cmp	r2, r0
 800182e:	f000 810e 	beq.w	8001a4e <smoltcp::iface::interface::Interface::poll+0x932>
 8001832:	3305      	adds	r3, #5
 8001834:	428b      	cmp	r3, r1
 8001836:	f000 80be 	beq.w	80019b6 <smoltcp::iface::interface::Interface::poll+0x89a>
 800183a:	791d      	ldrb	r5, [r3, #4]
 800183c:	681a      	ldr	r2, [r3, #0]
 800183e:	2d00      	cmp	r5, #0
 8001840:	d0eb      	beq.n	800181a <smoltcp::iface::interface::Interface::poll+0x6fe>
 8001842:	f1a5 001f 	sub.w	r0, r5, #31
 8001846:	b2c0      	uxtb	r0, r0
 8001848:	2802      	cmp	r0, #2
 800184a:	d3f2      	bcc.n	8001832 <smoltcp::iface::interface::Interface::poll+0x716>
 800184c:	4268      	negs	r0, r5
 800184e:	f000 001f 	and.w	r0, r0, #31
 8001852:	fa04 f000 	lsl.w	r0, r4, r0
 8001856:	ba00      	rev	r0, r0
 8001858:	e7e0      	b.n	800181c <smoltcp::iface::interface::Interface::poll+0x700>
 800185a:	9c29      	ldr	r4, [sp, #164]	@ 0xa4
 800185c:	f1be 0f00 	cmp.w	lr, #0
 8001860:	f47f af48 	bne.w	80016f4 <smoltcp::iface::interface::Interface::poll+0x5d8>
 8001864:	46dc      	mov	ip, fp
 8001866:	2601      	movs	r6, #1
 8001868:	e786      	b.n	8001778 <smoltcp::iface::interface::Interface::poll+0x65c>
 800186a:	f240 0027 	movw	r0, #39	@ 0x27
 800186e:	f2c0 0000 	movt	r0, #0
 8001872:	e6e7      	b.n	8001644 <smoltcp::iface::interface::Interface::poll+0x528>
 8001874:	983d      	ldr	r0, [sp, #244]	@ 0xf4
 8001876:	992c      	ldr	r1, [sp, #176]	@ 0xb0
 8001878:	9b2b      	ldr	r3, [sp, #172]	@ 0xac
 800187a:	6003      	str	r3, [r0, #0]
 800187c:	7101      	strb	r1, [r0, #4]
 800187e:	982d      	ldr	r0, [sp, #180]	@ 0xb4
 8001880:	f88d 02f0 	strb.w	r0, [sp, #752]	@ 0x2f0
 8001884:	b2c8      	uxtb	r0, r1
 8001886:	0e19      	lsrs	r1, r3, #24
 8001888:	ea41 2300 	orr.w	r3, r1, r0, lsl #8
 800188c:	9abc      	ldr	r2, [sp, #752]	@ 0x2f0
 800188e:	4629      	mov	r1, r5
 8001890:	983c      	ldr	r0, [sp, #240]	@ 0xf0
 8001892:	e9cd ce00 	strd	ip, lr, [sp]
 8001896:	f006 fdd7 	bl	8008448 <smoltcp::iface::neighbor::Cache::fill>
 800189a:	f5bb 7f80 	cmp.w	fp, #256	@ 0x100
 800189e:	f040 809a 	bne.w	80019d6 <smoltcp::iface::interface::Interface::poll+0x8ba>
 80018a2:	9944      	ldr	r1, [sp, #272]	@ 0x110
 80018a4:	9a38      	ldr	r2, [sp, #224]	@ 0xe0
 80018a6:	f8cd 4296 	str.w	r4, [sp, #662]	@ 0x296
 80018aa:	6808      	ldr	r0, [r1, #0]
 80018ac:	8889      	ldrh	r1, [r1, #4]
 80018ae:	8091      	strh	r1, [r2, #4]
 80018b0:	6010      	str	r0, [r2, #0]
 80018b2:	9a36      	ldr	r2, [sp, #216]	@ 0xd8
 80018b4:	e9dd 0152 	ldrd	r0, r1, [sp, #328]	@ 0x148
 80018b8:	96a8      	str	r6, [sp, #672]	@ 0x2a0
 80018ba:	6010      	str	r0, [r2, #0]
 80018bc:	9837      	ldr	r0, [sp, #220]	@ 0xdc
 80018be:	6051      	str	r1, [r2, #4]
 80018c0:	992c      	ldr	r1, [sp, #176]	@ 0xb0
 80018c2:	7101      	strb	r1, [r0, #4]
 80018c4:	992b      	ldr	r1, [sp, #172]	@ 0xac
 80018c6:	6001      	str	r1, [r0, #0]
 80018c8:	2001      	movs	r0, #1
 80018ca:	e9d9 1504 	ldrd	r1, r5, [r9, #16]
 80018ce:	f8ad 028c 	strh.w	r0, [sp, #652]	@ 0x28c
 80018d2:	982d      	ldr	r0, [sp, #180]	@ 0xb4
 80018d4:	428d      	cmp	r5, r1
 80018d6:	f88d 029a 	strb.w	r0, [sp, #666]	@ 0x29a
 80018da:	f081 8546 	bcs.w	800336a <smoltcp::iface::interface::Interface::poll+0x224e>
 80018de:	f44f 60c6 	mov.w	r0, #1584	@ 0x630
 80018e2:	fb05 f900 	mul.w	r9, r5, r0
 80018e6:	9841      	ldr	r0, [sp, #260]	@ 0x104
 80018e8:	6800      	ldr	r0, [r0, #0]
 80018ea:	f850 2009 	ldr.w	r2, [r0, r9]
 80018ee:	2a00      	cmp	r2, #0
 80018f0:	f101 8542 	bmi.w	8003378 <smoltcp::iface::interface::Interface::poll+0x225c>
 80018f4:	1c6a      	adds	r2, r5, #1
 80018f6:	f8d7 8008 	ldr.w	r8, [r7, #8]
 80018fa:	fbb2 f3f1 	udiv	r3, r2, r1
 80018fe:	fb03 2111 	mls	r1, r3, r1, r2
 8001902:	f44f 62c6 	mov.w	r2, #1584	@ 0x630
 8001906:	9b2c      	ldr	r3, [sp, #176]	@ 0xb0
 8001908:	fb05 0002 	mla	r0, r5, r2, r0
 800190c:	9a44      	ldr	r2, [sp, #272]	@ 0x110
 800190e:	f8c8 1014 	str.w	r1, [r8, #20]
 8001912:	6811      	ldr	r1, [r2, #0]
 8001914:	8892      	ldrh	r2, [r2, #4]
 8001916:	f8c0 103e 	str.w	r1, [r0, #62]	@ 0x3e
 800191a:	f44f 61c1 	mov.w	r1, #1544	@ 0x608
 800191e:	f880 303d 	strb.w	r3, [r0, #61]	@ 0x3d
 8001922:	9b2b      	ldr	r3, [sp, #172]	@ 0xac
 8001924:	f8a0 1044 	strh.w	r1, [r0, #68]	@ 0x44
 8001928:	992d      	ldr	r1, [sp, #180]	@ 0xb4
 800192a:	f8a0 2042 	strh.w	r2, [r0, #66]	@ 0x42
 800192e:	221c      	movs	r2, #28
 8001930:	f880 1038 	strb.w	r1, [r0, #56]	@ 0x38
 8001934:	f100 0146 	add.w	r1, r0, #70	@ 0x46
 8001938:	f8c0 3039 	str.w	r3, [r0, #57]	@ 0x39
 800193c:	a8a3      	add	r0, sp, #652	@ 0x28c
 800193e:	f7fe fc87 	bl	8000250 <smoltcp::wire::arp::Repr::emit>
 8001942:	f8d8 1010 	ldr.w	r1, [r8, #16]
 8001946:	428d      	cmp	r5, r1
 8001948:	f081 8521 	bcs.w	800338e <smoltcp::iface::interface::Interface::poll+0x2272>
 800194c:	f8dd a104 	ldr.w	sl, [sp, #260]	@ 0x104
 8001950:	f44f 61c6 	mov.w	r1, #1584	@ 0x630
 8001954:	232a      	movs	r3, #42	@ 0x2a
 8001956:	f8da 0000 	ldr.w	r0, [sl]
 800195a:	fb05 0101 	mla	r1, r5, r1, r0
 800195e:	684a      	ldr	r2, [r1, #4]
 8001960:	e9d1 ec0a 	ldrd	lr, ip, [r1, #40]	@ 0x28
 8001964:	f363 020b 	bfi	r2, r3, #0, #12
 8001968:	604a      	str	r2, [r1, #4]
 800196a:	2200      	movs	r2, #0
 800196c:	f8c1 e008 	str.w	lr, [r1, #8]
 8001970:	620a      	str	r2, [r1, #32]
 8001972:	2300      	movs	r3, #0
 8001974:	f8c1 c00c 	str.w	ip, [r1, #12]
 8001978:	f2cf 03d0 	movt	r3, #61648	@ 0xf0d0
 800197c:	f3bf 8f5f 	dmb	sy
 8001980:	f891 1030 	ldrb.w	r1, [r1, #48]	@ 0x30
 8001984:	ea43 5141 	orr.w	r1, r3, r1, lsl #21
 8001988:	f840 1009 	str.w	r1, [r0, r9]
 800198c:	f249 0014 	movw	r0, #36884	@ 0x9014
 8001990:	f3bf 8f5f 	dmb	sy
 8001994:	f2c4 0002 	movt	r0, #16386	@ 0x4002
 8001998:	f8d7 9008 	ldr.w	r9, [r7, #8]
 800199c:	f840 2c10 	str.w	r2, [r0, #-16]
 80019a0:	2001      	movs	r0, #1
 80019a2:	e9cd 601b 	strd	r6, r0, [sp, #108]	@ 0x6c
 80019a6:	982b      	ldr	r0, [sp, #172]	@ 0xac
 80019a8:	901f      	str	r0, [sp, #124]	@ 0x7c
 80019aa:	982c      	ldr	r0, [sp, #176]	@ 0xb0
 80019ac:	901e      	str	r0, [sp, #120]	@ 0x78
 80019ae:	982d      	ldr	r0, [sp, #180]	@ 0xb4
 80019b0:	9043      	str	r0, [sp, #268]	@ 0x10c
 80019b2:	941d      	str	r4, [sp, #116]	@ 0x74
 80019b4:	e648      	b.n	8001648 <smoltcp::iface::interface::Interface::poll+0x52c>
 80019b6:	9829      	ldr	r0, [sp, #164]	@ 0xa4
 80019b8:	f000 00f0 	and.w	r0, r0, #240	@ 0xf0
 80019bc:	28e0      	cmp	r0, #224	@ 0xe0
 80019be:	bf1e      	ittt	ne
 80019c0:	9848      	ldrne	r0, [sp, #288]	@ 0x120
 80019c2:	f890 016e 	ldrbne.w	r0, [r0, #366]	@ 0x16e
 80019c6:	ea5f 70c0 	movsne.w	r0, r0, lsl #31
 80019ca:	d107      	bne.n	80019dc <smoltcp::iface::interface::Interface::poll+0x8c0>
 80019cc:	f8d7 9008 	ldr.w	r9, [r7, #8]
 80019d0:	f8dd a104 	ldr.w	sl, [sp, #260]	@ 0x104
 80019d4:	e694      	b.n	8001700 <smoltcp::iface::interface::Interface::poll+0x5e4>
 80019d6:	f8dd a104 	ldr.w	sl, [sp, #260]	@ 0x104
 80019da:	e635      	b.n	8001648 <smoltcp::iface::interface::Interface::poll+0x52c>
 80019dc:	f1bc 0f02 	cmp.w	ip, #2
 80019e0:	d3f4      	bcc.n	80019cc <smoltcp::iface::interface::Interface::poll+0x8b0>
 80019e2:	9848      	ldr	r0, [sp, #288]	@ 0x120
 80019e4:	9a29      	ldr	r2, [sp, #164]	@ 0xa4
 80019e6:	e9d0 0104 	ldrd	r0, r1, [r0, #16]
 80019ea:	e9cd 0100 	strd	r0, r1, [sp]
 80019ee:	a8bc      	add	r0, sp, #752	@ 0x2f0
 80019f0:	9933      	ldr	r1, [sp, #204]	@ 0xcc
 80019f2:	f006 fc8a 	bl	800830a <smoltcp::iface::route::Routes::lookup>
 80019f6:	f89d 02f0 	ldrb.w	r0, [sp, #752]	@ 0x2f0
 80019fa:	2801      	cmp	r0, #1
 80019fc:	d1e6      	bne.n	80019cc <smoltcp::iface::interface::Interface::poll+0x8b0>
 80019fe:	9848      	ldr	r0, [sp, #288]	@ 0x120
 8001a00:	9d42      	ldr	r5, [sp, #264]	@ 0x108
 8001a02:	f8dd 12f1 	ldr.w	r1, [sp, #753]	@ 0x2f1
 8001a06:	f8d0 e0f0 	ldr.w	lr, [r0, #240]	@ 0xf0
 8001a0a:	eb0e 028e 	add.w	r2, lr, lr, lsl #2
 8001a0e:	18ab      	adds	r3, r5, r2
 8001a10:	2a00      	cmp	r2, #0
 8001a12:	d0db      	beq.n	80019cc <smoltcp::iface::interface::Interface::poll+0x8b0>
 8001a14:	4628      	mov	r0, r5
 8001a16:	f850 4b05 	ldr.w	r4, [r0], #5
 8001a1a:	428c      	cmp	r4, r1
 8001a1c:	d017      	beq.n	8001a4e <smoltcp::iface::interface::Interface::poll+0x932>
 8001a1e:	4298      	cmp	r0, r3
 8001a20:	d0d4      	beq.n	80019cc <smoltcp::iface::interface::Interface::poll+0x8b0>
 8001a22:	f8d5 0005 	ldr.w	r0, [r5, #5]
 8001a26:	4288      	cmp	r0, r1
 8001a28:	d011      	beq.n	8001a4e <smoltcp::iface::interface::Interface::poll+0x932>
 8001a2a:	f105 000a 	add.w	r0, r5, #10
 8001a2e:	4298      	cmp	r0, r3
 8001a30:	d0cc      	beq.n	80019cc <smoltcp::iface::interface::Interface::poll+0x8b0>
 8001a32:	f8d5 000a 	ldr.w	r0, [r5, #10]
 8001a36:	4288      	cmp	r0, r1
 8001a38:	d009      	beq.n	8001a4e <smoltcp::iface::interface::Interface::poll+0x932>
 8001a3a:	f105 000f 	add.w	r0, r5, #15
 8001a3e:	4298      	cmp	r0, r3
 8001a40:	d0c4      	beq.n	80019cc <smoltcp::iface::interface::Interface::poll+0x8b0>
 8001a42:	f8d5 000f 	ldr.w	r0, [r5, #15]
 8001a46:	3a14      	subs	r2, #20
 8001a48:	3514      	adds	r5, #20
 8001a4a:	4288      	cmp	r0, r1
 8001a4c:	d1e0      	bne.n	8001a10 <smoltcp::iface::interface::Interface::poll+0x8f4>
 8001a4e:	f8d7 9008 	ldr.w	r9, [r7, #8]
 8001a52:	f8dd a104 	ldr.w	sl, [sp, #260]	@ 0x104
 8001a56:	9c29      	ldr	r4, [sp, #164]	@ 0xa4
 8001a58:	f004 00f0 	and.w	r0, r4, #240	@ 0xf0
 8001a5c:	28e0      	cmp	r0, #224	@ 0xe0
 8001a5e:	d004      	beq.n	8001a6a <smoltcp::iface::interface::Interface::poll+0x94e>
 8001a60:	9829      	ldr	r0, [sp, #164]	@ 0xa4
 8001a62:	3001      	adds	r0, #1
 8001a64:	2802      	cmp	r0, #2
 8001a66:	f080 8157 	bcs.w	8001d18 <smoltcp::iface::interface::Interface::poll+0xbfc>
 8001a6a:	9925      	ldr	r1, [sp, #148]	@ 0x94
 8001a6c:	2904      	cmp	r1, #4
 8001a6e:	f000 80b8 	beq.w	8001be2 <smoltcp::iface::interface::Interface::poll+0xac6>
 8001a72:	2903      	cmp	r1, #3
 8001a74:	d052      	beq.n	8001b1c <smoltcp::iface::interface::Interface::poll+0xa00>
 8001a76:	2901      	cmp	r1, #1
 8001a78:	f040 80c9 	bne.w	8001c0e <smoltcp::iface::interface::Interface::poll+0xaf2>
 8001a7c:	982d      	ldr	r0, [sp, #180]	@ 0xb4
 8001a7e:	9924      	ldr	r1, [sp, #144]	@ 0x90
 8001a80:	2808      	cmp	r0, #8
 8001a82:	bf38      	it	cc
 8001a84:	2100      	movcc	r1, #0
 8001a86:	2807      	cmp	r0, #7
 8001a88:	9124      	str	r1, [sp, #144]	@ 0x90
 8001a8a:	f240 80b9 	bls.w	8001c00 <smoltcp::iface::interface::Interface::poll+0xae4>
 8001a8e:	9848      	ldr	r0, [sp, #288]	@ 0x120
 8001a90:	7ac0      	ldrb	r0, [r0, #11]
 8001a92:	2801      	cmp	r0, #1
 8001a94:	d807      	bhi.n	8001aa6 <smoltcp::iface::interface::Interface::poll+0x98a>
 8001a96:	e9dd 012c 	ldrd	r0, r1, [sp, #176]	@ 0xb0
 8001a9a:	f006 fad0 	bl	800803e <smoltcp::wire::ip::checksum::data>
 8001a9e:	43c0      	mvns	r0, r0
 8001aa0:	0400      	lsls	r0, r0, #16
 8001aa2:	f040 80ad 	bne.w	8001c00 <smoltcp::iface::interface::Interface::poll+0xae4>
 8001aa6:	982c      	ldr	r0, [sp, #176]	@ 0xb0
 8001aa8:	7800      	ldrb	r0, [r0, #0]
 8001aaa:	280b      	cmp	r0, #11
 8001aac:	f200 80a8 	bhi.w	8001c00 <smoltcp::iface::interface::Interface::poll+0xae4>
 8001ab0:	e8df f010 	tbh	[pc, r0, lsl #1]
 8001ab4:	00a60218 	.word	0x00a60218
 8001ab8:	000c00a6 	.word	0x000c00a6
 8001abc:	00a600a6 	.word	0x00a600a6
 8001ac0:	00a600a6 	.word	0x00a600a6
 8001ac4:	00a6022b 	.word	0x00a6022b
 8001ac8:	000c00a6 	.word	0x000c00a6
 8001acc:	982d      	ldr	r0, [sp, #180]	@ 0xb4
 8001ace:	f1a0 0108 	sub.w	r1, r0, #8
 8001ad2:	2914      	cmp	r1, #20
 8001ad4:	f0c0 8094 	bcc.w	8001c00 <smoltcp::iface::interface::Interface::poll+0xae4>
 8001ad8:	9824      	ldr	r0, [sp, #144]	@ 0x90
 8001ada:	233c      	movs	r3, #60	@ 0x3c
 8001adc:	3008      	adds	r0, #8
 8001ade:	7802      	ldrb	r2, [r0, #0]
 8001ae0:	ea03 0282 	and.w	r2, r3, r2, lsl #2
 8001ae4:	4291      	cmp	r1, r2
 8001ae6:	f0c0 808b 	bcc.w	8001c00 <smoltcp::iface::interface::Interface::poll+0xae4>
 8001aea:	9b2c      	ldr	r3, [sp, #176]	@ 0xb0
 8001aec:	895b      	ldrh	r3, [r3, #10]
 8001aee:	ba1b      	rev	r3, r3
 8001af0:	ebb2 4f13 	cmp.w	r2, r3, lsr #16
 8001af4:	f200 8084 	bhi.w	8001c00 <smoltcp::iface::interface::Interface::poll+0xae4>
 8001af8:	0c1b      	lsrs	r3, r3, #16
 8001afa:	4299      	cmp	r1, r3
 8001afc:	bf24      	itt	cs
 8001afe:	1a89      	subcs	r1, r1, r2
 8001b00:	2908      	cmpcs	r1, #8
 8001b02:	d37d      	bcc.n	8001c00 <smoltcp::iface::interface::Interface::poll+0xae4>
 8001b04:	992c      	ldr	r1, [sp, #176]	@ 0xb0
 8001b06:	4410      	add	r0, r2
 8001b08:	901a      	str	r0, [sp, #104]	@ 0x68
 8001b0a:	2004      	movs	r0, #4
 8001b0c:	9055      	str	r0, [sp, #340]	@ 0x154
 8001b0e:	9815      	ldr	r0, [sp, #84]	@ 0x54
 8001b10:	7849      	ldrb	r1, [r1, #1]
 8001b12:	f020 00ff 	bic.w	r0, r0, #255	@ 0xff
 8001b16:	4408      	add	r0, r1
 8001b18:	9015      	str	r0, [sp, #84]	@ 0x54
 8001b1a:	e073      	b.n	8001c04 <smoltcp::iface::interface::Interface::poll+0xae8>
 8001b1c:	982d      	ldr	r0, [sp, #180]	@ 0xb4
 8001b1e:	2814      	cmp	r0, #20
 8001b20:	d36e      	bcc.n	8001c00 <smoltcp::iface::interface::Interface::poll+0xae4>
 8001b22:	982c      	ldr	r0, [sp, #176]	@ 0xb0
 8001b24:	213c      	movs	r1, #60	@ 0x3c
 8001b26:	8985      	ldrh	r5, [r0, #12]
 8001b28:	b2e8      	uxtb	r0, r5
 8001b2a:	2850      	cmp	r0, #80	@ 0x50
 8001b2c:	f04f 0000 	mov.w	r0, #0
 8001b30:	ea01 0695 	and.w	r6, r1, r5, lsr #2
 8001b34:	bf38      	it	cc
 8001b36:	2001      	movcc	r0, #1
 8001b38:	992d      	ldr	r1, [sp, #180]	@ 0xb4
 8001b3a:	42b1      	cmp	r1, r6
 8001b3c:	f04f 0100 	mov.w	r1, #0
 8001b40:	bf38      	it	cc
 8001b42:	2101      	movcc	r1, #1
 8001b44:	4308      	orrs	r0, r1
 8001b46:	2801      	cmp	r0, #1
 8001b48:	d05a      	beq.n	8001c00 <smoltcp::iface::interface::Interface::poll+0xae4>
 8001b4a:	982c      	ldr	r0, [sp, #176]	@ 0xb0
 8001b4c:	8800      	ldrh	r0, [r0, #0]
 8001b4e:	2800      	cmp	r0, #0
 8001b50:	bf1e      	ittt	ne
 8001b52:	982c      	ldrne	r0, [sp, #176]	@ 0xb0
 8001b54:	8840      	ldrhne	r0, [r0, #2]
 8001b56:	2800      	cmpne	r0, #0
 8001b58:	d052      	beq.n	8001c00 <smoltcp::iface::interface::Interface::poll+0xae4>
 8001b5a:	9848      	ldr	r0, [sp, #288]	@ 0x120
 8001b5c:	7a80      	ldrb	r0, [r0, #10]
 8001b5e:	2801      	cmp	r0, #1
 8001b60:	d832      	bhi.n	8001bc8 <smoltcp::iface::interface::Interface::poll+0xaac>
 8001b62:	9829      	ldr	r0, [sp, #164]	@ 0xa4
 8001b64:	ba00      	rev	r0, r0
 8001b66:	0c01      	lsrs	r1, r0, #16
 8001b68:	fa11 f080 	uxtah	r0, r1, r0
 8001b6c:	0c01      	lsrs	r1, r0, #16
 8001b6e:	fa11 f080 	uxtah	r0, r1, r0
 8001b72:	9927      	ldr	r1, [sp, #156]	@ 0x9c
 8001b74:	eb00 4010 	add.w	r0, r0, r0, lsr #16
 8001b78:	ba09      	rev	r1, r1
 8001b7a:	b280      	uxth	r0, r0
 8001b7c:	0c0a      	lsrs	r2, r1, #16
 8001b7e:	fa12 f181 	uxtah	r1, r2, r1
 8001b82:	0c0a      	lsrs	r2, r1, #16
 8001b84:	fa12 f181 	uxtah	r1, r2, r1
 8001b88:	eb01 4111 	add.w	r1, r1, r1, lsr #16
 8001b8c:	fa10 f081 	uxtah	r0, r0, r1
 8001b90:	992d      	ldr	r1, [sp, #180]	@ 0xb4
 8001b92:	1d8b      	adds	r3, r1, #6
 8001b94:	0c1a      	lsrs	r2, r3, #16
 8001b96:	fa12 f283 	uxtah	r2, r2, r3
 8001b9a:	eb02 4212 	add.w	r2, r2, r2, lsr #16
 8001b9e:	fa10 f082 	uxtah	r0, r0, r2
 8001ba2:	0c02      	lsrs	r2, r0, #16
 8001ba4:	fa12 f080 	uxtah	r0, r2, r0
 8001ba8:	eb00 4010 	add.w	r0, r0, r0, lsr #16
 8001bac:	b284      	uxth	r4, r0
 8001bae:	982c      	ldr	r0, [sp, #176]	@ 0xb0
 8001bb0:	f006 fa45 	bl	800803e <smoltcp::wire::ip::checksum::data>
 8001bb4:	fa14 f080 	uxtah	r0, r4, r0
 8001bb8:	0c01      	lsrs	r1, r0, #16
 8001bba:	fa11 f080 	uxtah	r0, r1, r0
 8001bbe:	eb00 4010 	add.w	r0, r0, r0, lsr #16
 8001bc2:	43c0      	mvns	r0, r0
 8001bc4:	0400      	lsls	r0, r0, #16
 8001bc6:	d11b      	bne.n	8001c00 <smoltcp::iface::interface::Interface::poll+0xae4>
 8001bc8:	05a8      	lsls	r0, r5, #22
 8001bca:	f100 8218 	bmi.w	8001ffe <smoltcp::iface::interface::Interface::poll+0xee2>
 8001bce:	05e8      	lsls	r0, r5, #23
 8001bd0:	f100 821b 	bmi.w	800200a <smoltcp::iface::interface::Interface::poll+0xeee>
 8001bd4:	0568      	lsls	r0, r5, #21
 8001bd6:	f04f 0004 	mov.w	r0, #4
 8001bda:	bf58      	it	pl
 8001bdc:	f3c5 20c0 	ubfxpl	r0, r5, #11, #1
 8001be0:	e217      	b.n	8002012 <smoltcp::iface::interface::Interface::poll+0xef6>
 8001be2:	982d      	ldr	r0, [sp, #180]	@ 0xb4
 8001be4:	2808      	cmp	r0, #8
 8001be6:	d30b      	bcc.n	8001c00 <smoltcp::iface::interface::Interface::poll+0xae4>
 8001be8:	982c      	ldr	r0, [sp, #176]	@ 0xb0
 8001bea:	8880      	ldrh	r0, [r0, #4]
 8001bec:	ba00      	rev	r0, r0
 8001bee:	ea4f 4910 	mov.w	r9, r0, lsr #16
 8001bf2:	f1b9 0f08 	cmp.w	r9, #8
 8001bf6:	bf24      	itt	cs
 8001bf8:	982d      	ldrcs	r0, [sp, #180]	@ 0xb4
 8001bfa:	4548      	cmpcs	r0, r9
 8001bfc:	f080 80e8 	bcs.w	8001dd0 <smoltcp::iface::interface::Interface::poll+0xcb4>
 8001c00:	2004      	movs	r0, #4
 8001c02:	9055      	str	r0, [sp, #340]	@ 0x154
 8001c04:	f8d7 9008 	ldr.w	r9, [r7, #8]
 8001c08:	f8dd a104 	ldr.w	sl, [sp, #260]	@ 0x104
 8001c0c:	e021      	b.n	8001c52 <smoltcp::iface::interface::Interface::poll+0xb36>
 8001c0e:	9828      	ldr	r0, [sp, #160]	@ 0xa0
 8001c10:	f8ad 01d2 	strh.w	r0, [sp, #466]	@ 0x1d2
 8001c14:	9822      	ldr	r0, [sp, #136]	@ 0x88
 8001c16:	f88d 01d0 	strb.w	r0, [sp, #464]	@ 0x1d0
 8001c1a:	9823      	ldr	r0, [sp, #140]	@ 0x8c
 8001c1c:	9073      	str	r0, [sp, #460]	@ 0x1cc
 8001c1e:	f240 2002 	movw	r0, #514	@ 0x202
 8001c22:	f8ad 01b8 	strh.w	r0, [sp, #440]	@ 0x1b8
 8001c26:	982c      	ldr	r0, [sp, #176]	@ 0xb0
 8001c28:	9e2d      	ldr	r6, [sp, #180]	@ 0xb4
 8001c2a:	9b29      	ldr	r3, [sp, #164]	@ 0xa4
 8001c2c:	9a27      	ldr	r2, [sp, #156]	@ 0x9c
 8001c2e:	f5b6 7f04 	cmp.w	r6, #528	@ 0x210
 8001c32:	906f      	str	r0, [sp, #444]	@ 0x1bc
 8001c34:	f44f 7004 	mov.w	r0, #528	@ 0x210
 8001c38:	f88d 11d1 	strb.w	r1, [sp, #465]	@ 0x1d1
 8001c3c:	9372      	str	r3, [sp, #456]	@ 0x1c8
 8001c3e:	9271      	str	r2, [sp, #452]	@ 0x1c4
 8001c40:	bf28      	it	cs
 8001c42:	4606      	movcs	r6, r0
 8001c44:	a86e      	add	r0, sp, #440	@ 0x1b8
 8001c46:	9948      	ldr	r1, [sp, #288]	@ 0x120
 8001c48:	9000      	str	r0, [sp, #0]
 8001c4a:	a855      	add	r0, sp, #340	@ 0x154
 8001c4c:	9670      	str	r6, [sp, #448]	@ 0x1c0
 8001c4e:	f005 fea2 	bl	8007996 <smoltcp::iface::interface::ipv4::<impl smoltcp::iface::interface::InterfaceInner>::icmpv4_reply>
 8001c52:	9c55      	ldr	r4, [sp, #340]	@ 0x154
 8001c54:	f8dd 811c 	ldr.w	r8, [sp, #284]	@ 0x11c
 8001c58:	9e2e      	ldr	r6, [sp, #184]	@ 0xb8
 8001c5a:	2c04      	cmp	r4, #4
 8001c5c:	f43f abc2 	beq.w	80013e4 <smoltcp::iface::interface::Interface::poll+0x2c8>
 8001c60:	993e      	ldr	r1, [sp, #248]	@ 0xf8
 8001c62:	f8dd 0162 	ldr.w	r0, [sp, #354]	@ 0x162
 8001c66:	901d      	str	r0, [sp, #116]	@ 0x74
 8001c68:	f89d 0166 	ldrb.w	r0, [sp, #358]	@ 0x166
 8001c6c:	9043      	str	r0, [sp, #268]	@ 0x10c
 8001c6e:	6808      	ldr	r0, [r1, #0]
 8001c70:	6849      	ldr	r1, [r1, #4]
 8001c72:	9a3f      	ldr	r2, [sp, #252]	@ 0xfc
 8001c74:	f8bd b158 	ldrh.w	fp, [sp, #344]	@ 0x158
 8001c78:	e9cd 0152 	strd	r0, r1, [sp, #328]	@ 0x148
 8001c7c:	a8a3      	add	r0, sp, #652	@ 0x28c
 8001c7e:	9940      	ldr	r1, [sp, #256]	@ 0x100
 8001c80:	7913      	ldrb	r3, [r2, #4]
 8001c82:	6812      	ldr	r2, [r2, #0]
 8001c84:	921f      	str	r2, [sp, #124]	@ 0x7c
 8001c86:	2248      	movs	r2, #72	@ 0x48
 8001c88:	931e      	str	r3, [sp, #120]	@ 0x78
 8001c8a:	9d5b      	ldr	r5, [sp, #364]	@ 0x16c
 8001c8c:	f006 fe07 	bl	800889e <__aeabi_memcpy4>
 8001c90:	2c05      	cmp	r4, #5
 8001c92:	e9cd 5b1b 	strd	r5, fp, [sp, #108]	@ 0x6c
 8001c96:	d03c      	beq.n	8001d12 <smoltcp::iface::interface::Interface::poll+0xbf6>
 8001c98:	9a39      	ldr	r2, [sp, #228]	@ 0xe4
 8001c9a:	e9dd 0152 	ldrd	r0, r1, [sp, #328]	@ 0x148
 8001c9e:	f8ad b2f4 	strh.w	fp, [sp, #756]	@ 0x2f4
 8001ca2:	6010      	str	r0, [r2, #0]
 8001ca4:	983a      	ldr	r0, [sp, #232]	@ 0xe8
 8001ca6:	6051      	str	r1, [r2, #4]
 8001ca8:	2248      	movs	r2, #72	@ 0x48
 8001caa:	991f      	ldr	r1, [sp, #124]	@ 0x7c
 8001cac:	6001      	str	r1, [r0, #0]
 8001cae:	991e      	ldr	r1, [sp, #120]	@ 0x78
 8001cb0:	7101      	strb	r1, [r0, #4]
 8001cb2:	a9a3      	add	r1, sp, #652	@ 0x28c
 8001cb4:	9843      	ldr	r0, [sp, #268]	@ 0x10c
 8001cb6:	f88d 0302 	strb.w	r0, [sp, #770]	@ 0x302
 8001cba:	981d      	ldr	r0, [sp, #116]	@ 0x74
 8001cbc:	f8cd 02fe 	str.w	r0, [sp, #766]	@ 0x2fe
 8001cc0:	983b      	ldr	r0, [sp, #236]	@ 0xec
 8001cc2:	94bc      	str	r4, [sp, #752]	@ 0x2f0
 8001cc4:	95c2      	str	r5, [sp, #776]	@ 0x308
 8001cc6:	f006 fdea 	bl	800889e <__aeabi_memcpy4>
 8001cca:	9848      	ldr	r0, [sp, #288]	@ 0x120
 8001ccc:	a94a      	add	r1, sp, #296	@ 0x128
 8001cce:	abbc      	add	r3, sp, #752	@ 0x2f0
 8001cd0:	2200      	movs	r2, #0
 8001cd2:	f7fe fb43 	bl	800035c <smoltcp::iface::interface::InterfaceInner::dispatch_ip>
 8001cd6:	b2c4      	uxtb	r4, r0
 8001cd8:	2c02      	cmp	r4, #2
 8001cda:	d01a      	beq.n	8001d12 <smoltcp::iface::interface::Interface::poll+0xbf6>
 8001cdc:	f240 0023 	movw	r0, #35	@ 0x23
 8001ce0:	f2c0 0000 	movt	r0, #0
 8001ce4:	f002 fb28 	bl	8004338 <defmt::export::acquire_and_header>
 8001ce8:	f240 003e 	movw	r0, #62	@ 0x3e
 8001cec:	adbc      	add	r5, sp, #752	@ 0x2f0
 8001cee:	f2c0 0000 	movt	r0, #0
 8001cf2:	2102      	movs	r1, #2
 8001cf4:	f8ad 02f0 	strh.w	r0, [sp, #752]	@ 0x2f0
 8001cf8:	4628      	mov	r0, r5
 8001cfa:	f002 fccf 	bl	800469c <_defmt_write>
 8001cfe:	f004 0001 	and.w	r0, r4, #1
 8001d02:	f88d 02f0 	strb.w	r0, [sp, #752]	@ 0x2f0
 8001d06:	4628      	mov	r0, r5
 8001d08:	2101      	movs	r1, #1
 8001d0a:	f002 fcc7 	bl	800469c <_defmt_write>
 8001d0e:	f002 fc4d 	bl	80045ac <_defmt_release>
 8001d12:	9e2e      	ldr	r6, [sp, #184]	@ 0xb8
 8001d14:	f7ff bb66 	b.w	80013e4 <smoltcp::iface::interface::Interface::poll+0x2c8>
 8001d18:	f1be 0f00 	cmp.w	lr, #0
 8001d1c:	d027      	beq.n	8001d6e <smoltcp::iface::interface::Interface::poll+0xc52>
 8001d1e:	9942      	ldr	r1, [sp, #264]	@ 0x108
 8001d20:	eb0e 008e 	add.w	r0, lr, lr, lsl #2
 8001d24:	4408      	add	r0, r1
 8001d26:	e010      	b.n	8001d4a <smoltcp::iface::interface::Interface::poll+0xc2e>
 8001d28:	2500      	movs	r5, #0
 8001d2a:	f002 021f 	and.w	r2, r2, #31
 8001d2e:	402b      	ands	r3, r5
 8001d30:	f04f 35ff 	mov.w	r5, #4294967295	@ 0xffffffff
 8001d34:	9c29      	ldr	r4, [sp, #164]	@ 0xa4
 8001d36:	fa25 f202 	lsr.w	r2, r5, r2
 8001d3a:	ba12      	rev	r2, r2
 8001d3c:	431a      	orrs	r2, r3
 8001d3e:	4294      	cmp	r4, r2
 8001d40:	f43f ae93 	beq.w	8001a6a <smoltcp::iface::interface::Interface::poll+0x94e>
 8001d44:	3105      	adds	r1, #5
 8001d46:	4281      	cmp	r1, r0
 8001d48:	d011      	beq.n	8001d6e <smoltcp::iface::interface::Interface::poll+0xc52>
 8001d4a:	790a      	ldrb	r2, [r1, #4]
 8001d4c:	680b      	ldr	r3, [r1, #0]
 8001d4e:	2a00      	cmp	r2, #0
 8001d50:	d0ea      	beq.n	8001d28 <smoltcp::iface::interface::Interface::poll+0xc0c>
 8001d52:	f1a2 051f 	sub.w	r5, r2, #31
 8001d56:	b2ed      	uxtb	r5, r5
 8001d58:	2d02      	cmp	r5, #2
 8001d5a:	d3f3      	bcc.n	8001d44 <smoltcp::iface::interface::Interface::poll+0xc28>
 8001d5c:	4255      	negs	r5, r2
 8001d5e:	f04f 34ff 	mov.w	r4, #4294967295	@ 0xffffffff
 8001d62:	f005 051f 	and.w	r5, r5, #31
 8001d66:	fa04 f505 	lsl.w	r5, r4, r5
 8001d6a:	ba2d      	rev	r5, r5
 8001d6c:	e7dd      	b.n	8001d2a <smoltcp::iface::interface::Interface::poll+0xc0e>
 8001d6e:	9848      	ldr	r0, [sp, #288]	@ 0x120
 8001d70:	2200      	movs	r2, #0
 8001d72:	e9d0 ec04 	ldrd	lr, ip, [r0, #16]
 8001d76:	f8d0 00e0 	ldr.w	r0, [r0, #224]	@ 0xe0
 8001d7a:	eba0 0080 	sub.w	r0, r0, r0, lsl #2
 8001d7e:	00c3      	lsls	r3, r0, #3
 8001d80:	1898      	adds	r0, r3, r2
 8001d82:	f43f ae72 	beq.w	8001a6a <smoltcp::iface::interface::Interface::poll+0x94e>
 8001d86:	9d48      	ldr	r5, [sp, #288]	@ 0x120
 8001d88:	9927      	ldr	r1, [sp, #156]	@ 0x9c
 8001d8a:	4415      	add	r5, r2
 8001d8c:	6a2c      	ldr	r4, [r5, #32]
 8001d8e:	428c      	cmp	r4, r1
 8001d90:	f000 8106 	beq.w	8001fa0 <smoltcp::iface::interface::Interface::poll+0xe84>
 8001d94:	f110 0418 	adds.w	r4, r0, #24
 8001d98:	f43f ae67 	beq.w	8001a6a <smoltcp::iface::interface::Interface::poll+0x94e>
 8001d9c:	6bac      	ldr	r4, [r5, #56]	@ 0x38
 8001d9e:	9927      	ldr	r1, [sp, #156]	@ 0x9c
 8001da0:	428c      	cmp	r4, r1
 8001da2:	f000 8100 	beq.w	8001fa6 <smoltcp::iface::interface::Interface::poll+0xe8a>
 8001da6:	f110 0430 	adds.w	r4, r0, #48	@ 0x30
 8001daa:	f43f ae5e 	beq.w	8001a6a <smoltcp::iface::interface::Interface::poll+0x94e>
 8001dae:	6d2c      	ldr	r4, [r5, #80]	@ 0x50
 8001db0:	9927      	ldr	r1, [sp, #156]	@ 0x9c
 8001db2:	428c      	cmp	r4, r1
 8001db4:	f000 80fa 	beq.w	8001fac <smoltcp::iface::interface::Interface::poll+0xe90>
 8001db8:	3048      	adds	r0, #72	@ 0x48
 8001dba:	f43f ae56 	beq.w	8001a6a <smoltcp::iface::interface::Interface::poll+0x94e>
 8001dbe:	6ea8      	ldr	r0, [r5, #104]	@ 0x68
 8001dc0:	3260      	adds	r2, #96	@ 0x60
 8001dc2:	9d27      	ldr	r5, [sp, #156]	@ 0x9c
 8001dc4:	42a8      	cmp	r0, r5
 8001dc6:	d1db      	bne.n	8001d80 <smoltcp::iface::interface::Interface::poll+0xc64>
 8001dc8:	9848      	ldr	r0, [sp, #288]	@ 0x120
 8001dca:	4410      	add	r0, r2
 8001dcc:	3008      	adds	r0, #8
 8001dce:	e0ef      	b.n	8001fb0 <smoltcp::iface::interface::Interface::poll+0xe94>
 8001dd0:	982c      	ldr	r0, [sp, #176]	@ 0xb0
 8001dd2:	8845      	ldrh	r5, [r0, #2]
 8001dd4:	2d00      	cmp	r5, #0
 8001dd6:	f43f af13 	beq.w	8001c00 <smoltcp::iface::interface::Interface::poll+0xae4>
 8001dda:	9848      	ldr	r0, [sp, #288]	@ 0x120
 8001ddc:	7a40      	ldrb	r0, [r0, #9]
 8001dde:	2801      	cmp	r0, #1
 8001de0:	d837      	bhi.n	8001e52 <smoltcp::iface::interface::Interface::poll+0xd36>
 8001de2:	982c      	ldr	r0, [sp, #176]	@ 0xb0
 8001de4:	88c0      	ldrh	r0, [r0, #6]
 8001de6:	b3a0      	cbz	r0, 8001e52 <smoltcp::iface::interface::Interface::poll+0xd36>
 8001de8:	9829      	ldr	r0, [sp, #164]	@ 0xa4
 8001dea:	ba00      	rev	r0, r0
 8001dec:	0c01      	lsrs	r1, r0, #16
 8001dee:	fa11 f080 	uxtah	r0, r1, r0
 8001df2:	0c01      	lsrs	r1, r0, #16
 8001df4:	fa11 f080 	uxtah	r0, r1, r0
 8001df8:	f109 0111 	add.w	r1, r9, #17
 8001dfc:	eb00 4010 	add.w	r0, r0, r0, lsr #16
 8001e00:	0c0a      	lsrs	r2, r1, #16
 8001e02:	fa12 f181 	uxtah	r1, r2, r1
 8001e06:	b280      	uxth	r0, r0
 8001e08:	eb01 4111 	add.w	r1, r1, r1, lsr #16
 8001e0c:	fa10 f081 	uxtah	r0, r0, r1
 8001e10:	9927      	ldr	r1, [sp, #156]	@ 0x9c
 8001e12:	ba09      	rev	r1, r1
 8001e14:	0c0a      	lsrs	r2, r1, #16
 8001e16:	fa12 f181 	uxtah	r1, r2, r1
 8001e1a:	0c0a      	lsrs	r2, r1, #16
 8001e1c:	fa12 f181 	uxtah	r1, r2, r1
 8001e20:	eb01 4111 	add.w	r1, r1, r1, lsr #16
 8001e24:	fa10 f081 	uxtah	r0, r0, r1
 8001e28:	0c01      	lsrs	r1, r0, #16
 8001e2a:	fa11 f080 	uxtah	r0, r1, r0
 8001e2e:	4649      	mov	r1, r9
 8001e30:	eb00 4010 	add.w	r0, r0, r0, lsr #16
 8001e34:	b284      	uxth	r4, r0
 8001e36:	982c      	ldr	r0, [sp, #176]	@ 0xb0
 8001e38:	f006 f901 	bl	800803e <smoltcp::wire::ip::checksum::data>
 8001e3c:	fa14 f080 	uxtah	r0, r4, r0
 8001e40:	0c01      	lsrs	r1, r0, #16
 8001e42:	fa11 f080 	uxtah	r0, r1, r0
 8001e46:	eb00 4010 	add.w	r0, r0, r0, lsr #16
 8001e4a:	43c0      	mvns	r0, r0
 8001e4c:	0400      	lsls	r0, r0, #16
 8001e4e:	f47f aed7 	bne.w	8001c00 <smoltcp::iface::interface::Interface::poll+0xae4>
 8001e52:	982c      	ldr	r0, [sp, #176]	@ 0xb0
 8001e54:	f44f 71a8 	mov.w	r1, #336	@ 0x150
 8001e58:	9a26      	ldr	r2, [sp, #152]	@ 0x98
 8001e5a:	fb08 2401 	mla	r4, r8, r1, r2
 8001e5e:	ba6e      	rev16	r6, r5
 8001e60:	8800      	ldrh	r0, [r0, #0]
 8001e62:	ba00      	rev	r0, r0
 8001e64:	ea4f 4810 	mov.w	r8, r0, lsr #16
 8001e68:	e00c      	b.n	8001e84 <smoltcp::iface::interface::Interface::poll+0xd68>
 8001e6a:	9026      	str	r0, [sp, #152]	@ 0x98
 8001e6c:	4608      	mov	r0, r1
 8001e6e:	f100 0508 	add.w	r5, r0, #8
 8001e72:	9948      	ldr	r1, [sp, #288]	@ 0x120
 8001e74:	9a29      	ldr	r2, [sp, #164]	@ 0xa4
 8001e76:	4633      	mov	r3, r6
 8001e78:	4628      	mov	r0, r5
 8001e7a:	f005 ffd8 	bl	8007e2e <smoltcp::socket::udp::Socket::accepts>
 8001e7e:	2800      	cmp	r0, #0
 8001e80:	f040 80af 	bne.w	8001fe2 <smoltcp::iface::interface::Interface::poll+0xec6>
 8001e84:	9926      	ldr	r1, [sp, #152]	@ 0x98
 8001e86:	42a1      	cmp	r1, r4
 8001e88:	d066      	beq.n	8001f58 <smoltcp::iface::interface::Interface::poll+0xe3c>
 8001e8a:	e9d1 0200 	ldrd	r0, r2, [r1]
 8001e8e:	f080 0002 	eor.w	r0, r0, #2
 8001e92:	4310      	orrs	r0, r2
 8001e94:	f501 70a8 	add.w	r0, r1, #336	@ 0x150
 8001e98:	d0e7      	beq.n	8001e6a <smoltcp::iface::interface::Interface::poll+0xd4e>
 8001e9a:	42a0      	cmp	r0, r4
 8001e9c:	d05c      	beq.n	8001f58 <smoltcp::iface::interface::Interface::poll+0xe3c>
 8001e9e:	e9d1 2354 	ldrd	r2, r3, [r1, #336]	@ 0x150
 8001ea2:	f082 0202 	eor.w	r2, r2, #2
 8001ea6:	431a      	orrs	r2, r3
 8001ea8:	f501 7228 	add.w	r2, r1, #672	@ 0x2a0
 8001eac:	d101      	bne.n	8001eb2 <smoltcp::iface::interface::Interface::poll+0xd96>
 8001eae:	9226      	str	r2, [sp, #152]	@ 0x98
 8001eb0:	e7dd      	b.n	8001e6e <smoltcp::iface::interface::Interface::poll+0xd52>
 8001eb2:	42a2      	cmp	r2, r4
 8001eb4:	d050      	beq.n	8001f58 <smoltcp::iface::interface::Interface::poll+0xe3c>
 8001eb6:	e9d1 03a8 	ldrd	r0, r3, [r1, #672]	@ 0x2a0
 8001eba:	f080 0002 	eor.w	r0, r0, #2
 8001ebe:	4318      	orrs	r0, r3
 8001ec0:	f501 707c 	add.w	r0, r1, #1008	@ 0x3f0
 8001ec4:	d102      	bne.n	8001ecc <smoltcp::iface::interface::Interface::poll+0xdb0>
 8001ec6:	9026      	str	r0, [sp, #152]	@ 0x98
 8001ec8:	4610      	mov	r0, r2
 8001eca:	e7d0      	b.n	8001e6e <smoltcp::iface::interface::Interface::poll+0xd52>
 8001ecc:	42a0      	cmp	r0, r4
 8001ece:	d043      	beq.n	8001f58 <smoltcp::iface::interface::Interface::poll+0xe3c>
 8001ed0:	e9d1 23fc 	ldrd	r2, r3, [r1, #1008]	@ 0x3f0
 8001ed4:	f501 61a8 	add.w	r1, r1, #1344	@ 0x540
 8001ed8:	9126      	str	r1, [sp, #152]	@ 0x98
 8001eda:	f082 0202 	eor.w	r2, r2, #2
 8001ede:	431a      	orrs	r2, r3
 8001ee0:	d1d0      	bne.n	8001e84 <smoltcp::iface::interface::Interface::poll+0xd68>
 8001ee2:	e7c4      	b.n	8001e6e <smoltcp::iface::interface::Interface::poll+0xd52>
 8001ee4:	982c      	ldr	r0, [sp, #176]	@ 0xb0
 8001ee6:	7840      	ldrb	r0, [r0, #1]
 8001ee8:	2800      	cmp	r0, #0
 8001eea:	f47f ae89 	bne.w	8001c00 <smoltcp::iface::interface::Interface::poll+0xae4>
 8001eee:	9a2c      	ldr	r2, [sp, #176]	@ 0xb0
 8001ef0:	2104      	movs	r1, #4
 8001ef2:	9155      	str	r1, [sp, #340]	@ 0x154
 8001ef4:	88d0      	ldrh	r0, [r2, #6]
 8001ef6:	8891      	ldrh	r1, [r2, #4]
 8001ef8:	ba00      	rev	r0, r0
 8001efa:	9a1a      	ldr	r2, [sp, #104]	@ 0x68
 8001efc:	eac2 4220 	pkhtb	r2, r2, r0, asr #16
 8001f00:	ba08      	rev	r0, r1
 8001f02:	921a      	str	r2, [sp, #104]	@ 0x68
 8001f04:	0c00      	lsrs	r0, r0, #16
 8001f06:	9015      	str	r0, [sp, #84]	@ 0x54
 8001f08:	e67c      	b.n	8001c04 <smoltcp::iface::interface::Interface::poll+0xae8>
 8001f0a:	982c      	ldr	r0, [sp, #176]	@ 0xb0
 8001f0c:	7840      	ldrb	r0, [r0, #1]
 8001f0e:	2800      	cmp	r0, #0
 8001f10:	f47f ae76 	bne.w	8001c00 <smoltcp::iface::interface::Interface::poll+0xae4>
 8001f14:	982d      	ldr	r0, [sp, #180]	@ 0xb4
 8001f16:	2101      	movs	r1, #1
 8001f18:	9a2c      	ldr	r2, [sp, #176]	@ 0xb0
 8001f1a:	3808      	subs	r0, #8
 8001f1c:	90bf      	str	r0, [sp, #764]	@ 0x2fc
 8001f1e:	9824      	ldr	r0, [sp, #144]	@ 0x90
 8001f20:	9b29      	ldr	r3, [sp, #164]	@ 0xa4
 8001f22:	3008      	adds	r0, #8
 8001f24:	90be      	str	r0, [sp, #760]	@ 0x2f8
 8001f26:	88d0      	ldrh	r0, [r2, #6]
 8001f28:	f88d 12f0 	strb.w	r1, [sp, #752]	@ 0x2f0
 8001f2c:	ba04      	rev	r4, r0
 8001f2e:	8891      	ldrh	r1, [r2, #4]
 8001f30:	9a27      	ldr	r2, [sp, #156]	@ 0x9c
 8001f32:	0c20      	lsrs	r0, r4, #16
 8001f34:	f8ad 02f4 	strh.w	r0, [sp, #756]	@ 0x2f4
 8001f38:	ba08      	rev	r0, r1
 8001f3a:	9948      	ldr	r1, [sp, #288]	@ 0x120
 8001f3c:	0c00      	lsrs	r0, r0, #16
 8001f3e:	9015      	str	r0, [sp, #84]	@ 0x54
 8001f40:	f8ad 02f2 	strh.w	r0, [sp, #754]	@ 0x2f2
 8001f44:	a8bc      	add	r0, sp, #752	@ 0x2f0
 8001f46:	9000      	str	r0, [sp, #0]
 8001f48:	a855      	add	r0, sp, #340	@ 0x154
 8001f4a:	f005 fd24 	bl	8007996 <smoltcp::iface::interface::ipv4::<impl smoltcp::iface::interface::InterfaceInner>::icmpv4_reply>
 8001f4e:	981a      	ldr	r0, [sp, #104]	@ 0x68
 8001f50:	eac0 4024 	pkhtb	r0, r0, r4, asr #16
 8001f54:	901a      	str	r0, [sp, #104]	@ 0x68
 8001f56:	e655      	b.n	8001c04 <smoltcp::iface::interface::Interface::poll+0xae8>
 8001f58:	9828      	ldr	r0, [sp, #160]	@ 0xa0
 8001f5a:	f8ad 030a 	strh.w	r0, [sp, #778]	@ 0x30a
 8001f5e:	2004      	movs	r0, #4
 8001f60:	f88d 0309 	strb.w	r0, [sp, #777]	@ 0x309
 8001f64:	9822      	ldr	r0, [sp, #136]	@ 0x88
 8001f66:	f88d 0308 	strb.w	r0, [sp, #776]	@ 0x308
 8001f6a:	9823      	ldr	r0, [sp, #140]	@ 0x8c
 8001f6c:	90c1      	str	r0, [sp, #772]	@ 0x304
 8001f6e:	f240 3002 	movw	r0, #770	@ 0x302
 8001f72:	f8ad 02f0 	strh.w	r0, [sp, #752]	@ 0x2f0
 8001f76:	982c      	ldr	r0, [sp, #176]	@ 0xb0
 8001f78:	9e2d      	ldr	r6, [sp, #180]	@ 0xb4
 8001f7a:	9b29      	ldr	r3, [sp, #164]	@ 0xa4
 8001f7c:	9a27      	ldr	r2, [sp, #156]	@ 0x9c
 8001f7e:	f5b6 7f04 	cmp.w	r6, #528	@ 0x210
 8001f82:	90bd      	str	r0, [sp, #756]	@ 0x2f4
 8001f84:	f44f 7004 	mov.w	r0, #528	@ 0x210
 8001f88:	93c0      	str	r3, [sp, #768]	@ 0x300
 8001f8a:	92bf      	str	r2, [sp, #764]	@ 0x2fc
 8001f8c:	bf28      	it	cs
 8001f8e:	4606      	movcs	r6, r0
 8001f90:	a8bc      	add	r0, sp, #752	@ 0x2f0
 8001f92:	9948      	ldr	r1, [sp, #288]	@ 0x120
 8001f94:	9000      	str	r0, [sp, #0]
 8001f96:	a855      	add	r0, sp, #340	@ 0x154
 8001f98:	96be      	str	r6, [sp, #760]	@ 0x2f8
 8001f9a:	f005 fcfc 	bl	8007996 <smoltcp::iface::interface::ipv4::<impl smoltcp::iface::interface::InterfaceInner>::icmpv4_reply>
 8001f9e:	e631      	b.n	8001c04 <smoltcp::iface::interface::Interface::poll+0xae8>
 8001fa0:	f105 0020 	add.w	r0, r5, #32
 8001fa4:	e004      	b.n	8001fb0 <smoltcp::iface::interface::Interface::poll+0xe94>
 8001fa6:	f105 0038 	add.w	r0, r5, #56	@ 0x38
 8001faa:	e001      	b.n	8001fb0 <smoltcp::iface::interface::Interface::poll+0xe94>
 8001fac:	f105 0050 	add.w	r0, r5, #80	@ 0x50
 8001fb0:	992a      	ldr	r1, [sp, #168]	@ 0xa8
 8001fb2:	8a82      	ldrh	r2, [r0, #20]
 8001fb4:	6903      	ldr	r3, [r0, #16]
 8001fb6:	b28d      	uxth	r5, r1
 8001fb8:	992b      	ldr	r1, [sp, #172]	@ 0xac
 8001fba:	f8d7 9008 	ldr.w	r9, [r7, #8]
 8001fbe:	406a      	eors	r2, r5
 8001fc0:	f8dd a104 	ldr.w	sl, [sp, #260]	@ 0x104
 8001fc4:	404b      	eors	r3, r1
 8001fc6:	431a      	orrs	r2, r3
 8001fc8:	f47f ad4f 	bne.w	8001a6a <smoltcp::iface::interface::Interface::poll+0x94e>
 8001fcc:	f248 7200 	movw	r2, #34560	@ 0x8700
 8001fd0:	f2c0 3293 	movt	r2, #915	@ 0x393
 8001fd4:	eb1e 0102 	adds.w	r1, lr, r2
 8001fd8:	f14c 0200 	adc.w	r2, ip, #0
 8001fdc:	e9c0 1202 	strd	r1, r2, [r0, #8]
 8001fe0:	e543      	b.n	8001a6a <smoltcp::iface::interface::Interface::poll+0x94e>
 8001fe2:	9924      	ldr	r1, [sp, #144]	@ 0x90
 8001fe4:	f1a9 0008 	sub.w	r0, r9, #8
 8001fe8:	9a27      	ldr	r2, [sp, #156]	@ 0x9c
 8001fea:	3108      	adds	r1, #8
 8001fec:	9b29      	ldr	r3, [sp, #164]	@ 0xa4
 8001fee:	9002      	str	r0, [sp, #8]
 8001ff0:	4628      	mov	r0, r5
 8001ff2:	e9cd 8100 	strd	r8, r1, [sp]
 8001ff6:	9921      	ldr	r1, [sp, #132]	@ 0x84
 8001ff8:	f005 ff62 	bl	8007ec0 <smoltcp::socket::udp::Socket::process>
 8001ffc:	e600      	b.n	8001c00 <smoltcp::iface::interface::Interface::poll+0xae4>
 8001ffe:	f415 6fa0 	tst.w	r5, #1280	@ 0x500
 8002002:	f47f adfd 	bne.w	8001c00 <smoltcp::iface::interface::Interface::poll+0xae4>
 8002006:	2002      	movs	r0, #2
 8002008:	e003      	b.n	8002012 <smoltcp::iface::interface::Interface::poll+0xef6>
 800200a:	0568      	lsls	r0, r5, #21
 800200c:	f53f adf8 	bmi.w	8001c00 <smoltcp::iface::interface::Interface::poll+0xae4>
 8002010:	2003      	movs	r0, #3
 8002012:	9014      	str	r0, [sp, #80]	@ 0x50
 8002014:	04e8      	lsls	r0, r5, #19
 8002016:	902a      	str	r0, [sp, #168]	@ 0xa8
 8002018:	d402      	bmi.n	8002020 <smoltcp::iface::interface::Interface::poll+0xf04>
 800201a:	2000      	movs	r0, #0
 800201c:	9013      	str	r0, [sp, #76]	@ 0x4c
 800201e:	e005      	b.n	800202c <smoltcp::iface::interface::Interface::poll+0xf10>
 8002020:	982c      	ldr	r0, [sp, #176]	@ 0xb0
 8002022:	6880      	ldr	r0, [r0, #8]
 8002024:	ba00      	rev	r0, r0
 8002026:	9004      	str	r0, [sp, #16]
 8002028:	2001      	movs	r0, #1
 800202a:	9013      	str	r0, [sp, #76]	@ 0x4c
 800202c:	3e14      	subs	r6, #20
 800202e:	f000 81a1 	beq.w	8002374 <smoltcp::iface::interface::Interface::poll+0x1258>
 8002032:	9824      	ldr	r0, [sp, #144]	@ 0x90
 8002034:	f04f 0a00 	mov.w	sl, #0
 8002038:	f04f 0b00 	mov.w	fp, #0
 800203c:	f100 0914 	add.w	r9, r0, #20
 8002040:	2000      	movs	r0, #0
 8002042:	9017      	str	r0, [sp, #92]	@ 0x5c
 8002044:	2000      	movs	r0, #0
 8002046:	9018      	str	r0, [sp, #96]	@ 0x60
 8002048:	2000      	movs	r0, #0
 800204a:	9019      	str	r0, [sp, #100]	@ 0x64
 800204c:	9021      	str	r0, [sp, #132]	@ 0x84
 800204e:	9016      	str	r0, [sp, #88]	@ 0x58
 8002050:	9025      	str	r0, [sp, #148]	@ 0x94
 8002052:	e002      	b.n	800205a <smoltcp::iface::interface::Interface::poll+0xf3e>
 8002054:	2e00      	cmp	r6, #0
 8002056:	f000 819c 	beq.w	8002392 <smoltcp::iface::interface::Interface::poll+0x1276>
 800205a:	f899 0000 	ldrb.w	r0, [r9]
 800205e:	b148      	cbz	r0, 8002074 <smoltcp::iface::interface::Interface::poll+0xf58>
 8002060:	2801      	cmp	r0, #1
 8002062:	d130      	bne.n	80020c6 <smoltcp::iface::interface::Interface::poll+0xfaa>
 8002064:	2501      	movs	r5, #1
 8002066:	2103      	movs	r1, #3
 8002068:	2000      	movs	r0, #0
 800206a:	f04f 0c00 	mov.w	ip, #0
 800206e:	2200      	movs	r2, #0
 8002070:	2300      	movs	r3, #0
 8002072:	e004      	b.n	800207e <smoltcp::iface::interface::Interface::poll+0xf62>
 8002074:	2501      	movs	r5, #1
 8002076:	2102      	movs	r1, #2
 8002078:	4602      	mov	r2, r0
 800207a:	4684      	mov	ip, r0
 800207c:	4603      	mov	r3, r0
 800207e:	42ae      	cmp	r6, r5
 8002080:	f0c1 816a 	bcc.w	8003358 <smoltcp::iface::interface::Interface::poll+0x223c>
 8002084:	290a      	cmp	r1, #10
 8002086:	f43f adbb 	beq.w	8001c00 <smoltcp::iface::interface::Interface::poll+0xae4>
 800208a:	021b      	lsls	r3, r3, #8
 800208c:	44a9      	add	r9, r5
 800208e:	b29b      	uxth	r3, r3
 8002090:	431a      	orrs	r2, r3
 8002092:	2305      	movs	r3, #5
 8002094:	2901      	cmp	r1, #1
 8002096:	eba6 0605 	sub.w	r6, r6, r5
 800209a:	bf88      	it	hi
 800209c:	1e8b      	subhi	r3, r1, #2
 800209e:	ea42 020c 	orr.w	r2, r2, ip
 80020a2:	e8df f013 	tbh	[pc, r3, lsl #1]
 80020a6:	0176      	.short	0x0176
 80020a8:	000c000b 	.word	0x000c000b
 80020ac:	00080049 	.word	0x00080049
 80020b0:	00ee00db 	.word	0x00ee00db
 80020b4:	000b      	.short	0x000b
 80020b6:	2001      	movs	r0, #1
 80020b8:	9017      	str	r0, [sp, #92]	@ 0x5c
 80020ba:	e7cb      	b.n	8002054 <smoltcp::iface::interface::Interface::poll+0xf38>
 80020bc:	e7ca      	b.n	8002054 <smoltcp::iface::interface::Interface::poll+0xf38>
 80020be:	2001      	movs	r0, #1
 80020c0:	920a      	str	r2, [sp, #40]	@ 0x28
 80020c2:	9018      	str	r0, [sp, #96]	@ 0x60
 80020c4:	e7c6      	b.n	8002054 <smoltcp::iface::interface::Interface::poll+0xf38>
 80020c6:	2e01      	cmp	r6, #1
 80020c8:	f43f ad9a 	beq.w	8001c00 <smoltcp::iface::interface::Interface::poll+0xae4>
 80020cc:	f899 2001 	ldrb.w	r2, [r9, #1]
 80020d0:	2100      	movs	r1, #0
 80020d2:	2300      	movs	r3, #0
 80020d4:	f109 0402 	add.w	r4, r9, #2
 80020d8:	b2d5      	uxtb	r5, r2
 80020da:	42ae      	cmp	r6, r5
 80020dc:	bf38      	it	cc
 80020de:	2101      	movcc	r1, #1
 80020e0:	2d02      	cmp	r5, #2
 80020e2:	bf38      	it	cc
 80020e4:	2301      	movcc	r3, #1
 80020e6:	4319      	orrs	r1, r3
 80020e8:	4621      	mov	r1, r4
 80020ea:	bf18      	it	ne
 80020ec:	2100      	movne	r1, #0
 80020ee:	f47f ad87 	bne.w	8001c00 <smoltcp::iface::interface::Interface::poll+0xae4>
 80020f2:	f06f 0301 	mvn.w	r3, #1
 80020f6:	fa53 f282 	uxtab	r2, r3, r2
 80020fa:	922b      	str	r2, [sp, #172]	@ 0xac
 80020fc:	1e82      	subs	r2, r0, #2
 80020fe:	2a06      	cmp	r2, #6
 8002100:	f200 812f 	bhi.w	8002362 <smoltcp::iface::interface::Interface::poll+0x1246>
 8002104:	e8df f012 	tbh	[pc, r2, lsl #1]
 8002108:	00c70007 	.word	0x00c70007
 800210c:	00d600d0 	.word	0x00d600d0
 8002110:	012d012d 	.word	0x012d012d
 8002114:	0111      	.short	0x0111
 8002116:	2d04      	cmp	r5, #4
 8002118:	f47f ad72 	bne.w	8001c00 <smoltcp::iface::interface::Interface::poll+0xae4>
 800211c:	982b      	ldr	r0, [sp, #172]	@ 0xac
 800211e:	2801      	cmp	r0, #1
 8002120:	f241 813c 	bls.w	800339c <smoltcp::iface::interface::Interface::poll+0x2280>
 8002124:	8820      	ldrh	r0, [r4, #0]
 8002126:	2104      	movs	r1, #4
 8002128:	2200      	movs	r2, #0
 800212a:	2504      	movs	r5, #4
 800212c:	ba00      	rev	r0, r0
 800212e:	0e03      	lsrs	r3, r0, #24
 8002130:	f3c0 4c07 	ubfx	ip, r0, #16, #8
 8002134:	2000      	movs	r0, #0
 8002136:	e7a2      	b.n	800207e <smoltcp::iface::interface::Interface::poll+0xf62>
 8002138:	f1bc 0f0e 	cmp.w	ip, #14
 800213c:	f240 80a7 	bls.w	800228e <smoltcp::iface::interface::Interface::poll+0x1172>
 8002140:	982c      	ldr	r0, [sp, #176]	@ 0xb0
 8002142:	8841      	ldrh	r1, [r0, #2]
 8002144:	8800      	ldrh	r0, [r0, #0]
 8002146:	9003      	str	r0, [sp, #12]
 8002148:	f240 000a 	movw	r0, #10
 800214c:	f2c0 0000 	movt	r0, #0
 8002150:	912b      	str	r1, [sp, #172]	@ 0xac
 8002152:	f002 f8f1 	bl	8004338 <defmt::export::acquire_and_header>
 8002156:	ad8a      	add	r5, sp, #552	@ 0x228
 8002158:	f240 0a07 	movw	sl, #7
 800215c:	f2c0 0a00 	movt	sl, #0
 8002160:	2102      	movs	r1, #2
 8002162:	4628      	mov	r0, r5
 8002164:	f8ad a228 	strh.w	sl, [sp, #552]	@ 0x228
 8002168:	f002 fa98 	bl	800469c <_defmt_write>
 800216c:	f240 0b3f 	movw	fp, #63	@ 0x3f
 8002170:	9827      	ldr	r0, [sp, #156]	@ 0x9c
 8002172:	f2c0 0b00 	movt	fp, #0
 8002176:	908a      	str	r0, [sp, #552]	@ 0x228
 8002178:	f8ad b360 	strh.w	fp, [sp, #864]	@ 0x360
 800217c:	f50d 7b58 	add.w	fp, sp, #864	@ 0x360
 8002180:	2102      	movs	r1, #2
 8002182:	4658      	mov	r0, fp
 8002184:	f002 fa8a 	bl	800469c <_defmt_write>
 8002188:	4658      	mov	r0, fp
 800218a:	2102      	movs	r1, #2
 800218c:	f8ad a360 	strh.w	sl, [sp, #864]	@ 0x360
 8002190:	f002 fa84 	bl	800469c <_defmt_write>
 8002194:	4628      	mov	r0, r5
 8002196:	f002 f87d 	bl	8004294 <defmt::impls::core_::net::<impl defmt::traits::Format for core::net::ip_addr::Ipv4Addr>::format>
 800219a:	2400      	movs	r4, #0
 800219c:	4658      	mov	r0, fp
 800219e:	2102      	movs	r1, #2
 80021a0:	f8ad 4360 	strh.w	r4, [sp, #864]	@ 0x360
 80021a4:	f002 fa7a 	bl	800469c <_defmt_write>
 80021a8:	4628      	mov	r0, r5
 80021aa:	2102      	movs	r1, #2
 80021ac:	f8ad 4228 	strh.w	r4, [sp, #552]	@ 0x228
 80021b0:	f002 fa74 	bl	800469c <_defmt_write>
 80021b4:	f240 0004 	movw	r0, #4
 80021b8:	2102      	movs	r1, #2
 80021ba:	f2c0 0000 	movt	r0, #0
 80021be:	f8ad 0228 	strh.w	r0, [sp, #552]	@ 0x228
 80021c2:	4628      	mov	r0, r5
 80021c4:	f002 fa6a 	bl	800469c <_defmt_write>
 80021c8:	9803      	ldr	r0, [sp, #12]
 80021ca:	2102      	movs	r1, #2
 80021cc:	ba00      	rev	r0, r0
 80021ce:	0c00      	lsrs	r0, r0, #16
 80021d0:	f8ad 0228 	strh.w	r0, [sp, #552]	@ 0x228
 80021d4:	4628      	mov	r0, r5
 80021d6:	f002 fa61 	bl	800469c <_defmt_write>
 80021da:	4628      	mov	r0, r5
 80021dc:	2102      	movs	r1, #2
 80021de:	f8ad a228 	strh.w	sl, [sp, #552]	@ 0x228
 80021e2:	f002 fa5b 	bl	800469c <_defmt_write>
 80021e6:	9829      	ldr	r0, [sp, #164]	@ 0xa4
 80021e8:	2102      	movs	r1, #2
 80021ea:	908a      	str	r0, [sp, #552]	@ 0x228
 80021ec:	f240 003f 	movw	r0, #63	@ 0x3f
 80021f0:	f2c0 0000 	movt	r0, #0
 80021f4:	f8ad 0360 	strh.w	r0, [sp, #864]	@ 0x360
 80021f8:	4658      	mov	r0, fp
 80021fa:	f002 fa4f 	bl	800469c <_defmt_write>
 80021fe:	4658      	mov	r0, fp
 8002200:	2102      	movs	r1, #2
 8002202:	f8ad a360 	strh.w	sl, [sp, #864]	@ 0x360
 8002206:	f002 fa49 	bl	800469c <_defmt_write>
 800220a:	4628      	mov	r0, r5
 800220c:	f002 f842 	bl	8004294 <defmt::impls::core_::net::<impl defmt::traits::Format for core::net::ip_addr::Ipv4Addr>::format>
 8002210:	4658      	mov	r0, fp
 8002212:	2102      	movs	r1, #2
 8002214:	f8ad 4360 	strh.w	r4, [sp, #864]	@ 0x360
 8002218:	f002 fa40 	bl	800469c <_defmt_write>
 800221c:	4628      	mov	r0, r5
 800221e:	2102      	movs	r1, #2
 8002220:	f8ad 4228 	strh.w	r4, [sp, #552]	@ 0x228
 8002224:	f002 fa3a 	bl	800469c <_defmt_write>
 8002228:	f240 0004 	movw	r0, #4
 800222c:	2102      	movs	r1, #2
 800222e:	f2c0 0000 	movt	r0, #0
 8002232:	f8ad 0228 	strh.w	r0, [sp, #552]	@ 0x228
 8002236:	4628      	mov	r0, r5
 8002238:	f002 fa30 	bl	800469c <_defmt_write>
 800223c:	982b      	ldr	r0, [sp, #172]	@ 0xac
 800223e:	2102      	movs	r1, #2
 8002240:	ba00      	rev	r0, r0
 8002242:	0c00      	lsrs	r0, r0, #16
 8002244:	f8ad 0228 	strh.w	r0, [sp, #552]	@ 0x228
 8002248:	4628      	mov	r0, r5
 800224a:	f002 fa27 	bl	800469c <_defmt_write>
 800224e:	f002 f9ad 	bl	80045ac <_defmt_release>
 8002252:	f04f 0a01 	mov.w	sl, #1
 8002256:	f04f 0b0e 	mov.w	fp, #14
 800225a:	e6fb      	b.n	8002054 <smoltcp::iface::interface::Interface::poll+0xf38>
 800225c:	9b35      	ldr	r3, [sp, #212]	@ 0xd4
 800225e:	9212      	str	r2, [sp, #72]	@ 0x48
 8002260:	9119      	str	r1, [sp, #100]	@ 0x64
 8002262:	ea40 2003 	orr.w	r0, r0, r3, lsl #8
 8002266:	9021      	str	r0, [sp, #132]	@ 0x84
 8002268:	982b      	ldr	r0, [sp, #172]	@ 0xac
 800226a:	9011      	str	r0, [sp, #68]	@ 0x44
 800226c:	9806      	ldr	r0, [sp, #24]
 800226e:	9010      	str	r0, [sp, #64]	@ 0x40
 8002270:	9807      	ldr	r0, [sp, #28]
 8002272:	9016      	str	r0, [sp, #88]	@ 0x58
 8002274:	9809      	ldr	r0, [sp, #36]	@ 0x24
 8002276:	900b      	str	r0, [sp, #44]	@ 0x2c
 8002278:	9805      	ldr	r0, [sp, #20]
 800227a:	900d      	str	r0, [sp, #52]	@ 0x34
 800227c:	9808      	ldr	r0, [sp, #32]
 800227e:	900c      	str	r0, [sp, #48]	@ 0x30
 8002280:	e6e8      	b.n	8002054 <smoltcp::iface::interface::Interface::poll+0xf38>
 8002282:	2001      	movs	r0, #1
 8002284:	9025      	str	r0, [sp, #148]	@ 0x94
 8002286:	982b      	ldr	r0, [sp, #172]	@ 0xac
 8002288:	e9cd 020e 	strd	r0, r2, [sp, #56]	@ 0x38
 800228c:	e6e2      	b.n	8002054 <smoltcp::iface::interface::Interface::poll+0xf38>
 800228e:	f04f 0a01 	mov.w	sl, #1
 8002292:	46e3      	mov	fp, ip
 8002294:	e6de      	b.n	8002054 <smoltcp::iface::interface::Interface::poll+0xf38>
 8002296:	2d03      	cmp	r5, #3
 8002298:	f47f acb2 	bne.w	8001c00 <smoltcp::iface::interface::Interface::poll+0xae4>
 800229c:	2503      	movs	r5, #3
 800229e:	f894 c000 	ldrb.w	ip, [r4]
 80022a2:	2105      	movs	r1, #5
 80022a4:	2000      	movs	r0, #0
 80022a6:	e6e2      	b.n	800206e <smoltcp::iface::interface::Interface::poll+0xf52>
 80022a8:	2d02      	cmp	r5, #2
 80022aa:	f47f aca9 	bne.w	8001c00 <smoltcp::iface::interface::Interface::poll+0xae4>
 80022ae:	2502      	movs	r5, #2
 80022b0:	2106      	movs	r1, #6
 80022b2:	e6d9      	b.n	8002068 <smoltcp::iface::interface::Interface::poll+0xf4c>
 80022b4:	2d0a      	cmp	r5, #10
 80022b6:	f4ff aca3 	bcc.w	8001c00 <smoltcp::iface::interface::Interface::poll+0xae4>
 80022ba:	f005 0007 	and.w	r0, r5, #7
 80022be:	2802      	cmp	r0, #2
 80022c0:	f47f ac9e 	bne.w	8001c00 <smoltcp::iface::interface::Interface::poll+0xae4>
 80022c4:	2d1a      	cmp	r5, #26
 80022c6:	d905      	bls.n	80022d4 <smoltcp::iface::interface::Interface::poll+0x11b8>
 80022c8:	f240 0009 	movw	r0, #9
 80022cc:	f2c0 0000 	movt	r0, #0
 80022d0:	f002 f843 	bl	800435a <defmt::export::acquire_header_and_release>
 80022d4:	2000      	movs	r0, #0
 80022d6:	9931      	ldr	r1, [sp, #196]	@ 0xc4
 80022d8:	9090      	str	r0, [sp, #576]	@ 0x240
 80022da:	aad8      	add	r2, sp, #864	@ 0x360
 80022dc:	908d      	str	r0, [sp, #564]	@ 0x234
 80022de:	908a      	str	r0, [sp, #552]	@ 0x228
 80022e0:	90da      	str	r0, [sp, #872]	@ 0x368
 80022e2:	982b      	ldr	r0, [sp, #172]	@ 0xac
 80022e4:	e9cd 40d8 	strd	r4, r0, [sp, #864]	@ 0x360
 80022e8:	a88a      	add	r0, sp, #552	@ 0x228
 80022ea:	f003 ff1b 	bl	8006124 <<core::slice::iter::IterMut<T> as core::iter::traits::iterator::Iterator>::fold>
 80022ee:	9a8c      	ldr	r2, [sp, #560]	@ 0x230
 80022f0:	922b      	str	r2, [sp, #172]	@ 0xac
 80022f2:	9a32      	ldr	r2, [sp, #200]	@ 0xc8
 80022f4:	e9dd 108a 	ldrd	r1, r0, [sp, #552]	@ 0x228
 80022f8:	fa5f fc80 	uxtb.w	ip, r0
 80022fc:	7893      	ldrb	r3, [r2, #2]
 80022fe:	8814      	ldrh	r4, [r2, #0]
 8002300:	9a92      	ldr	r2, [sp, #584]	@ 0x248
 8002302:	ea44 4303 	orr.w	r3, r4, r3, lsl #16
 8002306:	9209      	str	r2, [sp, #36]	@ 0x24
 8002308:	f64f 72ff 	movw	r2, #65535	@ 0xffff
 800230c:	9335      	str	r3, [sp, #212]	@ 0xd4
 800230e:	ea20 0202 	bic.w	r2, r0, r2
 8002312:	0a03      	lsrs	r3, r0, #8
 8002314:	9891      	ldr	r0, [sp, #580]	@ 0x244
 8002316:	9006      	str	r0, [sp, #24]
 8002318:	9890      	ldr	r0, [sp, #576]	@ 0x240
 800231a:	9007      	str	r0, [sp, #28]
 800231c:	988f      	ldr	r0, [sp, #572]	@ 0x23c
 800231e:	9c8e      	ldr	r4, [sp, #568]	@ 0x238
 8002320:	9008      	str	r0, [sp, #32]
 8002322:	f89d 0234 	ldrb.w	r0, [sp, #564]	@ 0x234
 8002326:	9405      	str	r4, [sp, #20]
 8002328:	e6a9      	b.n	800207e <smoltcp::iface::interface::Interface::poll+0xf62>
 800232a:	2d0a      	cmp	r5, #10
 800232c:	d119      	bne.n	8002362 <smoltcp::iface::interface::Interface::poll+0x1246>
 800232e:	982b      	ldr	r0, [sp, #172]	@ 0xac
 8002330:	2803      	cmp	r0, #3
 8002332:	f241 803c 	bls.w	80033ae <smoltcp::iface::interface::Interface::poll+0x2292>
 8002336:	982b      	ldr	r0, [sp, #172]	@ 0xac
 8002338:	2807      	cmp	r0, #7
 800233a:	f241 8041 	bls.w	80033c0 <smoltcp::iface::interface::Interface::poll+0x22a4>
 800233e:	f8d9 0002 	ldr.w	r0, [r9, #2]
 8002342:	f64f 72ff 	movw	r2, #65535	@ 0xffff
 8002346:	f8d9 1006 	ldr.w	r1, [r9, #6]
 800234a:	250a      	movs	r5, #10
 800234c:	ba00      	rev	r0, r0
 800234e:	ba09      	rev	r1, r1
 8002350:	912b      	str	r1, [sp, #172]	@ 0xac
 8002352:	ea20 0202 	bic.w	r2, r0, r2
 8002356:	0a03      	lsrs	r3, r0, #8
 8002358:	fa5f fc80 	uxtb.w	ip, r0
 800235c:	2108      	movs	r1, #8
 800235e:	2000      	movs	r0, #0
 8002360:	e68d      	b.n	800207e <smoltcp::iface::interface::Interface::poll+0xf62>
 8002362:	f64f 72ff 	movw	r2, #65535	@ 0xffff
 8002366:	0a0b      	lsrs	r3, r1, #8
 8002368:	ea21 0202 	bic.w	r2, r1, r2
 800236c:	fa5f fc81 	uxtb.w	ip, r1
 8002370:	2109      	movs	r1, #9
 8002372:	e684      	b.n	800207e <smoltcp::iface::interface::Interface::poll+0xf62>
 8002374:	2000      	movs	r0, #0
 8002376:	f04f 0b00 	mov.w	fp, #0
 800237a:	9025      	str	r0, [sp, #148]	@ 0x94
 800237c:	f04f 0a00 	mov.w	sl, #0
 8002380:	2000      	movs	r0, #0
 8002382:	9016      	str	r0, [sp, #88]	@ 0x58
 8002384:	9021      	str	r0, [sp, #132]	@ 0x84
 8002386:	9019      	str	r0, [sp, #100]	@ 0x64
 8002388:	2000      	movs	r0, #0
 800238a:	9018      	str	r0, [sp, #96]	@ 0x60
 800238c:	2000      	movs	r0, #0
 800238e:	9017      	str	r0, [sp, #92]	@ 0x5c
 8002390:	e001      	b.n	8002396 <smoltcp::iface::interface::Interface::poll+0x127a>
 8002392:	982c      	ldr	r0, [sp, #176]	@ 0xb0
 8002394:	8985      	ldrh	r5, [r0, #12]
 8002396:	203c      	movs	r0, #60	@ 0x3c
 8002398:	992d      	ldr	r1, [sp, #180]	@ 0xb4
 800239a:	ea00 0095 	and.w	r0, r0, r5, lsr #2
 800239e:	4281      	cmp	r1, r0
 80023a0:	f0c1 8017 	bcc.w	80033d2 <smoltcp::iface::interface::Interface::poll+0x22b6>
 80023a4:	f44f 71a8 	mov.w	r1, #336	@ 0x150
 80023a8:	9a26      	ldr	r2, [sp, #152]	@ 0x98
 80023aa:	fb08 2201 	mla	r2, r8, r1, r2
 80023ae:	9914      	ldr	r1, [sp, #80]	@ 0x50
 80023b0:	f88d 1225 	strb.w	r1, [sp, #549]	@ 0x225
 80023b4:	9917      	ldr	r1, [sp, #92]	@ 0x5c
 80023b6:	9b04      	ldr	r3, [sp, #16]
 80023b8:	f001 0101 	and.w	r1, r1, #1
 80023bc:	f88d 1224 	strb.w	r1, [sp, #548]	@ 0x224
 80023c0:	f00a 0101 	and.w	r1, sl, #1
 80023c4:	f88d 121c 	strb.w	r1, [sp, #540]	@ 0x21c
 80023c8:	992d      	ldr	r1, [sp, #180]	@ 0xb4
 80023ca:	9376      	str	r3, [sp, #472]	@ 0x1d8
 80023cc:	1a09      	subs	r1, r1, r0
 80023ce:	9185      	str	r1, [sp, #532]	@ 0x214
 80023d0:	9924      	ldr	r1, [sp, #144]	@ 0x90
 80023d2:	9b13      	ldr	r3, [sp, #76]	@ 0x4c
 80023d4:	4408      	add	r0, r1
 80023d6:	9084      	str	r0, [sp, #528]	@ 0x210
 80023d8:	980a      	ldr	r0, [sp, #40]	@ 0x28
 80023da:	f8ad 020e 	strh.w	r0, [sp, #526]	@ 0x20e
 80023de:	9818      	ldr	r0, [sp, #96]	@ 0x60
 80023e0:	f8ad 020c 	strh.w	r0, [sp, #524]	@ 0x20c
 80023e4:	980e      	ldr	r0, [sp, #56]	@ 0x38
 80023e6:	9082      	str	r0, [sp, #520]	@ 0x208
 80023e8:	980f      	ldr	r0, [sp, #60]	@ 0x3c
 80023ea:	9081      	str	r0, [sp, #516]	@ 0x204
 80023ec:	9825      	ldr	r0, [sp, #148]	@ 0x94
 80023ee:	9080      	str	r0, [sp, #512]	@ 0x200
 80023f0:	980b      	ldr	r0, [sp, #44]	@ 0x2c
 80023f2:	907f      	str	r0, [sp, #508]	@ 0x1fc
 80023f4:	9810      	ldr	r0, [sp, #64]	@ 0x40
 80023f6:	907e      	str	r0, [sp, #504]	@ 0x1f8
 80023f8:	9816      	ldr	r0, [sp, #88]	@ 0x58
 80023fa:	907d      	str	r0, [sp, #500]	@ 0x1f4
 80023fc:	980c      	ldr	r0, [sp, #48]	@ 0x30
 80023fe:	907c      	str	r0, [sp, #496]	@ 0x1f0
 8002400:	980d      	ldr	r0, [sp, #52]	@ 0x34
 8002402:	907b      	str	r0, [sp, #492]	@ 0x1ec
 8002404:	9821      	ldr	r0, [sp, #132]	@ 0x84
 8002406:	907a      	str	r0, [sp, #488]	@ 0x1e8
 8002408:	9811      	ldr	r0, [sp, #68]	@ 0x44
 800240a:	9079      	str	r0, [sp, #484]	@ 0x1e4
 800240c:	9812      	ldr	r0, [sp, #72]	@ 0x48
 800240e:	9078      	str	r0, [sp, #480]	@ 0x1e0
 8002410:	9819      	ldr	r0, [sp, #100]	@ 0x64
 8002412:	9077      	str	r0, [sp, #476]	@ 0x1dc
 8002414:	982c      	ldr	r0, [sp, #176]	@ 0xb0
 8002416:	f88d b21d 	strb.w	fp, [sp, #541]	@ 0x21d
 800241a:	9375      	str	r3, [sp, #468]	@ 0x1d4
 800241c:	6845      	ldr	r5, [r0, #4]
 800241e:	8801      	ldrh	r1, [r0, #0]
 8002420:	89c4      	ldrh	r4, [r0, #14]
 8002422:	ba2d      	rev	r5, r5
 8002424:	f8b0 e002 	ldrh.w	lr, [r0, #2]
 8002428:	ba09      	rev	r1, r1
 800242a:	9586      	str	r5, [sp, #536]	@ 0x218
 800242c:	ba25      	rev	r5, r4
 800242e:	fa9e f89e 	rev16.w	r8, lr
 8002432:	ea4f 4c11 	mov.w	ip, r1, lsr #16
 8002436:	0c2d      	lsrs	r5, r5, #16
 8002438:	f8ad 8220 	strh.w	r8, [sp, #544]	@ 0x220
 800243c:	f8ad 5222 	strh.w	r5, [sp, #546]	@ 0x222
 8002440:	f8ad c21e 	strh.w	ip, [sp, #542]	@ 0x21e
 8002444:	9826      	ldr	r0, [sp, #152]	@ 0x98
 8002446:	4290      	cmp	r0, r2
 8002448:	f000 8080 	beq.w	800254c <smoltcp::iface::interface::Interface::poll+0x1430>
 800244c:	9826      	ldr	r0, [sp, #152]	@ 0x98
 800244e:	e9d0 5400 	ldrd	r5, r4, [r0]
 8002452:	f500 71a8 	add.w	r1, r0, #336	@ 0x150
 8002456:	3d02      	subs	r5, #2
 8002458:	f174 0500 	sbcs.w	r5, r4, #0
 800245c:	d202      	bcs.n	8002464 <smoltcp::iface::interface::Interface::poll+0x1348>
 800245e:	460c      	mov	r4, r1
 8002460:	9926      	ldr	r1, [sp, #152]	@ 0x98
 8002462:	e029      	b.n	80024b8 <smoltcp::iface::interface::Interface::poll+0x139c>
 8002464:	4291      	cmp	r1, r2
 8002466:	d071      	beq.n	800254c <smoltcp::iface::interface::Interface::poll+0x1430>
 8002468:	9b26      	ldr	r3, [sp, #152]	@ 0x98
 800246a:	e9d3 4054 	ldrd	r4, r0, [r3, #336]	@ 0x150
 800246e:	f503 7528 	add.w	r5, r3, #672	@ 0x2a0
 8002472:	3c02      	subs	r4, #2
 8002474:	f170 0000 	sbcs.w	r0, r0, #0
 8002478:	d201      	bcs.n	800247e <smoltcp::iface::interface::Interface::poll+0x1362>
 800247a:	462c      	mov	r4, r5
 800247c:	e01c      	b.n	80024b8 <smoltcp::iface::interface::Interface::poll+0x139c>
 800247e:	4295      	cmp	r5, r2
 8002480:	d064      	beq.n	800254c <smoltcp::iface::interface::Interface::poll+0x1430>
 8002482:	9926      	ldr	r1, [sp, #152]	@ 0x98
 8002484:	e9d1 04a8 	ldrd	r0, r4, [r1, #672]	@ 0x2a0
 8002488:	f501 717c 	add.w	r1, r1, #1008	@ 0x3f0
 800248c:	3802      	subs	r0, #2
 800248e:	f174 0000 	sbcs.w	r0, r4, #0
 8002492:	d202      	bcs.n	800249a <smoltcp::iface::interface::Interface::poll+0x137e>
 8002494:	460c      	mov	r4, r1
 8002496:	4629      	mov	r1, r5
 8002498:	e00e      	b.n	80024b8 <smoltcp::iface::interface::Interface::poll+0x139c>
 800249a:	4291      	cmp	r1, r2
 800249c:	d056      	beq.n	800254c <smoltcp::iface::interface::Interface::poll+0x1430>
 800249e:	9b26      	ldr	r3, [sp, #152]	@ 0x98
 80024a0:	e9d3 04fc 	ldrd	r0, r4, [r3, #1008]	@ 0x3f0
 80024a4:	f503 63a8 	add.w	r3, r3, #1344	@ 0x540
 80024a8:	9326      	str	r3, [sp, #152]	@ 0x98
 80024aa:	f1d0 0001 	rsbs	r0, r0, #1
 80024ae:	f04f 0000 	mov.w	r0, #0
 80024b2:	41a0      	sbcs	r0, r4
 80024b4:	461c      	mov	r4, r3
 80024b6:	d3c5      	bcc.n	8002444 <smoltcp::iface::interface::Interface::poll+0x1328>
 80024b8:	f891 5133 	ldrb.w	r5, [r1, #307]	@ 0x133
 80024bc:	9426      	str	r4, [sp, #152]	@ 0x98
 80024be:	2d00      	cmp	r5, #0
 80024c0:	d0c0      	beq.n	8002444 <smoltcp::iface::interface::Interface::poll+0x1328>
 80024c2:	2d01      	cmp	r5, #1
 80024c4:	d103      	bne.n	80024ce <smoltcp::iface::interface::Interface::poll+0x13b2>
 80024c6:	982a      	ldr	r0, [sp, #168]	@ 0xa8
 80024c8:	9426      	str	r4, [sp, #152]	@ 0x98
 80024ca:	2800      	cmp	r0, #0
 80024cc:	d4ba      	bmi.n	8002444 <smoltcp::iface::interface::Interface::poll+0x1328>
 80024ce:	f8b1 011c 	ldrh.w	r0, [r1, #284]	@ 0x11c
 80024d2:	b1a0      	cbz	r0, 80024fe <smoltcp::iface::interface::Interface::poll+0x13e2>
 80024d4:	f8d1 011e 	ldr.w	r0, [r1, #286]	@ 0x11e
 80024d8:	9b29      	ldr	r3, [sp, #164]	@ 0xa4
 80024da:	9426      	str	r4, [sp, #152]	@ 0x98
 80024dc:	4283      	cmp	r3, r0
 80024de:	d1b1      	bne.n	8002444 <smoltcp::iface::interface::Interface::poll+0x1328>
 80024e0:	f8b1 0122 	ldrh.w	r0, [r1, #290]	@ 0x122
 80024e4:	9426      	str	r4, [sp, #152]	@ 0x98
 80024e6:	4580      	cmp	r8, r0
 80024e8:	d1ac      	bne.n	8002444 <smoltcp::iface::interface::Interface::poll+0x1328>
 80024ea:	f8d1 0124 	ldr.w	r0, [r1, #292]	@ 0x124
 80024ee:	9b27      	ldr	r3, [sp, #156]	@ 0x9c
 80024f0:	9426      	str	r4, [sp, #152]	@ 0x98
 80024f2:	4283      	cmp	r3, r0
 80024f4:	d1a6      	bne.n	8002444 <smoltcp::iface::interface::Interface::poll+0x1328>
 80024f6:	f8b1 0128 	ldrh.w	r0, [r1, #296]	@ 0x128
 80024fa:	4584      	cmp	ip, r0
 80024fc:	e012      	b.n	8002524 <smoltcp::iface::interface::Interface::poll+0x1408>
 80024fe:	f8d1 00b3 	ldr.w	r0, [r1, #179]	@ 0xb3
 8002502:	9b29      	ldr	r3, [sp, #164]	@ 0xa4
 8002504:	f891 50b2 	ldrb.w	r5, [r1, #178]	@ 0xb2
 8002508:	1a18      	subs	r0, r3, r0
 800250a:	bf18      	it	ne
 800250c:	2001      	movne	r0, #1
 800250e:	4205      	tst	r5, r0
 8002510:	9426      	str	r4, [sp, #152]	@ 0x98
 8002512:	d197      	bne.n	8002444 <smoltcp::iface::interface::Interface::poll+0x1328>
 8002514:	f1be 0f00 	cmp.w	lr, #0
 8002518:	9426      	str	r4, [sp, #152]	@ 0x98
 800251a:	f43f af93 	beq.w	8002444 <smoltcp::iface::interface::Interface::poll+0x1328>
 800251e:	f8b1 00b0 	ldrh.w	r0, [r1, #176]	@ 0xb0
 8002522:	4580      	cmp	r8, r0
 8002524:	9426      	str	r4, [sp, #152]	@ 0x98
 8002526:	f47f af8d 	bne.w	8002444 <smoltcp::iface::interface::Interface::poll+0x1328>
 800252a:	a875      	add	r0, sp, #468	@ 0x1d4
 800252c:	9a29      	ldr	r2, [sp, #164]	@ 0xa4
 800252e:	9b27      	ldr	r3, [sp, #156]	@ 0x9c
 8002530:	e9cd 2000 	strd	r2, r0, [sp]
 8002534:	a88a      	add	r0, sp, #552	@ 0x228
 8002536:	9a48      	ldr	r2, [sp, #288]	@ 0x120
 8002538:	f003 ffa8 	bl	800648c <smoltcp::socket::tcp::Socket::process>
 800253c:	988e      	ldr	r0, [sp, #568]	@ 0x238
 800253e:	2802      	cmp	r0, #2
 8002540:	f43f ab5e 	beq.w	8001c00 <smoltcp::iface::interface::Interface::poll+0xae4>
 8002544:	ab8a      	add	r3, sp, #552	@ 0x228
 8002546:	9d2f      	ldr	r5, [sp, #188]	@ 0xbc
 8002548:	aca3      	add	r4, sp, #652	@ 0x28c
 800254a:	e017      	b.n	800257c <smoltcp::iface::interface::Interface::poll+0x1460>
 800254c:	9814      	ldr	r0, [sp, #80]	@ 0x50
 800254e:	9929      	ldr	r1, [sp, #164]	@ 0xa4
 8002550:	3804      	subs	r0, #4
 8002552:	fab0 f080 	clz	r0, r0
 8002556:	fab1 f181 	clz	r1, r1
 800255a:	0949      	lsrs	r1, r1, #5
 800255c:	0940      	lsrs	r0, r0, #5
 800255e:	4308      	orrs	r0, r1
 8002560:	9920      	ldr	r1, [sp, #128]	@ 0x80
 8002562:	4308      	orrs	r0, r1
 8002564:	2801      	cmp	r0, #1
 8002566:	f43f ab4b 	beq.w	8001c00 <smoltcp::iface::interface::Interface::poll+0xae4>
 800256a:	9927      	ldr	r1, [sp, #156]	@ 0x9c
 800256c:	a88a      	add	r0, sp, #552	@ 0x228
 800256e:	9a29      	ldr	r2, [sp, #164]	@ 0xa4
 8002570:	ab75      	add	r3, sp, #468	@ 0x1d4
 8002572:	f005 f89a 	bl	80076aa <smoltcp::socket::tcp::Socket::rst_reply>
 8002576:	ab8a      	add	r3, sp, #552	@ 0x228
 8002578:	acbc      	add	r4, sp, #752	@ 0x2f0
 800257a:	9d30      	ldr	r5, [sp, #192]	@ 0xc0
 800257c:	cb0f      	ldmia	r3, {r0, r1, r2, r3}
 800257e:	c50f      	stmia	r5!, {r0, r1, r2, r3}
 8002580:	9934      	ldr	r1, [sp, #208]	@ 0xd0
 8002582:	4620      	mov	r0, r4
 8002584:	2254      	movs	r2, #84	@ 0x54
 8002586:	f006 f98a 	bl	800889e <__aeabi_memcpy4>
 800258a:	a855      	add	r0, sp, #340	@ 0x154
 800258c:	4621      	mov	r1, r4
 800258e:	2264      	movs	r2, #100	@ 0x64
 8002590:	f006 f985 	bl	800889e <__aeabi_memcpy4>
 8002594:	f7ff bb36 	b.w	8001c04 <smoltcp::iface::interface::Interface::poll+0xae8>
 8002598:	68f8      	ldr	r0, [r7, #12]
 800259a:	f44f 71a8 	mov.w	r1, #336	@ 0x150
 800259e:	e9d0 5000 	ldrd	r5, r0, [r0]
 80025a2:	fb00 5001 	mla	r0, r0, r1, r5
 80025a6:	e9dd 2145 	ldrd	r2, r1, [sp, #276]	@ 0x114
 80025aa:	9047      	str	r0, [sp, #284]	@ 0x11c
 80025ac:	9848      	ldr	r0, [sp, #288]	@ 0x120
 80025ae:	e9c0 2104 	strd	r2, r1, [r0, #16]
 80025b2:	a8bc      	add	r0, sp, #752	@ 0x2f0
 80025b4:	3008      	adds	r0, #8
 80025b6:	9036      	str	r0, [sp, #216]	@ 0xd8
 80025b8:	9847      	ldr	r0, [sp, #284]	@ 0x11c
 80025ba:	4285      	cmp	r5, r0
 80025bc:	f000 8606 	beq.w	80031cc <smoltcp::iface::interface::Interface::poll+0x20b0>
 80025c0:	46a9      	mov	r9, r5
 80025c2:	e8f5 0154 	ldrd	r0, r1, [r5], #336	@ 0x150
 80025c6:	f080 0003 	eor.w	r0, r0, #3
 80025ca:	4308      	orrs	r0, r1
 80025cc:	d0f4      	beq.n	80025b8 <smoltcp::iface::interface::Interface::poll+0x149c>
 80025ce:	f899 0138 	ldrb.w	r0, [r9, #312]	@ 0x138
 80025d2:	2801      	cmp	r0, #1
 80025d4:	f040 8089 	bne.w	80026ea <smoltcp::iface::interface::Interface::poll+0x15ce>
 80025d8:	9848      	ldr	r0, [sp, #288]	@ 0x120
 80025da:	46a8      	mov	r8, r5
 80025dc:	f8d9 2139 	ldr.w	r2, [r9, #313]	@ 0x139
 80025e0:	f04f 34ff 	mov.w	r4, #4294967295	@ 0xffffffff
 80025e4:	e9d0 ab04 	ldrd	sl, fp, [r0, #16]
 80025e8:	f8d0 00f0 	ldr.w	r0, [r0, #240]	@ 0xf0
 80025ec:	e9d9 c550 	ldrd	ip, r5, [r9, #320]	@ 0x140
 80025f0:	9942      	ldr	r1, [sp, #264]	@ 0x108
 80025f2:	eb00 0080 	add.w	r0, r0, r0, lsl #2
 80025f6:	e00b      	b.n	8002610 <smoltcp::iface::interface::Interface::poll+0x14f4>
 80025f8:	425b      	negs	r3, r3
 80025fa:	f003 031f 	and.w	r3, r3, #31
 80025fe:	fa04 f303 	lsl.w	r3, r4, r3
 8002602:	ba1b      	rev	r3, r3
 8002604:	680e      	ldr	r6, [r1, #0]
 8002606:	3105      	adds	r1, #5
 8002608:	3805      	subs	r0, #5
 800260a:	4056      	eors	r6, r2
 800260c:	4233      	tst	r3, r6
 800260e:	d016      	beq.n	800263e <smoltcp::iface::interface::Interface::poll+0x1522>
 8002610:	b120      	cbz	r0, 800261c <smoltcp::iface::interface::Interface::poll+0x1500>
 8002612:	790b      	ldrb	r3, [r1, #4]
 8002614:	2b00      	cmp	r3, #0
 8002616:	d1ef      	bne.n	80025f8 <smoltcp::iface::interface::Interface::poll+0x14dc>
 8002618:	2300      	movs	r3, #0
 800261a:	e7f3      	b.n	8002604 <smoltcp::iface::interface::Interface::poll+0x14e8>
 800261c:	1c50      	adds	r0, r2, #1
 800261e:	f000 85b9 	beq.w	8003194 <smoltcp::iface::interface::Interface::poll+0x2078>
 8002622:	9933      	ldr	r1, [sp, #204]	@ 0xcc
 8002624:	a8bc      	add	r0, sp, #752	@ 0x2f0
 8002626:	e9cd ab00 	strd	sl, fp, [sp]
 800262a:	4664      	mov	r4, ip
 800262c:	f005 fe6d 	bl	800830a <smoltcp::iface::route::Routes::lookup>
 8002630:	f89d 02f0 	ldrb.w	r0, [sp, #752]	@ 0x2f0
 8002634:	46a4      	mov	ip, r4
 8002636:	2801      	cmp	r0, #1
 8002638:	d150      	bne.n	80026dc <smoltcp::iface::interface::Interface::poll+0x15c0>
 800263a:	f8dd 22f1 	ldr.w	r2, [sp, #753]	@ 0x2f1
 800263e:	1c50      	adds	r0, r2, #1
 8002640:	f000 85a8 	beq.w	8003194 <smoltcp::iface::interface::Interface::poll+0x2078>
 8002644:	f002 00f0 	and.w	r0, r2, #240	@ 0xf0
 8002648:	28e0      	cmp	r0, #224	@ 0xe0
 800264a:	bf1c      	itt	ne
 800264c:	b2d0      	uxtbne	r0, r2
 800264e:	ea50 2012 	orrsne.w	r0, r0, r2, lsr #8
 8002652:	f000 859f 	beq.w	8003194 <smoltcp::iface::interface::Interface::poll+0x2078>
 8002656:	9848      	ldr	r0, [sp, #288]	@ 0x120
 8002658:	f8d0 00e0 	ldr.w	r0, [r0, #224]	@ 0xe0
 800265c:	eba0 0080 	sub.w	r0, r0, r0, lsl #2
 8002660:	00c1      	lsls	r1, r0, #3
 8002662:	2000      	movs	r0, #0
 8002664:	180e      	adds	r6, r1, r0
 8002666:	d039      	beq.n	80026dc <smoltcp::iface::interface::Interface::poll+0x15c0>
 8002668:	9b48      	ldr	r3, [sp, #288]	@ 0x120
 800266a:	4403      	add	r3, r0
 800266c:	6a1c      	ldr	r4, [r3, #32]
 800266e:	4294      	cmp	r4, r2
 8002670:	d01d      	beq.n	80026ae <smoltcp::iface::interface::Interface::poll+0x1592>
 8002672:	f116 0418 	adds.w	r4, r6, #24
 8002676:	d031      	beq.n	80026dc <smoltcp::iface::interface::Interface::poll+0x15c0>
 8002678:	6b9c      	ldr	r4, [r3, #56]	@ 0x38
 800267a:	4294      	cmp	r4, r2
 800267c:	d025      	beq.n	80026ca <smoltcp::iface::interface::Interface::poll+0x15ae>
 800267e:	f116 0430 	adds.w	r4, r6, #48	@ 0x30
 8002682:	d02b      	beq.n	80026dc <smoltcp::iface::interface::Interface::poll+0x15c0>
 8002684:	6d1c      	ldr	r4, [r3, #80]	@ 0x50
 8002686:	4294      	cmp	r4, r2
 8002688:	f000 818a 	beq.w	80029a0 <smoltcp::iface::interface::Interface::poll+0x1884>
 800268c:	3648      	adds	r6, #72	@ 0x48
 800268e:	d025      	beq.n	80026dc <smoltcp::iface::interface::Interface::poll+0x15c0>
 8002690:	6e9b      	ldr	r3, [r3, #104]	@ 0x68
 8002692:	3060      	adds	r0, #96	@ 0x60
 8002694:	4293      	cmp	r3, r2
 8002696:	d1e5      	bne.n	8002664 <smoltcp::iface::interface::Interface::poll+0x1548>
 8002698:	9948      	ldr	r1, [sp, #288]	@ 0x120
 800269a:	4408      	add	r0, r1
 800269c:	3008      	adds	r0, #8
 800269e:	e9d0 0102 	ldrd	r0, r1, [r0, #8]
 80026a2:	ebba 0000 	subs.w	r0, sl, r0
 80026a6:	eb7b 0001 	sbcs.w	r0, fp, r1
 80026aa:	db09      	blt.n	80026c0 <smoltcp::iface::interface::Interface::poll+0x15a4>
 80026ac:	e016      	b.n	80026dc <smoltcp::iface::interface::Interface::poll+0x15c0>
 80026ae:	f103 0020 	add.w	r0, r3, #32
 80026b2:	e9d0 0102 	ldrd	r0, r1, [r0, #8]
 80026b6:	ebba 0000 	subs.w	r0, sl, r0
 80026ba:	eb7b 0001 	sbcs.w	r0, fp, r1
 80026be:	da0d      	bge.n	80026dc <smoltcp::iface::interface::Interface::poll+0x15c0>
 80026c0:	2000      	movs	r0, #0
 80026c2:	4645      	mov	r5, r8
 80026c4:	f889 0138 	strb.w	r0, [r9, #312]	@ 0x138
 80026c8:	e00f      	b.n	80026ea <smoltcp::iface::interface::Interface::poll+0x15ce>
 80026ca:	f103 0038 	add.w	r0, r3, #56	@ 0x38
 80026ce:	e9d0 0102 	ldrd	r0, r1, [r0, #8]
 80026d2:	ebba 0000 	subs.w	r0, sl, r0
 80026d6:	eb7b 0001 	sbcs.w	r0, fp, r1
 80026da:	dbf1      	blt.n	80026c0 <smoltcp::iface::interface::Interface::poll+0x15a4>
 80026dc:	ebba 000c 	subs.w	r0, sl, ip
 80026e0:	eb7b 0005 	sbcs.w	r0, fp, r5
 80026e4:	4645      	mov	r5, r8
 80026e6:	f6ff af67 	blt.w	80025b8 <smoltcp::iface::interface::Interface::poll+0x149c>
 80026ea:	e9d9 0100 	ldrd	r0, r1, [r9]
 80026ee:	f080 0002 	eor.w	r0, r0, #2
 80026f2:	4308      	orrs	r0, r1
 80026f4:	d140      	bne.n	8002778 <smoltcp::iface::interface::Interface::poll+0x165c>
 80026f6:	f899 0050 	ldrb.w	r0, [r9, #80]	@ 0x50
 80026fa:	f8d9 b03c 	ldr.w	fp, [r9, #60]	@ 0x3c
 80026fe:	f899 e051 	ldrb.w	lr, [r9, #81]	@ 0x51
 8002702:	2800      	cmp	r0, #0
 8002704:	bf08      	it	eq
 8002706:	f04f 0e40 	moveq.w	lr, #64	@ 0x40
 800270a:	f1bb 0f00 	cmp.w	fp, #0
 800270e:	f000 80d7 	beq.w	80028c0 <smoltcp::iface::interface::Interface::poll+0x17a4>
 8002712:	f8d9 1034 	ldr.w	r1, [r9, #52]	@ 0x34
 8002716:	2900      	cmp	r1, #0
 8002718:	f000 85dd 	beq.w	80032d6 <smoltcp::iface::interface::Interface::poll+0x21ba>
 800271c:	f8d9 0038 	ldr.w	r0, [r9, #56]	@ 0x38
 8002720:	4288      	cmp	r0, r1
 8002722:	f080 85e5 	bcs.w	80032f0 <smoltcp::iface::interface::Interface::poll+0x21d4>
 8002726:	f8d9 a030 	ldr.w	sl, [r9, #48]	@ 0x30
 800272a:	eb00 0480 	add.w	r4, r0, r0, lsl #2
 800272e:	e9d9 2302 	ldrd	r2, r3, [r9, #8]
 8002732:	9244      	str	r2, [sp, #272]	@ 0x110
 8002734:	eb0a 0284 	add.w	r2, sl, r4, lsl #2
 8002738:	933d      	str	r3, [sp, #244]	@ 0xf4
 800273a:	7b92      	ldrb	r2, [r2, #14]
 800273c:	2a02      	cmp	r2, #2
 800273e:	d12b      	bne.n	8002798 <smoltcp::iface::interface::Interface::poll+0x167c>
 8002740:	f109 0844 	add.w	r8, r9, #68	@ 0x44
 8002744:	46ac      	mov	ip, r5
 8002746:	e898 0124 	ldmia.w	r8, {r2, r5, r8}
 800274a:	1b53      	subs	r3, r2, r5
 800274c:	4543      	cmp	r3, r8
 800274e:	bf28      	it	cs
 8002750:	4643      	movcs	r3, r8
 8002752:	195e      	adds	r6, r3, r5
 8002754:	f080 8579 	bcs.w	800324a <smoltcp::iface::interface::Interface::poll+0x212e>
 8002758:	4296      	cmp	r6, r2
 800275a:	f200 8576 	bhi.w	800324a <smoltcp::iface::interface::Interface::poll+0x212e>
 800275e:	f85a 6024 	ldr.w	r6, [sl, r4, lsl #2]
 8002762:	42b3      	cmp	r3, r6
 8002764:	bf38      	it	cc
 8002766:	461e      	movcc	r6, r3
 8002768:	2a00      	cmp	r2, #0
 800276a:	d061      	beq.n	8002830 <smoltcp::iface::interface::Interface::poll+0x1714>
 800276c:	1973      	adds	r3, r6, r5
 800276e:	fbb3 f4f2 	udiv	r4, r3, r2
 8002772:	fb04 3212 	mls	r2, r4, r2, r3
 8002776:	e05c      	b.n	8002832 <smoltcp::iface::interface::Interface::poll+0x1716>
 8002778:	f8b9 011c 	ldrh.w	r0, [r9, #284]	@ 0x11c
 800277c:	2800      	cmp	r0, #0
 800277e:	f43f af1b 	beq.w	80025b8 <smoltcp::iface::interface::Interface::poll+0x149c>
 8002782:	9848      	ldr	r0, [sp, #288]	@ 0x120
 8002784:	e9d9 2314 	ldrd	r2, r3, [r9, #80]	@ 0x50
 8002788:	e9d0 1004 	ldrd	r1, r0, [r0, #16]
 800278c:	431a      	orrs	r2, r3
 800278e:	9546      	str	r5, [sp, #280]	@ 0x118
 8002790:	d005      	beq.n	800279e <smoltcp::iface::interface::Interface::poll+0x1682>
 8002792:	e9d9 2316 	ldrd	r2, r3, [r9, #88]	@ 0x58
 8002796:	e00c      	b.n	80027b2 <smoltcp::iface::interface::Interface::poll+0x1696>
 8002798:	f8dd a110 	ldr.w	sl, [sp, #272]	@ 0x110
 800279c:	e05a      	b.n	8002854 <smoltcp::iface::interface::Interface::poll+0x1738>
 800279e:	2201      	movs	r2, #1
 80027a0:	f8c9 005c 	str.w	r0, [r9, #92]	@ 0x5c
 80027a4:	f8c9 2050 	str.w	r2, [r9, #80]	@ 0x50
 80027a8:	2200      	movs	r2, #0
 80027aa:	e9c9 2115 	strd	r2, r1, [r9, #84]	@ 0x54
 80027ae:	460a      	mov	r2, r1
 80027b0:	4603      	mov	r3, r0
 80027b2:	e9d9 540e 	ldrd	r5, r4, [r9, #56]	@ 0x38
 80027b6:	f8d9 6030 	ldr.w	r6, [r9, #48]	@ 0x30
 80027ba:	1952      	adds	r2, r2, r5
 80027bc:	4163      	adcs	r3, r4
 80027be:	07f6      	lsls	r6, r6, #31
 80027c0:	d00c      	beq.n	80027dc <smoltcp::iface::interface::Interface::poll+0x16c0>
 80027c2:	1a89      	subs	r1, r1, r2
 80027c4:	4198      	sbcs	r0, r3
 80027c6:	db09      	blt.n	80027dc <smoltcp::iface::interface::Interface::poll+0x16c0>
 80027c8:	f240 0019 	movw	r0, #25
 80027cc:	f2c0 0000 	movt	r0, #0
 80027d0:	f001 fdc3 	bl	800435a <defmt::export::acquire_header_and_release>
 80027d4:	2000      	movs	r0, #0
 80027d6:	f889 0133 	strb.w	r0, [r9, #307]	@ 0x133
 80027da:	e172      	b.n	8002ac2 <smoltcp::iface::interface::Interface::poll+0x19a6>
 80027dc:	9848      	ldr	r0, [sp, #288]	@ 0x120
 80027de:	68c1      	ldr	r1, [r0, #12]
 80027e0:	4648      	mov	r0, r9
 80027e2:	f003 fdf3 	bl	80063cc <smoltcp::socket::tcp::Socket::seq_to_transmit>
 80027e6:	2800      	cmp	r0, #0
 80027e8:	f040 816b 	bne.w	8002ac2 <smoltcp::iface::interface::Interface::poll+0x19a6>
 80027ec:	f8d9 0080 	ldr.w	r0, [r9, #128]	@ 0x80
 80027f0:	2802      	cmp	r0, #2
 80027f2:	f000 80e0 	beq.w	80029b6 <smoltcp::iface::interface::Interface::poll+0x189a>
 80027f6:	2801      	cmp	r0, #1
 80027f8:	f040 8163 	bne.w	8002ac2 <smoltcp::iface::interface::Interface::poll+0x19a6>
 80027fc:	9848      	ldr	r0, [sp, #288]	@ 0x120
 80027fe:	e9d9 3222 	ldrd	r3, r2, [r9, #136]	@ 0x88
 8002802:	e9d0 1004 	ldrd	r1, r0, [r0, #16]
 8002806:	1ace      	subs	r6, r1, r3
 8002808:	eb70 0602 	sbcs.w	r6, r0, r2
 800280c:	f2c0 8159 	blt.w	8002ac2 <smoltcp::iface::interface::Interface::poll+0x19a6>
 8002810:	1ac9      	subs	r1, r1, r3
 8002812:	e9d9 6424 	ldrd	r6, r4, [r9, #144]	@ 0x90
 8002816:	4190      	sbcs	r0, r2
 8002818:	ea81 71e0 	eor.w	r1, r1, r0, asr #31
 800281c:	ea80 72e0 	eor.w	r2, r0, r0, asr #31
 8002820:	ebb1 71e0 	subs.w	r1, r1, r0, asr #31
 8002824:	eb62 70e0 	sbc.w	r0, r2, r0, asr #31
 8002828:	1875      	adds	r5, r6, r1
 800282a:	eb44 0600 	adc.w	r6, r4, r0
 800282e:	e0c4      	b.n	80029ba <smoltcp::iface::interface::Interface::poll+0x189e>
 8002830:	2200      	movs	r2, #0
 8002832:	3001      	adds	r0, #1
 8002834:	f8dd a110 	ldr.w	sl, [sp, #272]	@ 0x110
 8002838:	fbb0 f3f1 	udiv	r3, r0, r1
 800283c:	f1bb 0b01 	subs.w	fp, fp, #1
 8002840:	fb03 0011 	mls	r0, r3, r1, r0
 8002844:	eba8 0106 	sub.w	r1, r8, r6
 8002848:	4665      	mov	r5, ip
 800284a:	e9c9 2112 	strd	r2, r1, [r9, #72]	@ 0x48
 800284e:	e9c9 0b0e 	strd	r0, fp, [r9, #56]	@ 0x38
 8002852:	d035      	beq.n	80028c0 <smoltcp::iface::interface::Interface::poll+0x17a4>
 8002854:	f8d9 3034 	ldr.w	r3, [r9, #52]	@ 0x34
 8002858:	2b00      	cmp	r3, #0
 800285a:	f000 853c 	beq.w	80032d6 <smoltcp::iface::interface::Interface::poll+0x21ba>
 800285e:	f8d9 0038 	ldr.w	r0, [r9, #56]	@ 0x38
 8002862:	9546      	str	r5, [sp, #280]	@ 0x118
 8002864:	4298      	cmp	r0, r3
 8002866:	f080 8568 	bcs.w	800333a <smoltcp::iface::interface::Interface::poll+0x221e>
 800286a:	e9d9 5811 	ldrd	r5, r8, [r9, #68]	@ 0x44
 800286e:	f8d9 404c 	ldr.w	r4, [r9, #76]	@ 0x4c
 8002872:	eba5 0608 	sub.w	r6, r5, r8
 8002876:	42a6      	cmp	r6, r4
 8002878:	bf28      	it	cs
 800287a:	4626      	movcs	r6, r4
 800287c:	eb16 0108 	adds.w	r1, r6, r8
 8002880:	f080 84c8 	bcs.w	8003214 <smoltcp::iface::interface::Interface::poll+0x20f8>
 8002884:	42a9      	cmp	r1, r5
 8002886:	f200 84c5 	bhi.w	8003214 <smoltcp::iface::interface::Interface::poll+0x20f8>
 800288a:	f8d9 2030 	ldr.w	r2, [r9, #48]	@ 0x30
 800288e:	eb00 0180 	add.w	r1, r0, r0, lsl #2
 8002892:	f8cd b10c 	str.w	fp, [sp, #268]	@ 0x10c
 8002896:	eb02 0b81 	add.w	fp, r2, r1, lsl #2
 800289a:	f89b 200e 	ldrb.w	r2, [fp, #14]
 800289e:	2a02      	cmp	r2, #2
 80028a0:	f000 84ec 	beq.w	800327c <smoltcp::iface::interface::Interface::poll+0x2160>
 80028a4:	f8db 1000 	ldr.w	r1, [fp]
 80028a8:	42b1      	cmp	r1, r6
 80028aa:	f200 84bb 	bhi.w	8003224 <smoltcp::iface::interface::Interface::poll+0x2108>
 80028ae:	f8d9 c040 	ldr.w	ip, [r9, #64]	@ 0x40
 80028b2:	07d2      	lsls	r2, r2, #31
 80028b4:	aa3e      	add	r2, sp, #248	@ 0xf8
 80028b6:	c219      	stmia	r2!, {r0, r3, r4}
 80028b8:	d007      	beq.n	80028ca <smoltcp::iface::interface::Interface::poll+0x17ae>
 80028ba:	f8db 300f 	ldr.w	r3, [fp, #15]
 80028be:	e015      	b.n	80028ec <smoltcp::iface::interface::Interface::poll+0x17d0>
 80028c0:	2203      	movs	r2, #3
 80028c2:	f04f 0c00 	mov.w	ip, #0
 80028c6:	f000 bc1f 	b.w	8003108 <smoltcp::iface::interface::Interface::poll+0x1fec>
 80028ca:	ea5f 32ca 	movs.w	r2, sl, lsl #15
 80028ce:	d408      	bmi.n	80028e2 <smoltcp::iface::interface::Interface::poll+0x17c6>
 80028d0:	9a48      	ldr	r2, [sp, #288]	@ 0x120
 80028d2:	f8d2 20f0 	ldr.w	r2, [r2, #240]	@ 0xf0
 80028d6:	2a00      	cmp	r2, #0
 80028d8:	f000 83fa 	beq.w	80030d0 <smoltcp::iface::interface::Interface::poll+0x1fb4>
 80028dc:	9a42      	ldr	r2, [sp, #264]	@ 0x108
 80028de:	6813      	ldr	r3, [r2, #0]
 80028e0:	e004      	b.n	80028ec <smoltcp::iface::interface::Interface::poll+0x17d0>
 80028e2:	983d      	ldr	r0, [sp, #244]	@ 0xf4
 80028e4:	ea4f 621a 	mov.w	r2, sl, lsr #24
 80028e8:	ea42 2300 	orr.w	r3, r2, r0, lsl #8
 80028ec:	eb0c 0008 	add.w	r0, ip, r8
 80028f0:	e9db 2a01 	ldrd	r2, sl, [fp, #4]
 80028f4:	f8bb c00c 	ldrh.w	ip, [fp, #12]
 80028f8:	2404      	movs	r4, #4
 80028fa:	e9cd 01bf 	strd	r0, r1, [sp, #764]	@ 0x2fc
 80028fe:	2003      	movs	r0, #3
 8002900:	e9cd 20bd 	strd	r2, r0, [sp, #756]	@ 0x2f4
 8002904:	9848      	ldr	r0, [sp, #288]	@ 0x120
 8002906:	90bc      	str	r0, [sp, #752]	@ 0x2f0
 8002908:	68b8      	ldr	r0, [r7, #8]
 800290a:	f88d 4359 	strb.w	r4, [sp, #857]	@ 0x359
 800290e:	f101 0408 	add.w	r4, r1, #8
 8002912:	e9d0 1004 	ldrd	r1, r0, [r0, #16]
 8002916:	e9cd 3ad3 	strd	r3, sl, [sp, #844]	@ 0x34c
 800291a:	9b44      	ldr	r3, [sp, #272]	@ 0x110
 800291c:	4288      	cmp	r0, r1
 800291e:	f88d e358 	strb.w	lr, [sp, #856]	@ 0x358
 8002922:	94d5      	str	r4, [sp, #852]	@ 0x354
 8002924:	f8cd a114 	str.w	sl, [sp, #276]	@ 0x114
 8002928:	f8ad c306 	strh.w	ip, [sp, #774]	@ 0x306
 800292c:	f8ad 3304 	strh.w	r3, [sp, #772]	@ 0x304
 8002930:	f080 84bb 	bcs.w	80032aa <smoltcp::iface::interface::Interface::poll+0x218e>
 8002934:	f44f 61c6 	mov.w	r1, #1584	@ 0x630
 8002938:	9b41      	ldr	r3, [sp, #260]	@ 0x104
 800293a:	4348      	muls	r0, r1
 800293c:	6819      	ldr	r1, [r3, #0]
 800293e:	5808      	ldr	r0, [r1, r0]
 8002940:	2800      	cmp	r0, #0
 8002942:	d415      	bmi.n	8002970 <smoltcp::iface::interface::Interface::poll+0x1854>
 8002944:	2000      	movs	r0, #0
 8002946:	93a5      	str	r3, [sp, #660]	@ 0x294
 8002948:	90a3      	str	r0, [sp, #652]	@ 0x28c
 800294a:	a9a3      	add	r1, sp, #652	@ 0x28c
 800294c:	9848      	ldr	r0, [sp, #288]	@ 0x120
 800294e:	9b36      	ldr	r3, [sp, #216]	@ 0xd8
 8002950:	f7fd fd04 	bl	800035c <smoltcp::iface::interface::InterfaceInner::dispatch_ip>
 8002954:	b2c0      	uxtb	r0, r0
 8002956:	2802      	cmp	r0, #2
 8002958:	d112      	bne.n	8002980 <smoltcp::iface::interface::Interface::poll+0x1864>
 800295a:	f8db 1000 	ldr.w	r1, [fp]
 800295e:	f04f 0c01 	mov.w	ip, #1
 8002962:	9c40      	ldr	r4, [sp, #256]	@ 0x100
 8002964:	9843      	ldr	r0, [sp, #268]	@ 0x10c
 8002966:	42b1      	cmp	r1, r6
 8002968:	f240 83b8 	bls.w	80030dc <smoltcp::iface::interface::Interface::poll+0x1fc0>
 800296c:	f000 bc75 	b.w	800325a <smoltcp::iface::interface::Interface::poll+0x213e>
 8002970:	f240 0025 	movw	r0, #37	@ 0x25
 8002974:	f2c0 0000 	movt	r0, #0
 8002978:	f001 fcef 	bl	800435a <defmt::export::acquire_header_and_release>
 800297c:	2200      	movs	r2, #0
 800297e:	e000      	b.n	8002982 <smoltcp::iface::interface::Interface::poll+0x1866>
 8002980:	2201      	movs	r2, #1
 8002982:	9c40      	ldr	r4, [sp, #256]	@ 0x100
 8002984:	2100      	movs	r1, #0
 8002986:	9843      	ldr	r0, [sp, #268]	@ 0x10c
 8002988:	f04f 0c01 	mov.w	ip, #1
 800298c:	2d00      	cmp	r5, #0
 800298e:	f000 83a9 	beq.w	80030e4 <smoltcp::iface::interface::Interface::poll+0x1fc8>
 8002992:	eb01 0308 	add.w	r3, r1, r8
 8002996:	fbb3 f6f5 	udiv	r6, r3, r5
 800299a:	fb06 3315 	mls	r3, r6, r5, r3
 800299e:	e3a2      	b.n	80030e6 <smoltcp::iface::interface::Interface::poll+0x1fca>
 80029a0:	f103 0050 	add.w	r0, r3, #80	@ 0x50
 80029a4:	e9d0 0102 	ldrd	r0, r1, [r0, #8]
 80029a8:	ebba 0000 	subs.w	r0, sl, r0
 80029ac:	eb7b 0001 	sbcs.w	r0, fp, r1
 80029b0:	f6ff ae86 	blt.w	80026c0 <smoltcp::iface::interface::Interface::poll+0x15a4>
 80029b4:	e692      	b.n	80026dc <smoltcp::iface::interface::Interface::poll+0x15c0>
 80029b6:	2500      	movs	r5, #0
 80029b8:	2600      	movs	r6, #0
 80029ba:	f240 0015 	movw	r0, #21
 80029be:	f2c0 0000 	movt	r0, #0
 80029c2:	f001 fcb9 	bl	8004338 <defmt::export::acquire_and_header>
 80029c6:	f240 0007 	movw	r0, #7
 80029ca:	acbc      	add	r4, sp, #752	@ 0x2f0
 80029cc:	f2c0 0000 	movt	r0, #0
 80029d0:	2102      	movs	r1, #2
 80029d2:	f8ad 02f0 	strh.w	r0, [sp, #752]	@ 0x2f0
 80029d6:	4620      	mov	r0, r4
 80029d8:	f001 fe60 	bl	800469c <_defmt_write>
 80029dc:	f240 0040 	movw	r0, #64	@ 0x40
 80029e0:	2102      	movs	r1, #2
 80029e2:	f2c0 0000 	movt	r0, #0
 80029e6:	f8ad 02f0 	strh.w	r0, [sp, #752]	@ 0x2f0
 80029ea:	4620      	mov	r0, r4
 80029ec:	f001 fe56 	bl	800469c <_defmt_write>
 80029f0:	f240 0805 	movw	r8, #5
 80029f4:	4620      	mov	r0, r4
 80029f6:	f2c0 0800 	movt	r8, #0
 80029fa:	2102      	movs	r1, #2
 80029fc:	f8ad 82f0 	strh.w	r8, [sp, #752]	@ 0x2f0
 8002a00:	f001 fe4c 	bl	800469c <_defmt_write>
 8002a04:	f244 2240 	movw	r2, #16960	@ 0x4240
 8002a08:	4628      	mov	r0, r5
 8002a0a:	4631      	mov	r1, r6
 8002a0c:	f2c0 020f 	movt	r2, #15
 8002a10:	2300      	movs	r3, #0
 8002a12:	f006 fd2b 	bl	800946c <__aeabi_uldivmod>
 8002a16:	e9cd 01bc 	strd	r0, r1, [sp, #752]	@ 0x2f0
 8002a1a:	4620      	mov	r0, r4
 8002a1c:	2108      	movs	r1, #8
 8002a1e:	f001 fe3d 	bl	800469c <_defmt_write>
 8002a22:	4620      	mov	r0, r4
 8002a24:	2102      	movs	r1, #2
 8002a26:	f8ad 82f0 	strh.w	r8, [sp, #752]	@ 0x2f0
 8002a2a:	f001 fe37 	bl	800469c <_defmt_write>
 8002a2e:	4628      	mov	r0, r5
 8002a30:	4631      	mov	r1, r6
 8002a32:	f44f 727a 	mov.w	r2, #1000	@ 0x3e8
 8002a36:	2300      	movs	r3, #0
 8002a38:	f006 fd18 	bl	800946c <__aeabi_uldivmod>
 8002a3c:	f44f 727a 	mov.w	r2, #1000	@ 0x3e8
 8002a40:	2300      	movs	r3, #0
 8002a42:	f006 fd13 	bl	800946c <__aeabi_uldivmod>
 8002a46:	4620      	mov	r0, r4
 8002a48:	2108      	movs	r1, #8
 8002a4a:	e9cd 23bc 	strd	r2, r3, [sp, #752]	@ 0x2f0
 8002a4e:	f001 fe25 	bl	800469c <_defmt_write>
 8002a52:	2500      	movs	r5, #0
 8002a54:	4620      	mov	r0, r4
 8002a56:	2102      	movs	r1, #2
 8002a58:	f8ad 52f0 	strh.w	r5, [sp, #752]	@ 0x2f0
 8002a5c:	f001 fe1e 	bl	800469c <_defmt_write>
 8002a60:	f001 fda4 	bl	80045ac <_defmt_release>
 8002a64:	9848      	ldr	r0, [sp, #288]	@ 0x120
 8002a66:	e9d9 6312 	ldrd	r6, r3, [r9, #72]	@ 0x48
 8002a6a:	e9d0 0104 	ldrd	r0, r1, [r0, #16]
 8002a6e:	f8d9 4100 	ldr.w	r4, [r9, #256]	@ 0x100
 8002a72:	1980      	adds	r0, r0, r6
 8002a74:	f999 2028 	ldrsb.w	r2, [r9, #40]	@ 0x28
 8002a78:	f8c9 4108 	str.w	r4, [r9, #264]	@ 0x108
 8002a7c:	f04f 0401 	mov.w	r4, #1
 8002a80:	4159      	adcs	r1, r3
 8002a82:	e9d9 ce10 	ldrd	ip, lr, [r9, #64]	@ 0x40
 8002a86:	fa82 f254 	uqadd8	r2, r2, r4
 8002a8a:	e9c9 5500 	strd	r5, r5, [r9]
 8002a8e:	e9c9 0124 	strd	r0, r1, [r9, #144]	@ 0x90
 8002a92:	b2d0      	uxtb	r0, r2
 8002a94:	2803      	cmp	r0, #3
 8002a96:	f889 2028 	strb.w	r2, [r9, #40]	@ 0x28
 8002a9a:	e9c9 5520 	strd	r5, r5, [r9, #128]	@ 0x80
 8002a9e:	e9c9 ce22 	strd	ip, lr, [r9, #136]	@ 0x88
 8002aa2:	d30e      	bcc.n	8002ac2 <smoltcp::iface::interface::Interface::poll+0x19a6>
 8002aa4:	f8d9 0020 	ldr.w	r0, [r9, #32]
 8002aa8:	2100      	movs	r1, #0
 8002aaa:	f889 1028 	strb.w	r1, [r9, #40]	@ 0x28
 8002aae:	f242 7210 	movw	r2, #10000	@ 0x2710
 8002ab2:	0041      	lsls	r1, r0, #1
 8002ab4:	4291      	cmp	r1, r2
 8002ab6:	f242 7110 	movw	r1, #10000	@ 0x2710
 8002aba:	bf38      	it	cc
 8002abc:	0041      	lslcc	r1, r0, #1
 8002abe:	f8c9 1020 	str.w	r1, [r9, #32]
 8002ac2:	9848      	ldr	r0, [sp, #288]	@ 0x120
 8002ac4:	68c1      	ldr	r1, [r0, #12]
 8002ac6:	4648      	mov	r0, r9
 8002ac8:	f003 fc80 	bl	80063cc <smoltcp::socket::tcp::Socket::seq_to_transmit>
 8002acc:	2800      	cmp	r0, #0
 8002ace:	d03e      	beq.n	8002b4e <smoltcp::iface::interface::Interface::poll+0x1a32>
 8002ad0:	f8b9 011c 	ldrh.w	r0, [r9, #284]	@ 0x11c
 8002ad4:	07c0      	lsls	r0, r0, #31
 8002ad6:	f000 83cb 	beq.w	8003270 <smoltcp::iface::interface::Interface::poll+0x2154>
 8002ada:	f899 112a 	ldrb.w	r1, [r9, #298]	@ 0x12a
 8002ade:	f44f 7a50 	mov.w	sl, #832	@ 0x340
 8002ae2:	f8d9 40c4 	ldr.w	r4, [r9, #196]	@ 0xc4
 8002ae6:	2900      	cmp	r1, #0
 8002ae8:	f899 012b 	ldrb.w	r0, [r9, #299]	@ 0x12b
 8002aec:	bf18      	it	ne
 8002aee:	f500 7a40 	addne.w	sl, r0, #768	@ 0x300
 8002af2:	f1b4 3fff 	cmp.w	r4, #4294967295	@ 0xffffffff
 8002af6:	f340 8358 	ble.w	80031aa <smoltcp::iface::interface::Interface::poll+0x208e>
 8002afa:	f8d9 011e 	ldr.w	r0, [r9, #286]	@ 0x11e
 8002afe:	903b      	str	r0, [sp, #236]	@ 0xec
 8002b00:	f8d9 0124 	ldr.w	r0, [r9, #292]	@ 0x124
 8002b04:	903f      	str	r0, [sp, #252]	@ 0xfc
 8002b06:	f8b9 0122 	ldrh.w	r0, [r9, #290]	@ 0x122
 8002b0a:	903a      	str	r0, [sp, #232]	@ 0xe8
 8002b0c:	f8b9 0128 	ldrh.w	r0, [r9, #296]	@ 0x128
 8002b10:	f899 1134 	ldrb.w	r1, [r9, #308]	@ 0x134
 8002b14:	9039      	str	r0, [sp, #228]	@ 0xe4
 8002b16:	f8d9 00bc 	ldr.w	r0, [r9, #188]	@ 0xbc
 8002b1a:	f001 011f 	and.w	r1, r1, #31
 8002b1e:	e9d9 5641 	ldrd	r5, r6, [r9, #260]	@ 0x104
 8002b22:	1b00      	subs	r0, r0, r4
 8002b24:	f8d9 2114 	ldr.w	r2, [r9, #276]	@ 0x114
 8002b28:	fa20 f101 	lsr.w	r1, r0, r1
 8002b2c:	f64f 70ff 	movw	r0, #65535	@ 0xffff
 8002b30:	4281      	cmp	r1, r0
 8002b32:	bf28      	it	cs
 8002b34:	4601      	movcs	r1, r0
 8002b36:	2a00      	cmp	r2, #0
 8002b38:	9140      	str	r1, [sp, #256]	@ 0x100
 8002b3a:	923c      	str	r2, [sp, #240]	@ 0xf0
 8002b3c:	f000 80c1 	beq.w	8002cc2 <smoltcp::iface::interface::Interface::poll+0x1ba6>
 8002b40:	f8d9 0118 	ldr.w	r0, [r9, #280]	@ 0x118
 8002b44:	9035      	str	r0, [sp, #212]	@ 0xd4
 8002b46:	4790      	blx	r2
 8002b48:	9034      	str	r0, [sp, #208]	@ 0xd0
 8002b4a:	2001      	movs	r0, #1
 8002b4c:	e0ba      	b.n	8002cc4 <smoltcp::iface::interface::Interface::poll+0x1ba8>
 8002b4e:	f8d9 1098 	ldr.w	r1, [r9, #152]	@ 0x98
 8002b52:	2901      	cmp	r1, #1
 8002b54:	d10f      	bne.n	8002b76 <smoltcp::iface::interface::Interface::poll+0x1a5a>
 8002b56:	f8d9 00c4 	ldr.w	r0, [r9, #196]	@ 0xc4
 8002b5a:	f1b0 3fff 	cmp.w	r0, #4294967295	@ 0xffffffff
 8002b5e:	f340 8324 	ble.w	80031aa <smoltcp::iface::interface::Interface::poll+0x208e>
 8002b62:	f8d9 3104 	ldr.w	r3, [r9, #260]	@ 0x104
 8002b66:	f8d9 209c 	ldr.w	r2, [r9, #156]	@ 0x9c
 8002b6a:	4418      	add	r0, r3
 8002b6c:	1a10      	subs	r0, r2, r0
 8002b6e:	f1b0 3fff 	cmp.w	r0, #4294967295	@ 0xffffffff
 8002b72:	f340 8145 	ble.w	8002e00 <smoltcp::iface::interface::Interface::poll+0x1ce4>
 8002b76:	f899 0133 	ldrb.w	r0, [r9, #307]	@ 0x133
 8002b7a:	1e82      	subs	r2, r0, #2
 8002b7c:	2a04      	cmp	r2, #4
 8002b7e:	d834      	bhi.n	8002bea <smoltcp::iface::interface::Interface::poll+0x1ace>
 8002b80:	f899 2134 	ldrb.w	r2, [r9, #308]	@ 0x134
 8002b84:	f8d9 30bc 	ldr.w	r3, [r9, #188]	@ 0xbc
 8002b88:	f8d9 50c4 	ldr.w	r5, [r9, #196]	@ 0xc4
 8002b8c:	f002 021f 	and.w	r2, r2, #31
 8002b90:	1b5b      	subs	r3, r3, r5
 8002b92:	fa23 f602 	lsr.w	r6, r3, r2
 8002b96:	f64f 73ff 	movw	r3, #65535	@ 0xffff
 8002b9a:	429e      	cmp	r6, r3
 8002b9c:	bf38      	it	cc
 8002b9e:	4633      	movcc	r3, r6
 8002ba0:	b319      	cbz	r1, 8002bea <smoltcp::iface::interface::Interface::poll+0x1ace>
 8002ba2:	f1b5 3fff 	cmp.w	r5, #4294967295	@ 0xffffffff
 8002ba6:	bfc2      	ittt	gt
 8002ba8:	f8b9 112e 	ldrhgt.w	r1, [r9, #302]	@ 0x12e
 8002bac:	4091      	lslgt	r1, r2
 8002bae:	f1b1 3fff 	cmpgt.w	r1, #4294967295	@ 0xffffffff
 8002bb2:	f340 82fa 	ble.w	80031aa <smoltcp::iface::interface::Interface::poll+0x208e>
 8002bb6:	f8d9 409c 	ldr.w	r4, [r9, #156]	@ 0x9c
 8002bba:	f8d9 c104 	ldr.w	ip, [r9, #260]	@ 0x104
 8002bbe:	4421      	add	r1, r4
 8002bc0:	4465      	add	r5, ip
 8002bc2:	1b49      	subs	r1, r1, r5
 8002bc4:	f1b1 3fff 	cmp.w	r1, #4294967295	@ 0xffffffff
 8002bc8:	f340 835e 	ble.w	8003288 <smoltcp::iface::interface::Interface::poll+0x216c>
 8002bcc:	b16e      	cbz	r6, 8002bea <smoltcp::iface::interface::Interface::poll+0x1ace>
 8002bce:	40d1      	lsrs	r1, r2
 8002bd0:	f64f 72ff 	movw	r2, #65535	@ 0xffff
 8002bd4:	4291      	cmp	r1, r2
 8002bd6:	bf28      	it	cs
 8002bd8:	4611      	movcs	r1, r2
 8002bda:	ebb1 0f53 	cmp.w	r1, r3, lsr #1
 8002bde:	f04f 0100 	mov.w	r1, #0
 8002be2:	bf98      	it	ls
 8002be4:	2101      	movls	r1, #1
 8002be6:	b121      	cbz	r1, 8002bf2 <smoltcp::iface::interface::Interface::poll+0x1ad6>
 8002be8:	e772      	b.n	8002ad0 <smoltcp::iface::interface::Interface::poll+0x19b4>
 8002bea:	2100      	movs	r1, #0
 8002bec:	2900      	cmp	r1, #0
 8002bee:	f47f af6f 	bne.w	8002ad0 <smoltcp::iface::interface::Interface::poll+0x19b4>
 8002bf2:	2800      	cmp	r0, #0
 8002bf4:	f43f af6c 	beq.w	8002ad0 <smoltcp::iface::interface::Interface::poll+0x19b4>
 8002bf8:	4648      	mov	r0, r9
 8002bfa:	9948      	ldr	r1, [sp, #288]	@ 0x120
 8002bfc:	f850 5f80 	ldr.w	r5, [r0, #128]!
 8002c00:	f100 0c04 	add.w	ip, r0, #4
 8002c04:	e9d1 2e04 	ldrd	r2, lr, [r1, #16]
 8002c08:	e89c 1050 	ldmia.w	ip, {r4, r6, ip}
 8002c0c:	ea55 0304 	orrs.w	r3, r5, r4
 8002c10:	d108      	bne.n	8002c24 <smoltcp::iface::interface::Interface::poll+0x1b08>
 8002c12:	07f3      	lsls	r3, r6, #31
 8002c14:	d006      	beq.n	8002c24 <smoltcp::iface::interface::Interface::poll+0x1b08>
 8002c16:	e9d0 3104 	ldrd	r3, r1, [r0, #16]
 8002c1a:	1ad3      	subs	r3, r2, r3
 8002c1c:	eb7e 0101 	sbcs.w	r1, lr, r1
 8002c20:	f6bf af56 	bge.w	8002ad0 <smoltcp::iface::interface::Interface::poll+0x19b4>
 8002c24:	f085 0103 	eor.w	r1, r5, #3
 8002c28:	9d46      	ldr	r5, [sp, #280]	@ 0x118
 8002c2a:	4321      	orrs	r1, r4
 8002c2c:	f47f acc4 	bne.w	80025b8 <smoltcp::iface::interface::Interface::poll+0x149c>
 8002c30:	1b91      	subs	r1, r2, r6
 8002c32:	eb7e 010c 	sbcs.w	r1, lr, ip
 8002c36:	f6ff acbf 	blt.w	80025b8 <smoltcp::iface::interface::Interface::poll+0x149c>
 8002c3a:	462e      	mov	r6, r5
 8002c3c:	2500      	movs	r5, #0
 8002c3e:	e9c0 5500 	strd	r5, r5, [r0]
 8002c42:	f44f 7196 	mov.w	r1, #300	@ 0x12c
 8002c46:	e9c0 5502 	strd	r5, r5, [r0, #8]
 8002c4a:	2064      	movs	r0, #100	@ 0x64
 8002c4c:	e9c9 1008 	strd	r1, r0, [r9, #32]
 8002c50:	f109 00d0 	add.w	r0, r9, #208	@ 0xd0
 8002c54:	2128      	movs	r1, #40	@ 0x28
 8002c56:	e9c9 5500 	strd	r5, r5, [r9]
 8002c5a:	f889 5133 	strb.w	r5, [r9, #307]	@ 0x133
 8002c5e:	f8c9 5018 	str.w	r5, [r9, #24]
 8002c62:	f889 5130 	strb.w	r5, [r9, #304]	@ 0x130
 8002c66:	e9c9 5530 	strd	r5, r5, [r9, #192]	@ 0xc0
 8002c6a:	f889 5028 	strb.w	r5, [r9, #40]	@ 0x28
 8002c6e:	f8d9 40bc 	ldr.w	r4, [r9, #188]	@ 0xbc
 8002c72:	f8a9 511c 	strh.w	r5, [r9, #284]	@ 0x11c
 8002c76:	f889 50b2 	strb.w	r5, [r9, #178]	@ 0xb2
 8002c7a:	f8a9 50b0 	strh.w	r5, [r9, #176]	@ 0xb0
 8002c7e:	f8a9 512e 	strh.w	r5, [r9, #302]	@ 0x12e
 8002c82:	f8c9 5098 	str.w	r5, [r9, #152]	@ 0x98
 8002c86:	f889 512c 	strb.w	r5, [r9, #300]	@ 0x12c
 8002c8a:	e9c9 5540 	strd	r5, r5, [r9, #256]	@ 0x100
 8002c8e:	e9c9 5542 	strd	r5, r5, [r9, #264]	@ 0x108
 8002c92:	f005 fdad 	bl	80087f0 <__aeabi_memclr8>
 8002c96:	f44f 7006 	mov.w	r0, #536	@ 0x218
 8002c9a:	e9c9 553e 	strd	r5, r5, [r9, #248]	@ 0xf8
 8002c9e:	f8c9 0110 	str.w	r0, [r9, #272]	@ 0x110
 8002ca2:	fab4 f084 	clz	r0, r4
 8002ca6:	f1c0 0110 	rsb	r1, r0, #16
 8002caa:	2210      	movs	r2, #16
 8002cac:	e9c9 551c 	strd	r5, r5, [r9, #112]	@ 0x70
 8002cb0:	4282      	cmp	r2, r0
 8002cb2:	e9c9 5514 	strd	r5, r5, [r9, #80]	@ 0x50
 8002cb6:	bf38      	it	cc
 8002cb8:	4629      	movcc	r1, r5
 8002cba:	4635      	mov	r5, r6
 8002cbc:	f889 1134 	strb.w	r1, [r9, #308]	@ 0x134
 8002cc0:	e47a      	b.n	80025b8 <smoltcp::iface::interface::Interface::poll+0x149c>
 8002cc2:	2000      	movs	r0, #0
 8002cc4:	9038      	str	r0, [sp, #224]	@ 0xe0
 8002cc6:	1960      	adds	r0, r4, r5
 8002cc8:	f899 4133 	ldrb.w	r4, [r9, #307]	@ 0x133
 8002ccc:	f04f 0800 	mov.w	r8, #0
 8002cd0:	903e      	str	r0, [sp, #248]	@ 0xf8
 8002cd2:	2001      	movs	r0, #1
 8002cd4:	963d      	str	r6, [sp, #244]	@ 0xf4
 8002cd6:	2101      	movs	r1, #1
 8002cd8:	9043      	str	r0, [sp, #268]	@ 0x10c
 8002cda:	2000      	movs	r0, #0
 8002cdc:	2300      	movs	r3, #0
 8002cde:	2600      	movs	r6, #0
 8002ce0:	9044      	str	r0, [sp, #272]	@ 0x110
 8002ce2:	f04f 0b01 	mov.w	fp, #1
 8002ce6:	f04f 0e00 	mov.w	lr, #0
 8002cea:	9d46      	ldr	r5, [sp, #280]	@ 0x118
 8002cec:	e8df f004 	tbb	[pc, r4]
 8002cf0:	4b4b069a 	.word	0x4b4b069a
 8002cf4:	07b10707 	.word	0x07b10707
 8002cf8:	00b10707 	.word	0x00b10707
 8002cfc:	e45c      	b.n	80025b8 <smoltcp::iface::interface::Interface::poll+0x149c>
 8002cfe:	f8d9 010c 	ldr.w	r0, [r9, #268]	@ 0x10c
 8002d02:	f1b0 3fff 	cmp.w	r0, #4294967295	@ 0xffffffff
 8002d06:	f340 8250 	ble.w	80031aa <smoltcp::iface::interface::Interface::poll+0x208e>
 8002d0a:	f8d9 2100 	ldr.w	r2, [r9, #256]	@ 0x100
 8002d0e:	9948      	ldr	r1, [sp, #288]	@ 0x120
 8002d10:	f8d9 3108 	ldr.w	r3, [r9, #264]	@ 0x108
 8002d14:	4410      	add	r0, r2
 8002d16:	f8d9 5110 	ldr.w	r5, [r9, #272]	@ 0x110
 8002d1a:	1ac0      	subs	r0, r0, r3
 8002d1c:	68ce      	ldr	r6, [r1, #12]
 8002d1e:	ea20 71e0 	bic.w	r1, r0, r0, asr #31
 8002d22:	f1a6 0036 	sub.w	r0, r6, #54	@ 0x36
 8002d26:	428d      	cmp	r5, r1
 8002d28:	bf38      	it	cc
 8002d2a:	4629      	movcc	r1, r5
 8002d2c:	4288      	cmp	r0, r1
 8002d2e:	bf38      	it	cc
 8002d30:	4601      	movcc	r1, r0
 8002d32:	1a9b      	subs	r3, r3, r2
 8002d34:	f100 82a8 	bmi.w	8003288 <smoltcp::iface::interface::Interface::poll+0x216c>
 8002d38:	f8d9 20cc 	ldr.w	r2, [r9, #204]	@ 0xcc
 8002d3c:	2a00      	cmp	r2, #0
 8002d3e:	d03c      	beq.n	8002dba <smoltcp::iface::interface::Interface::poll+0x1c9e>
 8002d40:	f8d9 00d0 	ldr.w	r0, [r9, #208]	@ 0xd0
 8002d44:	4418      	add	r0, r3
 8002d46:	fbb0 f6f2 	udiv	r6, r0, r2
 8002d4a:	fb06 0012 	mls	r0, r6, r2, r0
 8002d4e:	f8d9 50d4 	ldr.w	r5, [r9, #212]	@ 0xd4
 8002d52:	429d      	cmp	r5, r3
 8002d54:	d236      	bcs.n	8002dc4 <smoltcp::iface::interface::Interface::poll+0x1ca8>
 8002d56:	2101      	movs	r1, #1
 8002d58:	eb08 0003 	add.w	r0, r8, r3
 8002d5c:	42a8      	cmp	r0, r5
 8002d5e:	d148      	bne.n	8002df2 <smoltcp::iface::interface::Interface::poll+0x1cd6>
 8002d60:	3c04      	subs	r4, #4
 8002d62:	2001      	movs	r0, #1
 8002d64:	2300      	movs	r3, #0
 8002d66:	2c05      	cmp	r4, #5
 8002d68:	9043      	str	r0, [sp, #268]	@ 0x10c
 8002d6a:	d845      	bhi.n	8002df8 <smoltcp::iface::interface::Interface::poll+0x1cdc>
 8002d6c:	2200      	movs	r2, #0
 8002d6e:	2600      	movs	r6, #0
 8002d70:	9244      	str	r2, [sp, #272]	@ 0x110
 8002d72:	e8df f014 	tbh	[pc, r4, lsl #1]
 8002d76:	01ec      	.short	0x01ec
 8002d78:	006e0006 	.word	0x006e0006
 8002d7c:	000601ec 	.word	0x000601ec
 8002d80:	0006      	.short	0x0006
 8002d82:	2003      	movs	r0, #3
 8002d84:	e04f      	b.n	8002e26 <smoltcp::iface::interface::Interface::poll+0x1d0a>
 8002d86:	f8d9 00bc 	ldr.w	r0, [r9, #188]	@ 0xbc
 8002d8a:	f8d9 10c4 	ldr.w	r1, [r9, #196]	@ 0xc4
 8002d8e:	f8d9 2100 	ldr.w	r2, [r9, #256]	@ 0x100
 8002d92:	1a41      	subs	r1, r0, r1
 8002d94:	f64f 70ff 	movw	r0, #65535	@ 0xffff
 8002d98:	4281      	cmp	r1, r0
 8002d9a:	923d      	str	r2, [sp, #244]	@ 0xf4
 8002d9c:	bf28      	it	cs
 8002d9e:	4601      	movcs	r1, r0
 8002da0:	2c02      	cmp	r4, #2
 8002da2:	9140      	str	r1, [sp, #256]	@ 0x100
 8002da4:	d145      	bne.n	8002e32 <smoltcp::iface::interface::Interface::poll+0x1d16>
 8002da6:	f899 0134 	ldrb.w	r0, [r9, #308]	@ 0x134
 8002daa:	2101      	movs	r1, #1
 8002dac:	9030      	str	r0, [sp, #192]	@ 0xc0
 8002dae:	2000      	movs	r0, #0
 8002db0:	9043      	str	r0, [sp, #268]	@ 0x10c
 8002db2:	2002      	movs	r0, #2
 8002db4:	2301      	movs	r3, #1
 8002db6:	2601      	movs	r6, #1
 8002db8:	e046      	b.n	8002e48 <smoltcp::iface::interface::Interface::poll+0x1d2c>
 8002dba:	2000      	movs	r0, #0
 8002dbc:	f8d9 50d4 	ldr.w	r5, [r9, #212]	@ 0xd4
 8002dc0:	429d      	cmp	r5, r3
 8002dc2:	d3c8      	bcc.n	8002d56 <smoltcp::iface::interface::Interface::poll+0x1c3a>
 8002dc4:	eba5 0803 	sub.w	r8, r5, r3
 8002dc8:	4541      	cmp	r1, r8
 8002dca:	bf38      	it	cc
 8002dcc:	4688      	movcc	r8, r1
 8002dce:	1a11      	subs	r1, r2, r0
 8002dd0:	4588      	cmp	r8, r1
 8002dd2:	bf28      	it	cs
 8002dd4:	4688      	movcs	r8, r1
 8002dd6:	eb18 0100 	adds.w	r1, r8, r0
 8002dda:	f080 8260 	bcs.w	800329e <smoltcp::iface::interface::Interface::poll+0x2182>
 8002dde:	4291      	cmp	r1, r2
 8002de0:	f200 825d 	bhi.w	800329e <smoltcp::iface::interface::Interface::poll+0x2182>
 8002de4:	f8d9 10c8 	ldr.w	r1, [r9, #200]	@ 0xc8
 8002de8:	4401      	add	r1, r0
 8002dea:	eb08 0003 	add.w	r0, r8, r3
 8002dee:	42a8      	cmp	r0, r5
 8002df0:	d0b6      	beq.n	8002d60 <smoltcp::iface::interface::Interface::poll+0x1c44>
 8002df2:	2001      	movs	r0, #1
 8002df4:	2300      	movs	r3, #0
 8002df6:	9043      	str	r0, [sp, #268]	@ 0x10c
 8002df8:	2600      	movs	r6, #0
 8002dfa:	2000      	movs	r0, #0
 8002dfc:	9044      	str	r0, [sp, #272]	@ 0x110
 8002dfe:	e028      	b.n	8002e52 <smoltcp::iface::interface::Interface::poll+0x1d36>
 8002e00:	e9d9 021c 	ldrd	r0, r2, [r9, #112]	@ 0x70
 8002e04:	f080 0001 	eor.w	r0, r0, #1
 8002e08:	4310      	orrs	r0, r2
 8002e0a:	f47f ae61 	bne.w	8002ad0 <smoltcp::iface::interface::Interface::poll+0x19b4>
 8002e0e:	9b48      	ldr	r3, [sp, #288]	@ 0x120
 8002e10:	e9d9 021e 	ldrd	r0, r2, [r9, #120]	@ 0x78
 8002e14:	e9d3 3604 	ldrd	r3, r6, [r3, #16]
 8002e18:	1a18      	subs	r0, r3, r0
 8002e1a:	eb76 0002 	sbcs.w	r0, r6, r2
 8002e1e:	f6bf ae57 	bge.w	8002ad0 <smoltcp::iface::interface::Interface::poll+0x19b4>
 8002e22:	e6a8      	b.n	8002b76 <smoltcp::iface::interface::Interface::poll+0x1a5a>
 8002e24:	2004      	movs	r0, #4
 8002e26:	9044      	str	r0, [sp, #272]	@ 0x110
 8002e28:	2001      	movs	r0, #1
 8002e2a:	9043      	str	r0, [sp, #268]	@ 0x10c
 8002e2c:	f04f 0b00 	mov.w	fp, #0
 8002e30:	e00f      	b.n	8002e52 <smoltcp::iface::interface::Interface::poll+0x1d36>
 8002e32:	2001      	movs	r0, #1
 8002e34:	f899 312c 	ldrb.w	r3, [r9, #300]	@ 0x12c
 8002e38:	9043      	str	r0, [sp, #268]	@ 0x10c
 8002e3a:	2101      	movs	r1, #1
 8002e3c:	f899 0134 	ldrb.w	r0, [r9, #308]	@ 0x134
 8002e40:	9030      	str	r0, [sp, #192]	@ 0xc0
 8002e42:	2002      	movs	r0, #2
 8002e44:	f899 6131 	ldrb.w	r6, [r9, #305]	@ 0x131
 8002e48:	9044      	str	r0, [sp, #272]	@ 0x110
 8002e4a:	f04f 0b00 	mov.w	fp, #0
 8002e4e:	f04f 0e01 	mov.w	lr, #1
 8002e52:	9637      	str	r6, [sp, #220]	@ 0xdc
 8002e54:	f109 0680 	add.w	r6, r9, #128	@ 0x80
 8002e58:	9848      	ldr	r0, [sp, #288]	@ 0x120
 8002e5a:	468c      	mov	ip, r1
 8002e5c:	ce70      	ldmia	r6, {r4, r5, r6}
 8002e5e:	9345      	str	r3, [sp, #276]	@ 0x114
 8002e60:	4325      	orrs	r5, r4
 8002e62:	e9d9 1224 	ldrd	r1, r2, [r9, #144]	@ 0x90
 8002e66:	fab5 f585 	clz	r5, r5
 8002e6a:	e9d0 3004 	ldrd	r3, r0, [r0, #16]
 8002e6e:	096d      	lsrs	r5, r5, #5
 8002e70:	402e      	ands	r6, r5
 8002e72:	1a59      	subs	r1, r3, r1
 8002e74:	4190      	sbcs	r0, r2
 8002e76:	fab8 f188 	clz	r1, r8
 8002e7a:	f04f 0000 	mov.w	r0, #0
 8002e7e:	bfa8      	it	ge
 8002e80:	2001      	movge	r0, #1
 8002e82:	0949      	lsrs	r1, r1, #5
 8002e84:	4030      	ands	r0, r6
 8002e86:	ea00 000b 	and.w	r0, r0, fp
 8002e8a:	ea10 0201 	ands.w	r2, r0, r1
 8002e8e:	9232      	str	r2, [sp, #200]	@ 0xc8
 8002e90:	d00a      	beq.n	8002ea8 <smoltcp::iface::interface::Interface::poll+0x1d8c>
 8002e92:	f8dd b0f4 	ldr.w	fp, [sp, #244]	@ 0xf4
 8002e96:	f649 3c88 	movw	ip, #39816	@ 0x9b88
 8002e9a:	f04f 0801 	mov.w	r8, #1
 8002e9e:	f6c0 0c00 	movt	ip, #2048	@ 0x800
 8002ea2:	f1ab 0b01 	sub.w	fp, fp, #1
 8002ea6:	e017      	b.n	8002ed8 <smoltcp::iface::interface::Interface::poll+0x1dbc>
 8002ea8:	f8dd b0f4 	ldr.w	fp, [sp, #244]	@ 0xf4
 8002eac:	f1b8 0f00 	cmp.w	r8, #0
 8002eb0:	d008      	beq.n	8002ec4 <smoltcp::iface::interface::Interface::poll+0x1da8>
 8002eb2:	f8d9 0100 	ldr.w	r0, [r9, #256]	@ 0x100
 8002eb6:	f8d9 1108 	ldr.w	r1, [r9, #264]	@ 0x108
 8002eba:	1a08      	subs	r0, r1, r0
 8002ebc:	f1b0 3fff 	cmp.w	r0, #4294967295	@ 0xffffffff
 8002ec0:	f340 81e2 	ble.w	8003288 <smoltcp::iface::interface::Interface::poll+0x216c>
 8002ec4:	f1be 0f00 	cmp.w	lr, #0
 8002ec8:	d006      	beq.n	8002ed8 <smoltcp::iface::interface::Interface::poll+0x1dbc>
 8002eca:	9848      	ldr	r0, [sp, #288]	@ 0x120
 8002ecc:	2318      	movs	r3, #24
 8002ece:	8980      	ldrh	r0, [r0, #12]
 8002ed0:	3836      	subs	r0, #54	@ 0x36
 8002ed2:	9031      	str	r0, [sp, #196]	@ 0xc4
 8002ed4:	2001      	movs	r0, #1
 8002ed6:	e001      	b.n	8002edc <smoltcp::iface::interface::Interface::poll+0x1dc0>
 8002ed8:	2000      	movs	r0, #0
 8002eda:	2314      	movs	r3, #20
 8002edc:	9944      	ldr	r1, [sp, #272]	@ 0x110
 8002ede:	f88d 1349 	strb.w	r1, [sp, #841]	@ 0x349
 8002ee2:	9940      	ldr	r1, [sp, #256]	@ 0x100
 8002ee4:	f8ad 1346 	strh.w	r1, [sp, #838]	@ 0x346
 8002ee8:	9939      	ldr	r1, [sp, #228]	@ 0xe4
 8002eea:	f8ad 1344 	strh.w	r1, [sp, #836]	@ 0x344
 8002eee:	993a      	ldr	r1, [sp, #232]	@ 0xe8
 8002ef0:	f8ad 1342 	strh.w	r1, [sp, #834]	@ 0x342
 8002ef4:	9930      	ldr	r1, [sp, #192]	@ 0xc0
 8002ef6:	f8ad 0330 	strh.w	r0, [sp, #816]	@ 0x330
 8002efa:	9835      	ldr	r0, [sp, #212]	@ 0xd4
 8002efc:	f88d 1341 	strb.w	r1, [sp, #833]	@ 0x341
 8002f00:	9931      	ldr	r1, [sp, #196]	@ 0xc4
 8002f02:	90cb      	str	r0, [sp, #812]	@ 0x32c
 8002f04:	9834      	ldr	r0, [sp, #208]	@ 0xd0
 8002f06:	f8ad 1332 	strh.w	r1, [sp, #818]	@ 0x332
 8002f0a:	90ca      	str	r0, [sp, #808]	@ 0x328
 8002f0c:	9838      	ldr	r0, [sp, #224]	@ 0xe0
 8002f0e:	993e      	ldr	r1, [sp, #248]	@ 0xf8
 8002f10:	9a45      	ldr	r2, [sp, #276]	@ 0x114
 8002f12:	9e37      	ldr	r6, [sp, #220]	@ 0xdc
 8002f14:	90c9      	str	r0, [sp, #804]	@ 0x324
 8002f16:	2000      	movs	r0, #0
 8002f18:	91bf      	str	r1, [sp, #764]	@ 0x2fc
 8002f1a:	2a00      	cmp	r2, #0
 8002f1c:	9943      	ldr	r1, [sp, #268]	@ 0x10c
 8002f1e:	91be      	str	r1, [sp, #760]	@ 0x2f8
 8002f20:	9c3f      	ldr	r4, [sp, #252]	@ 0xfc
 8002f22:	993b      	ldr	r1, [sp, #236]	@ 0xec
 8002f24:	90c6      	str	r0, [sp, #792]	@ 0x318
 8002f26:	90c3      	str	r0, [sp, #780]	@ 0x30c
 8002f28:	90c0      	str	r0, [sp, #768]	@ 0x300
 8002f2a:	90bd      	str	r0, [sp, #756]	@ 0x2f4
 8002f2c:	9848      	ldr	r0, [sp, #288]	@ 0x120
 8002f2e:	9d46      	ldr	r5, [sp, #280]	@ 0x118
 8002f30:	f88d 6348 	strb.w	r6, [sp, #840]	@ 0x348
 8002f34:	f88d 2340 	strb.w	r2, [sp, #832]	@ 0x340
 8002f38:	f8cd b33c 	str.w	fp, [sp, #828]	@ 0x33c
 8002f3c:	e9cd c8cd 	strd	ip, r8, [sp, #820]	@ 0x334
 8002f40:	f8cd a358 	str.w	sl, [sp, #856]	@ 0x358
 8002f44:	94d4      	str	r4, [sp, #848]	@ 0x350
 8002f46:	91d3      	str	r1, [sp, #844]	@ 0x34c
 8002f48:	90bc      	str	r0, [sp, #752]	@ 0x2f0
 8002f4a:	bf18      	it	ne
 8002f4c:	f043 0303 	orrne.w	r3, r3, #3
 8002f50:	993c      	ldr	r1, [sp, #240]	@ 0xf0
 8002f52:	eb03 0046 	add.w	r0, r3, r6, lsl #1
 8002f56:	2900      	cmp	r1, #0
 8002f58:	bf18      	it	ne
 8002f5a:	300a      	addne	r0, #10
 8002f5c:	3003      	adds	r0, #3
 8002f5e:	f020 0003 	bic.w	r0, r0, #3
 8002f62:	4440      	add	r0, r8
 8002f64:	90d5      	str	r0, [sp, #852]	@ 0x354
 8002f66:	68b8      	ldr	r0, [r7, #8]
 8002f68:	e9d0 1004 	ldrd	r1, r0, [r0, #16]
 8002f6c:	4288      	cmp	r0, r1
 8002f6e:	f080 819c 	bcs.w	80032aa <smoltcp::iface::interface::Interface::poll+0x218e>
 8002f72:	f44f 61c6 	mov.w	r1, #1584	@ 0x630
 8002f76:	9a41      	ldr	r2, [sp, #260]	@ 0x104
 8002f78:	4348      	muls	r0, r1
 8002f7a:	6811      	ldr	r1, [r2, #0]
 8002f7c:	5808      	ldr	r0, [r1, r0]
 8002f7e:	2800      	cmp	r0, #0
 8002f80:	f100 811e 	bmi.w	80031c0 <smoltcp::iface::interface::Interface::poll+0x20a4>
 8002f84:	2000      	movs	r0, #0
 8002f86:	9b36      	ldr	r3, [sp, #216]	@ 0xd8
 8002f88:	90a3      	str	r0, [sp, #652]	@ 0x28c
 8002f8a:	a9a3      	add	r1, sp, #652	@ 0x28c
 8002f8c:	9848      	ldr	r0, [sp, #288]	@ 0x120
 8002f8e:	92a5      	str	r2, [sp, #660]	@ 0x294
 8002f90:	2200      	movs	r2, #0
 8002f92:	f7fd f9e3 	bl	800035c <smoltcp::iface::interface::InterfaceInner::dispatch_ip>
 8002f96:	b2c0      	uxtb	r0, r0
 8002f98:	2802      	cmp	r0, #2
 8002f9a:	d13d      	bne.n	8003018 <smoltcp::iface::interface::Interface::poll+0x1efc>
 8002f9c:	e9d9 0120 	ldrd	r0, r1, [r9, #128]	@ 0x80
 8002fa0:	4308      	orrs	r0, r1
 8002fa2:	d10c      	bne.n	8002fbe <smoltcp::iface::interface::Interface::poll+0x1ea2>
 8002fa4:	9e48      	ldr	r6, [sp, #288]	@ 0x120
 8002fa6:	f109 0340 	add.w	r3, r9, #64	@ 0x40
 8002faa:	f109 0c88 	add.w	ip, r9, #136	@ 0x88
 8002fae:	e9d6 6504 	ldrd	r6, r5, [r6, #16]
 8002fb2:	cb0f      	ldmia	r3, {r0, r1, r2, r3}
 8002fb4:	1992      	adds	r2, r2, r6
 8002fb6:	416b      	adcs	r3, r5
 8002fb8:	9d46      	ldr	r5, [sp, #280]	@ 0x118
 8002fba:	e88c 000f 	stmia.w	ip, {r0, r1, r2, r3}
 8002fbe:	2000      	movs	r0, #0
 8002fc0:	9445      	str	r4, [sp, #276]	@ 0x114
 8002fc2:	e9c9 001c 	strd	r0, r0, [r9, #112]	@ 0x70
 8002fc6:	9832      	ldr	r0, [sp, #200]	@ 0xc8
 8002fc8:	2800      	cmp	r0, #0
 8002fca:	f47f aaf5 	bne.w	80025b8 <smoltcp::iface::interface::Interface::poll+0x149c>
 8002fce:	9844      	ldr	r0, [sp, #272]	@ 0x110
 8002fd0:	f000 0106 	and.w	r1, r0, #6
 8002fd4:	4640      	mov	r0, r8
 8002fd6:	2902      	cmp	r1, #2
 8002fd8:	bf08      	it	eq
 8002fda:	3001      	addeq	r0, #1
 8002fdc:	f1b0 3fff 	cmp.w	r0, #4294967295	@ 0xffffffff
 8002fe0:	f340 80e3 	ble.w	80031aa <smoltcp::iface::interface::Interface::poll+0x208e>
 8002fe4:	9a40      	ldr	r2, [sp, #256]	@ 0x100
 8002fe6:	4458      	add	r0, fp
 8002fe8:	f8a9 212e 	strh.w	r2, [r9, #302]	@ 0x12e
 8002fec:	2902      	cmp	r1, #2
 8002fee:	9a3e      	ldr	r2, [sp, #248]	@ 0xf8
 8002ff0:	f04f 0100 	mov.w	r1, #0
 8002ff4:	9b43      	ldr	r3, [sp, #268]	@ 0x10c
 8002ff6:	f8c9 0108 	str.w	r0, [r9, #264]	@ 0x108
 8002ffa:	e9c9 3226 	strd	r3, r2, [r9, #152]	@ 0x98
 8002ffe:	bf08      	it	eq
 8003000:	f04f 31ff 	moveq.w	r1, #4294967295	@ 0xffffffff
 8003004:	4588      	cmp	r8, r1
 8003006:	d109      	bne.n	800301c <smoltcp::iface::interface::Interface::poll+0x1f00>
 8003008:	9848      	ldr	r0, [sp, #288]	@ 0x120
 800300a:	68c1      	ldr	r1, [r0, #12]
 800300c:	4648      	mov	r0, r9
 800300e:	f003 f9dd 	bl	80063cc <smoltcp::socket::tcp::Socket::seq_to_transmit>
 8003012:	f8dd 80fc 	ldr.w	r8, [sp, #252]	@ 0xfc
 8003016:	e04d      	b.n	80030b4 <smoltcp::iface::interface::Interface::poll+0x1f98>
 8003018:	4622      	mov	r2, r4
 800301a:	e084      	b.n	8003126 <smoltcp::iface::interface::Interface::poll+0x200a>
 800301c:	9948      	ldr	r1, [sp, #288]	@ 0x120
 800301e:	f8dd 80fc 	ldr.w	r8, [sp, #252]	@ 0xfc
 8003022:	e9d1 2104 	ldrd	r2, r1, [r1, #16]
 8003026:	f8d9 3018 	ldr.w	r3, [r9, #24]
 800302a:	2b01      	cmp	r3, #1
 800302c:	d104      	bne.n	8003038 <smoltcp::iface::interface::Interface::poll+0x1f1c>
 800302e:	f8d9 301c 	ldr.w	r3, [r9, #28]
 8003032:	1ac3      	subs	r3, r0, r3
 8003034:	2b01      	cmp	r3, #1
 8003036:	db0e      	blt.n	8003056 <smoltcp::iface::interface::Interface::poll+0x1f3a>
 8003038:	e9d9 3600 	ldrd	r3, r6, [r9]
 800303c:	2401      	movs	r4, #1
 800303e:	e9c9 4006 	strd	r4, r0, [r9, #24]
 8003042:	4333      	orrs	r3, r6
 8003044:	d107      	bne.n	8003056 <smoltcp::iface::interface::Interface::poll+0x1f3a>
 8003046:	2301      	movs	r3, #1
 8003048:	e9c9 1003 	strd	r1, r0, [r9, #12]
 800304c:	f8c9 3000 	str.w	r3, [r9]
 8003050:	2300      	movs	r3, #0
 8003052:	e9c9 3201 	strd	r3, r2, [r9, #4]
 8003056:	9848      	ldr	r0, [sp, #288]	@ 0x120
 8003058:	68c1      	ldr	r1, [r0, #12]
 800305a:	4648      	mov	r0, r9
 800305c:	f003 f9b6 	bl	80063cc <smoltcp::socket::tcp::Socket::seq_to_transmit>
 8003060:	bb40      	cbnz	r0, 80030b4 <smoltcp::iface::interface::Interface::poll+0x1f98>
 8003062:	9848      	ldr	r0, [sp, #288]	@ 0x120
 8003064:	f8d9 2080 	ldr.w	r2, [r9, #128]	@ 0x80
 8003068:	e9d0 1004 	ldrd	r1, r0, [r0, #16]
 800306c:	e8df f002 	tbb	[pc, r2]
 8003070:	22027a02 	.word	0x22027a02
 8003074:	e9d9 2308 	ldrd	r2, r3, [r9, #32]
 8003078:	009e      	lsls	r6, r3, #2
 800307a:	2e05      	cmp	r6, #5
 800307c:	f04f 0605 	mov.w	r6, #5
 8003080:	bf88      	it	hi
 8003082:	009e      	lslhi	r6, r3, #2
 8003084:	4432      	add	r2, r6
 8003086:	2a0a      	cmp	r2, #10
 8003088:	bf98      	it	ls
 800308a:	220a      	movls	r2, #10
 800308c:	f242 7310 	movw	r3, #10000	@ 0x2710
 8003090:	429a      	cmp	r2, r3
 8003092:	bf28      	it	cs
 8003094:	461a      	movcs	r2, r3
 8003096:	f44f 737a 	mov.w	r3, #1000	@ 0x3e8
 800309a:	435a      	muls	r2, r3
 800309c:	2301      	movs	r3, #1
 800309e:	f8c9 3080 	str.w	r3, [r9, #128]	@ 0x80
 80030a2:	2300      	movs	r3, #0
 80030a4:	1889      	adds	r1, r1, r2
 80030a6:	f140 0000 	adc.w	r0, r0, #0
 80030aa:	e9c9 3121 	strd	r3, r1, [r9, #132]	@ 0x84
 80030ae:	f109 018c 	add.w	r1, r9, #140	@ 0x8c
 80030b2:	c10d      	stmia	r1!, {r0, r2, r3}
 80030b4:	f899 0133 	ldrb.w	r0, [r9, #307]	@ 0x133
 80030b8:	f8cd 8114 	str.w	r8, [sp, #276]	@ 0x114
 80030bc:	2800      	cmp	r0, #0
 80030be:	f47f aa7b 	bne.w	80025b8 <smoltcp::iface::interface::Interface::poll+0x149c>
 80030c2:	2000      	movs	r0, #0
 80030c4:	f8a9 011c 	strh.w	r0, [r9, #284]	@ 0x11c
 80030c8:	983f      	ldr	r0, [sp, #252]	@ 0xfc
 80030ca:	9045      	str	r0, [sp, #276]	@ 0x114
 80030cc:	f7ff ba74 	b.w	80025b8 <smoltcp::iface::interface::Interface::poll+0x149c>
 80030d0:	f04f 0c00 	mov.w	ip, #0
 80030d4:	9843      	ldr	r0, [sp, #268]	@ 0x10c
 80030d6:	42b1      	cmp	r1, r6
 80030d8:	f200 80bf 	bhi.w	800325a <smoltcp::iface::interface::Interface::poll+0x213e>
 80030dc:	2202      	movs	r2, #2
 80030de:	2d00      	cmp	r5, #0
 80030e0:	f47f ac57 	bne.w	8002992 <smoltcp::iface::interface::Interface::poll+0x1876>
 80030e4:	2300      	movs	r3, #0
 80030e6:	9d46      	ldr	r5, [sp, #280]	@ 0x118
 80030e8:	1a61      	subs	r1, r4, r1
 80030ea:	2a02      	cmp	r2, #2
 80030ec:	e9c9 3112 	strd	r3, r1, [r9, #72]	@ 0x48
 80030f0:	d10a      	bne.n	8003108 <smoltcp::iface::interface::Interface::poll+0x1fec>
 80030f2:	993e      	ldr	r1, [sp, #248]	@ 0xf8
 80030f4:	9b3f      	ldr	r3, [sp, #252]	@ 0xfc
 80030f6:	3101      	adds	r1, #1
 80030f8:	fbb1 f2f3 	udiv	r2, r1, r3
 80030fc:	fb02 1113 	mls	r1, r2, r3, r1
 8003100:	1e42      	subs	r2, r0, #1
 8003102:	e9c9 120e 	strd	r1, r2, [r9, #56]	@ 0x38
 8003106:	2202      	movs	r2, #2
 8003108:	2a02      	cmp	r2, #2
 800310a:	f04f 0102 	mov.w	r1, #2
 800310e:	bf28      	it	cs
 8003110:	460a      	movcs	r2, r1
 8003112:	2a02      	cmp	r2, #2
 8003114:	f43f aa50 	beq.w	80025b8 <smoltcp::iface::interface::Interface::poll+0x149c>
 8003118:	07d1      	lsls	r1, r2, #31
 800311a:	d057      	beq.n	80031cc <smoltcp::iface::interface::Interface::poll+0x20b0>
 800311c:	9a45      	ldr	r2, [sp, #276]	@ 0x114
 800311e:	f1bc 0f00 	cmp.w	ip, #0
 8003122:	f000 8087 	beq.w	8003234 <smoltcp::iface::interface::Interface::poll+0x2118>
 8003126:	9848      	ldr	r0, [sp, #288]	@ 0x120
 8003128:	9245      	str	r2, [sp, #276]	@ 0x114
 800312a:	e9d0 0104 	ldrd	r0, r1, [r0, #16]
 800312e:	f8c9 2139 	str.w	r2, [r9, #313]	@ 0x139
 8003132:	2201      	movs	r2, #1
 8003134:	f889 2138 	strb.w	r2, [r9, #312]	@ 0x138
 8003138:	f244 2240 	movw	r2, #16960	@ 0x4240
 800313c:	f2c0 020f 	movt	r2, #15
 8003140:	1880      	adds	r0, r0, r2
 8003142:	f141 0100 	adc.w	r1, r1, #0
 8003146:	e9c9 0150 	strd	r0, r1, [r9, #320]	@ 0x140
 800314a:	f7ff ba35 	b.w	80025b8 <smoltcp::iface::interface::Interface::poll+0x149c>
 800314e:	f1b8 0f00 	cmp.w	r8, #0
 8003152:	d002      	beq.n	800315a <smoltcp::iface::interface::Interface::poll+0x203e>
 8003154:	2001      	movs	r0, #1
 8003156:	9043      	str	r0, [sp, #268]	@ 0x10c
 8003158:	e650      	b.n	8002dfc <smoltcp::iface::interface::Interface::poll+0x1ce0>
 800315a:	2001      	movs	r0, #1
 800315c:	f04f 0800 	mov.w	r8, #0
 8003160:	9043      	str	r0, [sp, #268]	@ 0x10c
 8003162:	e64a      	b.n	8002dfa <smoltcp::iface::interface::Interface::poll+0x1cde>
 8003164:	e9d9 2322 	ldrd	r2, r3, [r9, #136]	@ 0x88
 8003168:	1a8a      	subs	r2, r1, r2
 800316a:	eb70 0203 	sbcs.w	r2, r0, r3
 800316e:	dba1      	blt.n	80030b4 <smoltcp::iface::interface::Interface::poll+0x1f98>
 8003170:	e9d9 2324 	ldrd	r2, r3, [r9, #144]	@ 0x90
 8003174:	005e      	lsls	r6, r3, #1
 8003176:	1889      	adds	r1, r1, r2
 8003178:	4158      	adcs	r0, r3
 800317a:	2301      	movs	r3, #1
 800317c:	f8c9 3080 	str.w	r3, [r9, #128]	@ 0x80
 8003180:	2300      	movs	r3, #0
 8003182:	e9c9 3121 	strd	r3, r1, [r9, #132]	@ 0x84
 8003186:	f109 018c 	add.w	r1, r9, #140	@ 0x8c
 800318a:	ea46 76d2 	orr.w	r6, r6, r2, lsr #31
 800318e:	0052      	lsls	r2, r2, #1
 8003190:	c145      	stmia	r1!, {r0, r2, r6}
 8003192:	e78f      	b.n	80030b4 <smoltcp::iface::interface::Interface::poll+0x1f98>
 8003194:	f64a 7004 	movw	r0, #44804	@ 0xaf04
 8003198:	f64a 7230 	movw	r2, #44848	@ 0xaf30
 800319c:	f6c0 0000 	movt	r0, #2048	@ 0x800
 80031a0:	f6c0 0200 	movt	r2, #2048	@ 0x800
 80031a4:	212c      	movs	r1, #44	@ 0x2c
 80031a6:	f000 fb2f 	bl	8003808 <core::panicking::panic>
 80031aa:	f64a 3070 	movw	r0, #43888	@ 0xab70
 80031ae:	f64a 32a8 	movw	r2, #43944	@ 0xaba8
 80031b2:	f6c0 0000 	movt	r0, #2048	@ 0x800
 80031b6:	f6c0 0200 	movt	r2, #2048	@ 0x800
 80031ba:	2171      	movs	r1, #113	@ 0x71
 80031bc:	f000 fb02 	bl	80037c4 <core::panicking::panic_fmt>
 80031c0:	f240 0025 	movw	r0, #37	@ 0x25
 80031c4:	f2c0 0000 	movt	r0, #0
 80031c8:	f001 f8c7 	bl	800435a <defmt::export::acquire_header_and_release>
 80031cc:	f50d 7d5b 	add.w	sp, sp, #876	@ 0x36c
 80031d0:	e8bd 0f00 	ldmia.w	sp!, {r8, r9, sl, fp}
 80031d4:	bdf0      	pop	{r4, r5, r6, r7, pc}
 80031d6:	f64a 70f0 	movw	r0, #45040	@ 0xaff0
 80031da:	f24b 0234 	movw	r2, #45108	@ 0xb034
 80031de:	f6c0 0000 	movt	r0, #2048	@ 0x800
 80031e2:	f6c0 0200 	movt	r2, #2048	@ 0x800
 80031e6:	2141      	movs	r1, #65	@ 0x41
 80031e8:	f000 ff25 	bl	8004036 <core::option::expect_failed>
 80031ec:	f24b 0044 	movw	r0, #45124	@ 0xb044
 80031f0:	f24b 0288 	movw	r2, #45192	@ 0xb088
 80031f4:	f6c0 0000 	movt	r0, #2048	@ 0x800
 80031f8:	f6c0 0200 	movt	r2, #2048	@ 0x800
 80031fc:	2142      	movs	r1, #66	@ 0x42
 80031fe:	f000 ff1a 	bl	8004036 <core::option::expect_failed>
 8003202:	f64a 7360 	movw	r3, #44896	@ 0xaf60
 8003206:	2000      	movs	r0, #0
 8003208:	f6c0 0300 	movt	r3, #2048	@ 0x800
 800320c:	f240 52f2 	movw	r2, #1522	@ 0x5f2
 8003210:	f000 fa67 	bl	80036e2 <core::slice::index::slice_index_fail>
 8003214:	f64a 03b4 	movw	r3, #43188	@ 0xa8b4
 8003218:	4640      	mov	r0, r8
 800321a:	f6c0 0300 	movt	r3, #2048	@ 0x800
 800321e:	462a      	mov	r2, r5
 8003220:	f000 fa5f 	bl	80036e2 <core::slice::index::slice_index_fail>
 8003224:	f64a 03d4 	movw	r3, #43220	@ 0xa8d4
 8003228:	2000      	movs	r0, #0
 800322a:	f6c0 0300 	movt	r3, #2048	@ 0x800
 800322e:	4632      	mov	r2, r6
 8003230:	f000 fa57 	bl	80036e2 <core::slice::index::slice_index_fail>
 8003234:	f24a 4058 	movw	r0, #42072	@ 0xa458
 8003238:	f24a 4270 	movw	r2, #42096	@ 0xa470
 800323c:	f6c0 0000 	movt	r0, #2048	@ 0x800
 8003240:	f6c0 0200 	movt	r2, #2048	@ 0x800
 8003244:	2116      	movs	r1, #22
 8003246:	f000 fef6 	bl	8004036 <core::option::expect_failed>
 800324a:	f64a 03b4 	movw	r3, #43188	@ 0xa8b4
 800324e:	4628      	mov	r0, r5
 8003250:	f6c0 0300 	movt	r3, #2048	@ 0x800
 8003254:	4631      	mov	r1, r6
 8003256:	f000 fa44 	bl	80036e2 <core::slice::index::slice_index_fail>
 800325a:	f64a 0080 	movw	r0, #43136	@ 0xa880
 800325e:	f64a 02a4 	movw	r2, #43172	@ 0xa8a4
 8003262:	f6c0 0000 	movt	r0, #2048	@ 0x800
 8003266:	f6c0 0200 	movt	r2, #2048	@ 0x800
 800326a:	2122      	movs	r1, #34	@ 0x22
 800326c:	f000 facc 	bl	8003808 <core::panicking::panic>
 8003270:	f64a 0050 	movw	r0, #43088	@ 0xa850
 8003274:	f6c0 0000 	movt	r0, #2048	@ 0x800
 8003278:	f000 fa29 	bl	80036ce <core::option::unwrap_failed>
 800327c:	f64a 00c4 	movw	r0, #43204	@ 0xa8c4
 8003280:	f6c0 0000 	movt	r0, #2048	@ 0x800
 8003284:	f000 fa23 	bl	80036ce <core::option::unwrap_failed>
 8003288:	f64a 1094 	movw	r0, #43412	@ 0xa994
 800328c:	f64a 12c8 	movw	r2, #43464	@ 0xa9c8
 8003290:	f6c0 0000 	movt	r0, #2048	@ 0x800
 8003294:	f6c0 0200 	movt	r2, #2048	@ 0x800
 8003298:	2167      	movs	r1, #103	@ 0x67
 800329a:	f000 fa93 	bl	80037c4 <core::panicking::panic_fmt>
 800329e:	f64a 0360 	movw	r3, #43104	@ 0xa860
 80032a2:	f6c0 0300 	movt	r3, #2048	@ 0x800
 80032a6:	f000 fa1c 	bl	80036e2 <core::slice::index::slice_index_fail>
 80032aa:	f64a 72a0 	movw	r2, #44960	@ 0xafa0
 80032ae:	f6c0 0200 	movt	r2, #2048	@ 0x800
 80032b2:	f000 fa95 	bl	80037e0 <core::panicking::panic_bounds_check>
 80032b6:	f64a 7270 	movw	r2, #44912	@ 0xaf70
 80032ba:	4628      	mov	r0, r5
